
target/RISCV64-MCS-O1/build/kernel.elf:     file format elf64-littleriscv


Disassembly of section .boot.text:

ffffffff84000000 <_start>:
ffffffff84000000:	0000100f          	fence.i
ffffffff84000004:	0000c197          	auipc	gp,0xc
ffffffff84000008:	11618193          	addi	gp,gp,278 # ffffffff8400c11a <__global_pointer$>
ffffffff8400000c:	0001f117          	auipc	sp,0x1f
ffffffff84000010:	7f410113          	addi	sp,sp,2036 # ffffffff8401f800 <tlbLockCount>
ffffffff84000014:	14001073          	csrw	sscratch,zero
ffffffff84000018:	432010ef          	jal	ra,ffffffff8400144a <init_kernel>
ffffffff8400001c:	00002097          	auipc	ra,0x2
ffffffff84000020:	1a208093          	addi	ra,ra,418 # ffffffff840021be <restore_user_context>
ffffffff84000024:	8082                	ret

ffffffff84000026 <merge_regions>:
ffffffff84000026:	0000c597          	auipc	a1,0xc
ffffffff8400002a:	70a5b583          	ld	a1,1802(a1) # ffffffff8400c730 <ndks_boot+0x330>
ffffffff8400002e:	4785                	li	a5,1
ffffffff84000030:	06b7f963          	bgeu	a5,a1,ffffffff840000a2 <merge_regions+0x7c>
ffffffff84000034:	4705                	li	a4,1
ffffffff84000036:	0000c617          	auipc	a2,0xc
ffffffff8400003a:	3ca60613          	addi	a2,a2,970 # ffffffff8400c400 <ndks_boot>
ffffffff8400003e:	0000c817          	auipc	a6,0xc
ffffffff84000042:	3b280813          	addi	a6,a6,946 # ffffffff8400c3f0 <__global_pointer$+0x2d6>
ffffffff84000046:	a081                	j	ffffffff84000086 <merge_regions+0x60>
ffffffff84000048:	00471793          	slli	a5,a4,0x4
ffffffff8400004c:	97b2                	add	a5,a5,a2
ffffffff8400004e:	679c                	ld	a5,8(a5)
ffffffff84000050:	0512                	slli	a0,a0,0x4
ffffffff84000052:	9532                	add	a0,a0,a2
ffffffff84000054:	e51c                	sd	a5,8(a0)
ffffffff84000056:	00170793          	addi	a5,a4,1
ffffffff8400005a:	00b7ff63          	bgeu	a5,a1,ffffffff84000078 <merge_regions+0x52>
ffffffff8400005e:	00471793          	slli	a5,a4,0x4
ffffffff84000062:	97b2                	add	a5,a5,a2
ffffffff84000064:	00459513          	slli	a0,a1,0x4
ffffffff84000068:	9542                	add	a0,a0,a6
ffffffff8400006a:	6b94                	ld	a3,16(a5)
ffffffff8400006c:	e394                	sd	a3,0(a5)
ffffffff8400006e:	6f94                	ld	a3,24(a5)
ffffffff84000070:	e794                	sd	a3,8(a5)
ffffffff84000072:	07c1                	addi	a5,a5,16
ffffffff84000074:	fea79be3          	bne	a5,a0,ffffffff8400006a <merge_regions+0x44>
ffffffff84000078:	15fd                	addi	a1,a1,-1
ffffffff8400007a:	32b63823          	sd	a1,816(a2)
ffffffff8400007e:	33063583          	ld	a1,816(a2)
ffffffff84000082:	02b77063          	bgeu	a4,a1,ffffffff840000a2 <merge_regions+0x7c>
ffffffff84000086:	fff70513          	addi	a0,a4,-1
ffffffff8400008a:	00451693          	slli	a3,a0,0x4
ffffffff8400008e:	96b2                	add	a3,a3,a2
ffffffff84000090:	00471793          	slli	a5,a4,0x4
ffffffff84000094:	97b2                	add	a5,a5,a2
ffffffff84000096:	6694                	ld	a3,8(a3)
ffffffff84000098:	639c                	ld	a5,0(a5)
ffffffff8400009a:	faf687e3          	beq	a3,a5,ffffffff84000048 <merge_regions+0x22>
ffffffff8400009e:	0705                	addi	a4,a4,1
ffffffff840000a0:	bff9                	j	ffffffff8400007e <merge_regions+0x58>
ffffffff840000a2:	8082                	ret

ffffffff840000a4 <Arch_configureIdleThread>:
ffffffff840000a4:	00002797          	auipc	a5,0x2
ffffffff840000a8:	02878793          	addi	a5,a5,40 # ffffffff840020cc <idle_thread>
ffffffff840000ac:	10f53823          	sd	a5,272(a0)
ffffffff840000b0:	12000793          	li	a5,288
ffffffff840000b4:	10f53023          	sd	a5,256(a0)
ffffffff840000b8:	0001f797          	auipc	a5,0x1f
ffffffff840000bc:	74878793          	addi	a5,a5,1864 # ffffffff8401f800 <tlbLockCount>
ffffffff840000c0:	e51c                	sd	a5,8(a0)
ffffffff840000c2:	8082                	ret

ffffffff840000c4 <map_kernel_frame>:
ffffffff840000c4:	1141                	addi	sp,sp,-16
ffffffff840000c6:	e406                	sd	ra,8(sp)
ffffffff840000c8:	e022                	sd	s0,0(sp)
ffffffff840000ca:	c00007b7          	lui	a5,0xc0000
ffffffff840000ce:	02f5e663          	bltu	a1,a5,ffffffff840000fa <map_kernel_frame+0x36>
ffffffff840000d2:	81d5                	srli	a1,a1,0x15
ffffffff840000d4:	1ff5f593          	andi	a1,a1,511
ffffffff840000d8:	058e                	slli	a1,a1,0x3
ffffffff840000da:	00021417          	auipc	s0,0x21
ffffffff840000de:	f2640413          	addi	s0,s0,-218 # ffffffff84021000 <kernel_image_level2_dev_pt>
ffffffff840000e2:	942e                	add	s0,s0,a1
ffffffff840000e4:	4585                	li	a1,1
ffffffff840000e6:	ffe007b7          	lui	a5,0xffe00
ffffffff840000ea:	8d7d                	and	a0,a0,a5
ffffffff840000ec:	7e7010ef          	jal	ra,ffffffff840020d2 <pte_next>
ffffffff840000f0:	e008                	sd	a0,0(s0)
ffffffff840000f2:	60a2                	ld	ra,8(sp)
ffffffff840000f4:	6402                	ld	s0,0(sp)
ffffffff840000f6:	0141                	addi	sp,sp,16
ffffffff840000f8:	8082                	ret
ffffffff840000fa:	81f9                	srli	a1,a1,0x1e
ffffffff840000fc:	1ff5f593          	andi	a1,a1,511
ffffffff84000100:	058e                	slli	a1,a1,0x3
ffffffff84000102:	00023417          	auipc	s0,0x23
ffffffff84000106:	efe40413          	addi	s0,s0,-258 # ffffffff84023000 <kernel_root_pageTable>
ffffffff8400010a:	942e                	add	s0,s0,a1
ffffffff8400010c:	4585                	li	a1,1
ffffffff8400010e:	c00007b7          	lui	a5,0xc0000
ffffffff84000112:	8d7d                	and	a0,a0,a5
ffffffff84000114:	7bf010ef          	jal	ra,ffffffff840020d2 <pte_next>
ffffffff84000118:	e008                	sd	a0,0(s0)
ffffffff8400011a:	bfe1                	j	ffffffff840000f2 <map_kernel_frame+0x2e>

ffffffff8400011c <create_unmapped_it_frame_cap>:
ffffffff8400011c:	1141                	addi	sp,sp,-16
ffffffff8400011e:	00951593          	slli	a1,a0,0x9
ffffffff84000122:	4505                	li	a0,1
ffffffff84000124:	156e                	slli	a0,a0,0x3b
ffffffff84000126:	fe0007b7          	lui	a5,0xfe000
ffffffff8400012a:	83c1                	srli	a5,a5,0x10
ffffffff8400012c:	8dfd                	and	a1,a1,a5
ffffffff8400012e:	0141                	addi	sp,sp,16
ffffffff84000130:	8082                	ret

ffffffff84000132 <arch_get_n_paging>:
ffffffff84000132:	1141                	addi	sp,sp,-16
ffffffff84000134:	15fd                	addi	a1,a1,-1
ffffffff84000136:	0155d713          	srli	a4,a1,0x15
ffffffff8400013a:	0705                	addi	a4,a4,1
ffffffff8400013c:	0756                	slli	a4,a4,0x15
ffffffff8400013e:	ffe007b7          	lui	a5,0xffe00
ffffffff84000142:	8fe9                	and	a5,a5,a0
ffffffff84000144:	8f1d                	sub	a4,a4,a5
ffffffff84000146:	8355                	srli	a4,a4,0x15
ffffffff84000148:	01e5d793          	srli	a5,a1,0x1e
ffffffff8400014c:	0785                	addi	a5,a5,1
ffffffff8400014e:	07fa                	slli	a5,a5,0x1e
ffffffff84000150:	c00006b7          	lui	a3,0xc0000
ffffffff84000154:	8d75                	and	a0,a0,a3
ffffffff84000156:	8f89                	sub	a5,a5,a0
ffffffff84000158:	83f9                	srli	a5,a5,0x1e
ffffffff8400015a:	00f70533          	add	a0,a4,a5
ffffffff8400015e:	0141                	addi	sp,sp,16
ffffffff84000160:	8082                	ret

ffffffff84000162 <activate_kernel_vspace>:
ffffffff84000162:	00023797          	auipc	a5,0x23
ffffffff84000166:	e9e78793          	addi	a5,a5,-354 # ffffffff84023000 <kernel_root_pageTable>
ffffffff8400016a:	4705                	li	a4,1
ffffffff8400016c:	1702                	slli	a4,a4,0x20
ffffffff8400016e:	97ba                	add	a5,a5,a4
ffffffff84000170:	83b1                	srli	a5,a5,0xc
ffffffff84000172:	577d                	li	a4,-1
ffffffff84000174:	01475693          	srli	a3,a4,0x14
ffffffff84000178:	8ff5                	and	a5,a5,a3
ffffffff8400017a:	177e                	slli	a4,a4,0x3f
ffffffff8400017c:	8fd9                	or	a5,a5,a4
ffffffff8400017e:	18079073          	csrw	satp,a5
ffffffff84000182:	12000073          	sfence.vma
ffffffff84000186:	8082                	ret

ffffffff84000188 <get_num_avail_p_regs>:
ffffffff84000188:	4505                	li	a0,1
ffffffff8400018a:	8082                	ret

ffffffff8400018c <get_avail_p_regs>:
ffffffff8400018c:	00001517          	auipc	a0,0x1
ffffffff84000190:	65450513          	addi	a0,a0,1620 # ffffffff840017e0 <avail_p_regs>
ffffffff84000194:	8082                	ret

ffffffff84000196 <initL2Cache>:
ffffffff84000196:	8082                	ret

ffffffff84000198 <initLocalIRQController>:
ffffffff84000198:	4685                	li	a3,1
ffffffff8400019a:	c00025b7          	lui	a1,0xc0002
ffffffff8400019e:	10058593          	addi	a1,a1,256 # ffffffffc0002100 <ki_end+0x3bfdd100>
ffffffff840001a2:	4805                	li	a6,1
ffffffff840001a4:	03600513          	li	a0,54
ffffffff840001a8:	0056d713          	srli	a4,a3,0x5
ffffffff840001ac:	070a                	slli	a4,a4,0x2
ffffffff840001ae:	972e                	add	a4,a4,a1
ffffffff840001b0:	4310                	lw	a2,0(a4)
ffffffff840001b2:	01f6f793          	andi	a5,a3,31
ffffffff840001b6:	00f817b3          	sll	a5,a6,a5
ffffffff840001ba:	fff7c793          	not	a5,a5
ffffffff840001be:	8ff1                	and	a5,a5,a2
ffffffff840001c0:	2781                	sext.w	a5,a5
ffffffff840001c2:	c31c                	sw	a5,0(a4)
ffffffff840001c4:	0685                	addi	a3,a3,1
ffffffff840001c6:	fea691e3          	bne	a3,a0,ffffffff840001a8 <initLocalIRQController+0x10>
ffffffff840001ca:	c02027b7          	lui	a5,0xc0202
ffffffff840001ce:	0007a023          	sw	zero,0(a5) # ffffffffc0202000 <ki_end+0x3c1dd000>
ffffffff840001d2:	22000793          	li	a5,544
ffffffff840001d6:	1047a7f3          	csrrs	a5,sie,a5
ffffffff840001da:	8082                	ret

ffffffff840001dc <initIRQController>:
ffffffff840001dc:	4705                	li	a4,1
ffffffff840001de:	c0001537          	lui	a0,0xc0001
ffffffff840001e2:	c0202837          	lui	a6,0xc0202
ffffffff840001e6:	03600593          	li	a1,54
ffffffff840001ea:	a021                	j	ffffffff840001f2 <initIRQController+0x16>
ffffffff840001ec:	0705                	addi	a4,a4,1
ffffffff840001ee:	02b70663          	beq	a4,a1,ffffffff8400021a <initIRQController+0x3e>
ffffffff840001f2:	0007061b          	sext.w	a2,a4
ffffffff840001f6:	00575793          	srli	a5,a4,0x5
ffffffff840001fa:	078a                	slli	a5,a5,0x2
ffffffff840001fc:	97aa                	add	a5,a5,a0
ffffffff840001fe:	439c                	lw	a5,0(a5)
ffffffff84000200:	1782                	slli	a5,a5,0x20
ffffffff84000202:	9381                	srli	a5,a5,0x20
ffffffff84000204:	01f77693          	andi	a3,a4,31
ffffffff84000208:	00d7d7b3          	srl	a5,a5,a3
ffffffff8400020c:	8b85                	andi	a5,a5,1
ffffffff8400020e:	dff9                	beqz	a5,ffffffff840001ec <initIRQController+0x10>
ffffffff84000210:	00482783          	lw	a5,4(a6) # ffffffffc0202004 <ki_end+0x3c1dd004>
ffffffff84000214:	00c82223          	sw	a2,4(a6)
ffffffff84000218:	bfd1                	j	ffffffff840001ec <initIRQController+0x10>
ffffffff8400021a:	c00007b7          	lui	a5,0xc0000
ffffffff8400021e:	0791                	addi	a5,a5,4
ffffffff84000220:	4689                	li	a3,2
ffffffff84000222:	c0000737          	lui	a4,0xc0000
ffffffff84000226:	0dc70713          	addi	a4,a4,220 # ffffffffc00000dc <ki_end+0x3bfdb0dc>
ffffffff8400022a:	c394                	sw	a3,0(a5)
ffffffff8400022c:	0791                	addi	a5,a5,4
ffffffff8400022e:	fee79ee3          	bne	a5,a4,ffffffff8400022a <initIRQController+0x4e>
ffffffff84000232:	8082                	ret

ffffffff84000234 <reserve_region>:
ffffffff84000234:	0eb50563          	beq	a0,a1,ffffffff8400031e <reserve_region+0xea>
ffffffff84000238:	1101                	addi	sp,sp,-32
ffffffff8400023a:	ec06                	sd	ra,24(sp)
ffffffff8400023c:	88aa                	mv	a7,a0
ffffffff8400023e:	0000c817          	auipc	a6,0xc
ffffffff84000242:	4f283803          	ld	a6,1266(a6) # ffffffff8400c730 <ndks_boot+0x330>
ffffffff84000246:	02080963          	beqz	a6,ffffffff84000278 <reserve_region+0x44>
ffffffff8400024a:	0000c317          	auipc	t1,0xc
ffffffff8400024e:	1b630313          	addi	t1,t1,438 # ffffffff8400c400 <ndks_boot>
ffffffff84000252:	879a                	mv	a5,t1
ffffffff84000254:	4701                	li	a4,0
ffffffff84000256:	6394                	ld	a3,0(a5)
ffffffff84000258:	02b68f63          	beq	a3,a1,ffffffff84000296 <reserve_region+0x62>
ffffffff8400025c:	6790                	ld	a2,8(a5)
ffffffff8400025e:	05160a63          	beq	a2,a7,ffffffff840002b2 <reserve_region+0x7e>
ffffffff84000262:	06d5e363          	bltu	a1,a3,ffffffff840002c8 <reserve_region+0x94>
ffffffff84000266:	0705                	addi	a4,a4,1
ffffffff84000268:	07c1                	addi	a5,a5,16
ffffffff8400026a:	ff0716e3          	bne	a4,a6,ffffffff84000256 <reserve_region+0x22>
ffffffff8400026e:	03200793          	li	a5,50
ffffffff84000272:	4501                	li	a0,0
ffffffff84000274:	02f80c63          	beq	a6,a5,ffffffff840002ac <reserve_region+0x78>
ffffffff84000278:	0000c717          	auipc	a4,0xc
ffffffff8400027c:	18870713          	addi	a4,a4,392 # ffffffff8400c400 <ndks_boot>
ffffffff84000280:	00481793          	slli	a5,a6,0x4
ffffffff84000284:	97ba                	add	a5,a5,a4
ffffffff84000286:	0117b023          	sd	a7,0(a5) # ffffffffc0000000 <ki_end+0x3bfdb000>
ffffffff8400028a:	e78c                	sd	a1,8(a5)
ffffffff8400028c:	0805                	addi	a6,a6,1
ffffffff8400028e:	33073823          	sd	a6,816(a4)
ffffffff84000292:	4505                	li	a0,1
ffffffff84000294:	a821                	j	ffffffff840002ac <reserve_region+0x78>
ffffffff84000296:	0712                	slli	a4,a4,0x4
ffffffff84000298:	0000c797          	auipc	a5,0xc
ffffffff8400029c:	16878793          	addi	a5,a5,360 # ffffffff8400c400 <ndks_boot>
ffffffff840002a0:	973e                	add	a4,a4,a5
ffffffff840002a2:	01173023          	sd	a7,0(a4)
ffffffff840002a6:	d81ff0ef          	jal	ra,ffffffff84000026 <merge_regions>
ffffffff840002aa:	4505                	li	a0,1
ffffffff840002ac:	60e2                	ld	ra,24(sp)
ffffffff840002ae:	6105                	addi	sp,sp,32
ffffffff840002b0:	8082                	ret
ffffffff840002b2:	0712                	slli	a4,a4,0x4
ffffffff840002b4:	0000c797          	auipc	a5,0xc
ffffffff840002b8:	14c78793          	addi	a5,a5,332 # ffffffff8400c400 <ndks_boot>
ffffffff840002bc:	973e                	add	a4,a4,a5
ffffffff840002be:	e70c                	sd	a1,8(a4)
ffffffff840002c0:	d67ff0ef          	jal	ra,ffffffff84000026 <merge_regions>
ffffffff840002c4:	4505                	li	a0,1
ffffffff840002c6:	b7dd                	j	ffffffff840002ac <reserve_region+0x78>
ffffffff840002c8:	00180693          	addi	a3,a6,1
ffffffff840002cc:	03200793          	li	a5,50
ffffffff840002d0:	4501                	li	a0,0
ffffffff840002d2:	fcd7ede3          	bltu	a5,a3,ffffffff840002ac <reserve_region+0x78>
ffffffff840002d6:	03077663          	bgeu	a4,a6,ffffffff84000302 <reserve_region+0xce>
ffffffff840002da:	0812                	slli	a6,a6,0x4
ffffffff840002dc:	0000c797          	auipc	a5,0xc
ffffffff840002e0:	12478793          	addi	a5,a5,292 # ffffffff8400c400 <ndks_boot>
ffffffff840002e4:	983e                	add	a6,a6,a5
ffffffff840002e6:	00471793          	slli	a5,a4,0x4
ffffffff840002ea:	933e                	add	t1,t1,a5
ffffffff840002ec:	ff083783          	ld	a5,-16(a6)
ffffffff840002f0:	00f83023          	sd	a5,0(a6)
ffffffff840002f4:	ff883783          	ld	a5,-8(a6)
ffffffff840002f8:	00f83423          	sd	a5,8(a6)
ffffffff840002fc:	1841                	addi	a6,a6,-16
ffffffff840002fe:	fe6817e3          	bne	a6,t1,ffffffff840002ec <reserve_region+0xb8>
ffffffff84000302:	0000c617          	auipc	a2,0xc
ffffffff84000306:	0fe60613          	addi	a2,a2,254 # ffffffff8400c400 <ndks_boot>
ffffffff8400030a:	00471793          	slli	a5,a4,0x4
ffffffff8400030e:	97b2                	add	a5,a5,a2
ffffffff84000310:	0117b023          	sd	a7,0(a5)
ffffffff84000314:	e78c                	sd	a1,8(a5)
ffffffff84000316:	32d63823          	sd	a3,816(a2)
ffffffff8400031a:	4505                	li	a0,1
ffffffff8400031c:	bf41                	j	ffffffff840002ac <reserve_region+0x78>
ffffffff8400031e:	4505                	li	a0,1
ffffffff84000320:	8082                	ret

ffffffff84000322 <map_kernel_devices>:
ffffffff84000322:	7139                	addi	sp,sp,-64
ffffffff84000324:	fc06                	sd	ra,56(sp)
ffffffff84000326:	f822                	sd	s0,48(sp)
ffffffff84000328:	f426                	sd	s1,40(sp)
ffffffff8400032a:	f04a                	sd	s2,32(sp)
ffffffff8400032c:	ec4e                	sd	s3,24(sp)
ffffffff8400032e:	00001417          	auipc	s0,0x1
ffffffff84000332:	4c240413          	addi	s0,s0,1218 # ffffffff840017f0 <kernel_devices>
ffffffff84000336:	00001917          	auipc	s2,0x1
ffffffff8400033a:	7ba90913          	addi	s2,s2,1978 # ffffffff84001af0 <avail_reg>
ffffffff8400033e:	002009b7          	lui	s3,0x200
ffffffff84000342:	a021                	j	ffffffff8400034a <map_kernel_devices+0x28>
ffffffff84000344:	0461                	addi	s0,s0,24
ffffffff84000346:	03240063          	beq	s0,s2,ffffffff84000366 <map_kernel_devices+0x44>
ffffffff8400034a:	6004                	ld	s1,0(s0)
ffffffff8400034c:	4605                	li	a2,1
ffffffff8400034e:	640c                	ld	a1,8(s0)
ffffffff84000350:	8526                	mv	a0,s1
ffffffff84000352:	d73ff0ef          	jal	ra,ffffffff840000c4 <map_kernel_frame>
ffffffff84000356:	481c                	lw	a5,16(s0)
ffffffff84000358:	f7f5                	bnez	a5,ffffffff84000344 <map_kernel_devices+0x22>
ffffffff8400035a:	8526                	mv	a0,s1
ffffffff8400035c:	013485b3          	add	a1,s1,s3
ffffffff84000360:	ed5ff0ef          	jal	ra,ffffffff84000234 <reserve_region>
ffffffff84000364:	b7c5                	j	ffffffff84000344 <map_kernel_devices+0x22>
ffffffff84000366:	70e2                	ld	ra,56(sp)
ffffffff84000368:	7442                	ld	s0,48(sp)
ffffffff8400036a:	74a2                	ld	s1,40(sp)
ffffffff8400036c:	7902                	ld	s2,32(sp)
ffffffff8400036e:	69e2                	ld	s3,24(sp)
ffffffff84000370:	6121                	addi	sp,sp,64
ffffffff84000372:	8082                	ret

ffffffff84000374 <map_kernel_window>:
ffffffff84000374:	7139                	addi	sp,sp,-64
ffffffff84000376:	fc06                	sd	ra,56(sp)
ffffffff84000378:	f822                	sd	s0,48(sp)
ffffffff8400037a:	f426                	sd	s1,40(sp)
ffffffff8400037c:	f04a                	sd	s2,32(sp)
ffffffff8400037e:	ec4e                	sd	s3,24(sp)
ffffffff84000380:	e852                	sd	s4,16(sp)
ffffffff84000382:	e456                	sd	s5,8(sp)
ffffffff84000384:	e05a                	sd	s6,0(sp)
ffffffff84000386:	54fd                	li	s1,-1
ffffffff84000388:	149a                	slli	s1,s1,0x26
ffffffff8400038a:	00023b17          	auipc	s6,0x23
ffffffff8400038e:	c76b0b13          	addi	s6,s6,-906 # ffffffff84023000 <kernel_root_pageTable>
ffffffff84000392:	4905                	li	s2,1
ffffffff84000394:	02691a93          	slli	s5,s2,0x26
ffffffff84000398:	40000a37          	lui	s4,0x40000
ffffffff8400039c:	800009b7          	lui	s3,0x80000
ffffffff840003a0:	01e4d413          	srli	s0,s1,0x1e
ffffffff840003a4:	1ff47413          	andi	s0,s0,511
ffffffff840003a8:	040e                	slli	s0,s0,0x3
ffffffff840003aa:	945a                	add	s0,s0,s6
ffffffff840003ac:	85ca                	mv	a1,s2
ffffffff840003ae:	01548533          	add	a0,s1,s5
ffffffff840003b2:	521010ef          	jal	ra,ffffffff840020d2 <pte_next>
ffffffff840003b6:	e008                	sd	a0,0(s0)
ffffffff840003b8:	94d2                	add	s1,s1,s4
ffffffff840003ba:	ff3493e3          	bne	s1,s3,ffffffff840003a0 <map_kernel_window+0x2c>
ffffffff840003be:	4405                	li	s0,1
ffffffff840003c0:	02041793          	slli	a5,s0,0x20
ffffffff840003c4:	00022497          	auipc	s1,0x22
ffffffff840003c8:	c3c48493          	addi	s1,s1,-964 # ffffffff84022000 <kernel_image_level2_pt>
ffffffff840003cc:	94be                	add	s1,s1,a5
ffffffff840003ce:	00024917          	auipc	s2,0x24
ffffffff840003d2:	c3290913          	addi	s2,s2,-974 # ffffffff84024000 <kernel_root_pageTable+0x1000>
ffffffff840003d6:	4581                	li	a1,0
ffffffff840003d8:	8526                	mv	a0,s1
ffffffff840003da:	4f9010ef          	jal	ra,ffffffff840020d2 <pte_next>
ffffffff840003de:	80a93823          	sd	a0,-2032(s2)
ffffffff840003e2:	4581                	li	a1,0
ffffffff840003e4:	8526                	mv	a0,s1
ffffffff840003e6:	4ed010ef          	jal	ra,ffffffff840020d2 <pte_next>
ffffffff840003ea:	fea93823          	sd	a0,-16(s2)
ffffffff840003ee:	4901                	li	s2,0
ffffffff840003f0:	047e                	slli	s0,s0,0x1f
ffffffff840003f2:	00022a97          	auipc	s5,0x22
ffffffff840003f6:	c0ea8a93          	addi	s5,s5,-1010 # ffffffff84022000 <kernel_image_level2_pt>
ffffffff840003fa:	00200a37          	lui	s4,0x200
ffffffff840003fe:	498d                	li	s3,3
ffffffff84000400:	09fa                	slli	s3,s3,0x1e
ffffffff84000402:	00391493          	slli	s1,s2,0x3
ffffffff84000406:	94d6                	add	s1,s1,s5
ffffffff84000408:	4585                	li	a1,1
ffffffff8400040a:	8522                	mv	a0,s0
ffffffff8400040c:	4c7010ef          	jal	ra,ffffffff840020d2 <pte_next>
ffffffff84000410:	e088                	sd	a0,0(s1)
ffffffff84000412:	0905                	addi	s2,s2,1
ffffffff84000414:	9452                	add	s0,s0,s4
ffffffff84000416:	ff3416e3          	bne	s0,s3,ffffffff84000402 <map_kernel_window+0x8e>
ffffffff8400041a:	4581                	li	a1,0
ffffffff8400041c:	00021517          	auipc	a0,0x21
ffffffff84000420:	be450513          	addi	a0,a0,-1052 # ffffffff84021000 <kernel_image_level2_dev_pt>
ffffffff84000424:	4785                	li	a5,1
ffffffff84000426:	1782                	slli	a5,a5,0x20
ffffffff84000428:	953e                	add	a0,a0,a5
ffffffff8400042a:	4a9010ef          	jal	ra,ffffffff840020d2 <pte_next>
ffffffff8400042e:	00024797          	auipc	a5,0x24
ffffffff84000432:	bca7b523          	sd	a0,-1078(a5) # ffffffff84023ff8 <kernel_root_pageTable+0xff8>
ffffffff84000436:	eedff0ef          	jal	ra,ffffffff84000322 <map_kernel_devices>
ffffffff8400043a:	70e2                	ld	ra,56(sp)
ffffffff8400043c:	7442                	ld	s0,48(sp)
ffffffff8400043e:	74a2                	ld	s1,40(sp)
ffffffff84000440:	7902                	ld	s2,32(sp)
ffffffff84000442:	69e2                	ld	s3,24(sp)
ffffffff84000444:	6a42                	ld	s4,16(sp)
ffffffff84000446:	6aa2                	ld	s5,8(sp)
ffffffff84000448:	6b02                	ld	s6,0(sp)
ffffffff8400044a:	6121                	addi	sp,sp,64
ffffffff8400044c:	8082                	ret

ffffffff8400044e <insert_region>:
ffffffff8400044e:	7179                	addi	sp,sp,-48
ffffffff84000450:	f406                	sd	ra,40(sp)
ffffffff84000452:	f022                	sd	s0,32(sp)
ffffffff84000454:	e02a                	sd	a0,0(sp)
ffffffff84000456:	e42e                	sd	a1,8(sp)
ffffffff84000458:	04a58963          	beq	a1,a0,ffffffff840004aa <insert_region+0x5c>
ffffffff8400045c:	0000c797          	auipc	a5,0xc
ffffffff84000460:	2dc78793          	addi	a5,a5,732 # ffffffff8400c738 <ndks_boot+0x338>
ffffffff84000464:	4401                	li	s0,0
ffffffff84000466:	4641                	li	a2,16
ffffffff84000468:	6394                	ld	a3,0(a5)
ffffffff8400046a:	6798                	ld	a4,8(a5)
ffffffff8400046c:	00e68b63          	beq	a3,a4,ffffffff84000482 <insert_region+0x34>
ffffffff84000470:	0405                	addi	s0,s0,1
ffffffff84000472:	07c1                	addi	a5,a5,16
ffffffff84000474:	fec41ae3          	bne	s0,a2,ffffffff84000468 <insert_region+0x1a>
ffffffff84000478:	4501                	li	a0,0
ffffffff8400047a:	70a2                	ld	ra,40(sp)
ffffffff8400047c:	7402                	ld	s0,32(sp)
ffffffff8400047e:	6145                	addi	sp,sp,48
ffffffff84000480:	8082                	ret
ffffffff84000482:	4785                	li	a5,1
ffffffff84000484:	179a                	slli	a5,a5,0x26
ffffffff84000486:	953e                	add	a0,a0,a5
ffffffff84000488:	95be                	add	a1,a1,a5
ffffffff8400048a:	dabff0ef          	jal	ra,ffffffff84000234 <reserve_region>
ffffffff8400048e:	03340413          	addi	s0,s0,51
ffffffff84000492:	0412                	slli	s0,s0,0x4
ffffffff84000494:	0000c797          	auipc	a5,0xc
ffffffff84000498:	f6c78793          	addi	a5,a5,-148 # ffffffff8400c400 <ndks_boot>
ffffffff8400049c:	943e                	add	s0,s0,a5
ffffffff8400049e:	6782                	ld	a5,0(sp)
ffffffff840004a0:	e41c                	sd	a5,8(s0)
ffffffff840004a2:	67a2                	ld	a5,8(sp)
ffffffff840004a4:	e81c                	sd	a5,16(s0)
ffffffff840004a6:	4505                	li	a0,1
ffffffff840004a8:	bfc9                	j	ffffffff8400047a <insert_region+0x2c>
ffffffff840004aa:	4505                	li	a0,1
ffffffff840004ac:	b7f9                	j	ffffffff8400047a <insert_region+0x2c>

ffffffff840004ae <write_slot>:
ffffffff840004ae:	1141                	addi	sp,sp,-16
ffffffff840004b0:	e10c                	sd	a1,0(a0)
ffffffff840004b2:	e510                	sd	a2,8(a0)
ffffffff840004b4:	00053823          	sd	zero,16(a0)
ffffffff840004b8:	478d                	li	a5,3
ffffffff840004ba:	ed1c                	sd	a5,24(a0)
ffffffff840004bc:	0141                	addi	sp,sp,16
ffffffff840004be:	8082                	ret

ffffffff840004c0 <create_root_cnode>:
ffffffff840004c0:	1141                	addi	sp,sp,-16
ffffffff840004c2:	0000c797          	auipc	a5,0xc
ffffffff840004c6:	f3e78793          	addi	a5,a5,-194 # ffffffff8400c400 <ndks_boot>
ffffffff840004ca:	00080737          	lui	a4,0x80
ffffffff840004ce:	44e7b423          	sd	a4,1096(a5)
ffffffff840004d2:	4507b703          	ld	a4,1104(a5)
ffffffff840004d6:	01971513          	slli	a0,a4,0x19
ffffffff840004da:	8169                	srli	a0,a0,0x1a
ffffffff840004dc:	0ab537b7          	lui	a5,0xab53
ffffffff840004e0:	178e                	slli	a5,a5,0x23
ffffffff840004e2:	8d5d                	or	a0,a0,a5
ffffffff840004e4:	04070793          	addi	a5,a4,64 # 80040 <KERNEL_OFFSET-0xfffffffefff7ffc0>
ffffffff840004e8:	e328                	sd	a0,64(a4)
ffffffff840004ea:	04073423          	sd	zero,72(a4)
ffffffff840004ee:	04073823          	sd	zero,80(a4)
ffffffff840004f2:	470d                	li	a4,3
ffffffff840004f4:	ef98                	sd	a4,24(a5)
ffffffff840004f6:	4581                	li	a1,0
ffffffff840004f8:	0141                	addi	sp,sp,16
ffffffff840004fa:	8082                	ret

ffffffff840004fc <init_core_state>:
ffffffff840004fc:	0001f797          	auipc	a5,0x1f
ffffffff84000500:	34a7b623          	sd	a0,844(a5) # ffffffff8401f848 <ksSchedulerAction>
ffffffff84000504:	0001f797          	auipc	a5,0x1f
ffffffff84000508:	34c7b783          	ld	a5,844(a5) # ffffffff8401f850 <ksIdleThread>
ffffffff8400050c:	0001f717          	auipc	a4,0x1f
ffffffff84000510:	34f73623          	sd	a5,844(a4) # ffffffff8401f858 <ksCurThread>
ffffffff84000514:	1707b783          	ld	a5,368(a5)
ffffffff84000518:	0001f717          	auipc	a4,0x1f
ffffffff8400051c:	30f73823          	sd	a5,784(a4) # ffffffff8401f828 <ksCurSC>
ffffffff84000520:	0001f797          	auipc	a5,0x1f
ffffffff84000524:	3207b023          	sd	zero,800(a5) # ffffffff8401f840 <ksConsumed>
ffffffff84000528:	4785                	li	a5,1
ffffffff8400052a:	0001f717          	auipc	a4,0x1f
ffffffff8400052e:	30f73723          	sd	a5,782(a4) # ffffffff8401f838 <ksReprogram>
ffffffff84000532:	0001f797          	auipc	a5,0x1f
ffffffff84000536:	3207b723          	sd	zero,814(a5) # ffffffff8401f860 <ksReleaseHead>
ffffffff8400053a:	c01027f3          	rdtime	a5
ffffffff8400053e:	0001f717          	auipc	a4,0x1f
ffffffff84000542:	2ef73923          	sd	a5,754(a4) # ffffffff8401f830 <ksCurTime>
ffffffff84000546:	8082                	ret

ffffffff84000548 <bi_finalise>:
ffffffff84000548:	0000c797          	auipc	a5,0xc
ffffffff8400054c:	eb878793          	addi	a5,a5,-328 # ffffffff8400c400 <ndks_boot>
ffffffff84000550:	4407b683          	ld	a3,1088(a5)
ffffffff84000554:	4487b703          	ld	a4,1096(a5)
ffffffff84000558:	4387b783          	ld	a5,1080(a5)
ffffffff8400055c:	f794                	sd	a3,40(a5)
ffffffff8400055e:	fb98                	sd	a4,48(a5)
ffffffff84000560:	8082                	ret

ffffffff84000562 <map_it_pt_cap>:
ffffffff84000562:	715d                	addi	sp,sp,-80
ffffffff84000564:	e486                	sd	ra,72(sp)
ffffffff84000566:	e0a2                	sd	s0,64(sp)
ffffffff84000568:	fc26                	sd	s1,56(sp)
ffffffff8400056a:	f84a                	sd	s2,48(sp)
ffffffff8400056c:	e82a                	sd	a0,16(sp)
ffffffff8400056e:	ec2e                	sd	a1,24(sp)
ffffffff84000570:	e032                	sd	a2,0(sp)
ffffffff84000572:	e436                	sd	a3,8(sp)
ffffffff84000574:	01961493          	slli	s1,a2,0x19
ffffffff84000578:	80e5                	srli	s1,s1,0x19
ffffffff8400057a:	9219                	srli	a2,a2,0x26
ffffffff8400057c:	8a05                	andi	a2,a2,1
ffffffff8400057e:	c601                	beqz	a2,ffffffff84000586 <map_it_pt_cap+0x24>
ffffffff84000580:	57fd                	li	a5,-1
ffffffff84000582:	179e                	slli	a5,a5,0x27
ffffffff84000584:	8cdd                	or	s1,s1,a5
ffffffff84000586:	6542                	ld	a0,16(sp)
ffffffff84000588:	65e2                	ld	a1,24(sp)
ffffffff8400058a:	2bf030ef          	jal	ra,ffffffff84004048 <cap_get_capPtr>
ffffffff8400058e:	892a                	mv	s2,a0
ffffffff84000590:	6502                	ld	a0,0(sp)
ffffffff84000592:	65a2                	ld	a1,8(sp)
ffffffff84000594:	2b5030ef          	jal	ra,ffffffff84004048 <cap_get_capPtr>
ffffffff84000598:	842a                	mv	s0,a0
ffffffff8400059a:	85a6                	mv	a1,s1
ffffffff8400059c:	854a                	mv	a0,s2
ffffffff8400059e:	23a020ef          	jal	ra,ffffffff840027d8 <lookupPTSlot>
ffffffff840005a2:	f02a                	sd	a0,32(sp)
ffffffff840005a4:	f42e                	sd	a1,40(sp)
ffffffff840005a6:	4785                	li	a5,1
ffffffff840005a8:	179a                	slli	a5,a5,0x26
ffffffff840005aa:	943e                	add	s0,s0,a5
ffffffff840005ac:	8009                	srli	s0,s0,0x2
ffffffff840005ae:	fff007b7          	lui	a5,0xfff00
ffffffff840005b2:	83a9                	srli	a5,a5,0xa
ffffffff840005b4:	8c7d                	and	s0,s0,a5
ffffffff840005b6:	0c146413          	ori	s0,s0,193
ffffffff840005ba:	e100                	sd	s0,0(a0)
ffffffff840005bc:	12000073          	sfence.vma
ffffffff840005c0:	60a6                	ld	ra,72(sp)
ffffffff840005c2:	6406                	ld	s0,64(sp)
ffffffff840005c4:	74e2                	ld	s1,56(sp)
ffffffff840005c6:	7942                	ld	s2,48(sp)
ffffffff840005c8:	6161                	addi	sp,sp,80
ffffffff840005ca:	8082                	ret

ffffffff840005cc <map_it_frame_cap>:
ffffffff840005cc:	711d                	addi	sp,sp,-96
ffffffff840005ce:	ec86                	sd	ra,88(sp)
ffffffff840005d0:	e8a2                	sd	s0,80(sp)
ffffffff840005d2:	e4a6                	sd	s1,72(sp)
ffffffff840005d4:	e0ca                	sd	s2,64(sp)
ffffffff840005d6:	fc4e                	sd	s3,56(sp)
ffffffff840005d8:	e82a                	sd	a0,16(sp)
ffffffff840005da:	ec2e                	sd	a1,24(sp)
ffffffff840005dc:	89b2                	mv	s3,a2
ffffffff840005de:	e032                	sd	a2,0(sp)
ffffffff840005e0:	8436                	mv	s0,a3
ffffffff840005e2:	e436                	sd	a3,8(sp)
ffffffff840005e4:	265030ef          	jal	ra,ffffffff84004048 <cap_get_capPtr>
ffffffff840005e8:	892a                	mv	s2,a0
ffffffff840005ea:	854e                	mv	a0,s3
ffffffff840005ec:	85a2                	mv	a1,s0
ffffffff840005ee:	25b030ef          	jal	ra,ffffffff84004048 <cap_get_capPtr>
ffffffff840005f2:	842a                	mv	s0,a0
ffffffff840005f4:	01999593          	slli	a1,s3,0x19
ffffffff840005f8:	81e5                	srli	a1,a1,0x19
ffffffff840005fa:	0269d493          	srli	s1,s3,0x26
ffffffff840005fe:	8885                	andi	s1,s1,1
ffffffff84000600:	c481                	beqz	s1,ffffffff84000608 <map_it_frame_cap+0x3c>
ffffffff84000602:	57fd                	li	a5,-1
ffffffff84000604:	179e                	slli	a5,a5,0x27
ffffffff84000606:	8ddd                	or	a1,a1,a5
ffffffff84000608:	854a                	mv	a0,s2
ffffffff8400060a:	1ce020ef          	jal	ra,ffffffff840027d8 <lookupPTSlot>
ffffffff8400060e:	f02a                	sd	a0,32(sp)
ffffffff84000610:	f42e                	sd	a1,40(sp)
ffffffff84000612:	4785                	li	a5,1
ffffffff84000614:	179a                	slli	a5,a5,0x26
ffffffff84000616:	943e                	add	s0,s0,a5
ffffffff84000618:	8009                	srli	s0,s0,0x2
ffffffff8400061a:	fff007b7          	lui	a5,0xfff00
ffffffff8400061e:	83a9                	srli	a5,a5,0xa
ffffffff84000620:	8c7d                	and	s0,s0,a5
ffffffff84000622:	0df46413          	ori	s0,s0,223
ffffffff84000626:	e100                	sd	s0,0(a0)
ffffffff84000628:	12000073          	sfence.vma
ffffffff8400062c:	60e6                	ld	ra,88(sp)
ffffffff8400062e:	6446                	ld	s0,80(sp)
ffffffff84000630:	64a6                	ld	s1,72(sp)
ffffffff84000632:	6906                	ld	s2,64(sp)
ffffffff84000634:	79e2                	ld	s3,56(sp)
ffffffff84000636:	6125                	addi	sp,sp,96
ffffffff84000638:	8082                	ret

ffffffff8400063a <create_mapped_it_frame_cap>:
ffffffff8400063a:	715d                	addi	sp,sp,-80
ffffffff8400063c:	e486                	sd	ra,72(sp)
ffffffff8400063e:	e0a2                	sd	s0,64(sp)
ffffffff84000640:	fc26                	sd	s1,56(sp)
ffffffff84000642:	00f03433          	snez	s0,a5
ffffffff84000646:	1466                	slli	s0,s0,0x39
ffffffff84000648:	06e6                	slli	a3,a3,0x19
ffffffff8400064a:	82e5                	srli	a3,a3,0x19
ffffffff8400064c:	8c55                	or	s0,s0,a3
ffffffff8400064e:	47cd                	li	a5,19
ffffffff84000650:	17de                	slli	a5,a5,0x37
ffffffff84000652:	8c5d                	or	s0,s0,a5
ffffffff84000654:	0626                	slli	a2,a2,0x9
ffffffff84000656:	fe0004b7          	lui	s1,0xfe000
ffffffff8400065a:	80c1                	srli	s1,s1,0x10
ffffffff8400065c:	8cf1                	and	s1,s1,a2
ffffffff8400065e:	1742                	slli	a4,a4,0x30
ffffffff84000660:	8cd9                	or	s1,s1,a4
ffffffff84000662:	8622                	mv	a2,s0
ffffffff84000664:	86a6                	mv	a3,s1
ffffffff84000666:	f67ff0ef          	jal	ra,ffffffff840005cc <map_it_frame_cap>
ffffffff8400066a:	8522                	mv	a0,s0
ffffffff8400066c:	85a6                	mv	a1,s1
ffffffff8400066e:	60a6                	ld	ra,72(sp)
ffffffff84000670:	6406                	ld	s0,64(sp)
ffffffff84000672:	74e2                	ld	s1,56(sp)
ffffffff84000674:	6161                	addi	sp,sp,80
ffffffff84000676:	8082                	ret

ffffffff84000678 <write_it_asid_pool>:
ffffffff84000678:	7139                	addi	sp,sp,-64
ffffffff8400067a:	fc06                	sd	ra,56(sp)
ffffffff8400067c:	f822                	sd	s0,48(sp)
ffffffff8400067e:	f426                	sd	s1,40(sp)
ffffffff84000680:	f04a                	sd	s2,32(sp)
ffffffff84000682:	8932                	mv	s2,a2
ffffffff84000684:	84b6                	mv	s1,a3
ffffffff84000686:	1c3030ef          	jal	ra,ffffffff84004048 <cap_get_capPtr>
ffffffff8400068a:	842a                	mv	s0,a0
ffffffff8400068c:	854a                	mv	a0,s2
ffffffff8400068e:	85a6                	mv	a1,s1
ffffffff84000690:	1b9030ef          	jal	ra,ffffffff84004048 <cap_get_capPtr>
ffffffff84000694:	e408                	sd	a0,8(s0)
ffffffff84000696:	0000d797          	auipc	a5,0xd
ffffffff8400069a:	9687b523          	sd	s0,-1686(a5) # ffffffff8400d000 <riscvKSASIDTable>
ffffffff8400069e:	70e2                	ld	ra,56(sp)
ffffffff840006a0:	7442                	ld	s0,48(sp)
ffffffff840006a2:	74a2                	ld	s1,40(sp)
ffffffff840006a4:	7902                	ld	s2,32(sp)
ffffffff840006a6:	6121                	addi	sp,sp,64
ffffffff840006a8:	8082                	ret

ffffffff840006aa <create_domain_cap>:
ffffffff840006aa:	1101                	addi	sp,sp,-32
ffffffff840006ac:	ec06                	sd	ra,24(sp)
ffffffff840006ae:	19b030ef          	jal	ra,ffffffff84004048 <cap_get_capPtr>
ffffffff840006b2:	57f5                	li	a5,-3
ffffffff840006b4:	17f6                	slli	a5,a5,0x3d
ffffffff840006b6:	16f53023          	sd	a5,352(a0)
ffffffff840006ba:	16053423          	sd	zero,360(a0)
ffffffff840006be:	16053823          	sd	zero,368(a0)
ffffffff840006c2:	478d                	li	a5,3
ffffffff840006c4:	16f53c23          	sd	a5,376(a0)
ffffffff840006c8:	60e2                	ld	ra,24(sp)
ffffffff840006ca:	6105                	addi	sp,sp,32
ffffffff840006cc:	8082                	ret

ffffffff840006ce <create_bi_frame_cap>:
ffffffff840006ce:	715d                	addi	sp,sp,-80
ffffffff840006d0:	e486                	sd	ra,72(sp)
ffffffff840006d2:	e0a2                	sd	s0,64(sp)
ffffffff840006d4:	fc26                	sd	s1,56(sp)
ffffffff840006d6:	e82a                	sd	a0,16(sp)
ffffffff840006d8:	ec2e                	sd	a1,24(sp)
ffffffff840006da:	8532                	mv	a0,a2
ffffffff840006dc:	85b6                	mv	a1,a3
ffffffff840006de:	86ba                	mv	a3,a4
ffffffff840006e0:	4801                	li	a6,0
ffffffff840006e2:	4781                	li	a5,0
ffffffff840006e4:	4705                	li	a4,1
ffffffff840006e6:	0000c617          	auipc	a2,0xc
ffffffff840006ea:	18a63603          	ld	a2,394(a2) # ffffffff8400c870 <rootserver+0x20>
ffffffff840006ee:	f4dff0ef          	jal	ra,ffffffff8400063a <create_mapped_it_frame_cap>
ffffffff840006f2:	84aa                	mv	s1,a0
ffffffff840006f4:	842e                	mv	s0,a1
ffffffff840006f6:	6542                	ld	a0,16(sp)
ffffffff840006f8:	65e2                	ld	a1,24(sp)
ffffffff840006fa:	14f030ef          	jal	ra,ffffffff84004048 <cap_get_capPtr>
ffffffff840006fe:	12953023          	sd	s1,288(a0)
ffffffff84000702:	12853423          	sd	s0,296(a0)
ffffffff84000706:	12053823          	sd	zero,304(a0)
ffffffff8400070a:	478d                	li	a5,3
ffffffff8400070c:	12f53c23          	sd	a5,312(a0)
ffffffff84000710:	60a6                	ld	ra,72(sp)
ffffffff84000712:	6406                	ld	s0,64(sp)
ffffffff84000714:	74e2                	ld	s1,56(sp)
ffffffff84000716:	6161                	addi	sp,sp,80
ffffffff84000718:	8082                	ret

ffffffff8400071a <provide_cap>:
ffffffff8400071a:	7179                	addi	sp,sp,-48
ffffffff8400071c:	f406                	sd	ra,40(sp)
ffffffff8400071e:	f022                	sd	s0,32(sp)
ffffffff84000720:	e82a                	sd	a0,16(sp)
ffffffff84000722:	ec2e                	sd	a1,24(sp)
ffffffff84000724:	e032                	sd	a2,0(sp)
ffffffff84000726:	e436                	sd	a3,8(sp)
ffffffff84000728:	0000c797          	auipc	a5,0xc
ffffffff8400072c:	cd878793          	addi	a5,a5,-808 # ffffffff8400c400 <ndks_boot>
ffffffff84000730:	4407b403          	ld	s0,1088(a5)
ffffffff84000734:	4487b783          	ld	a5,1096(a5)
ffffffff84000738:	00f46763          	bltu	s0,a5,ffffffff84000746 <provide_cap+0x2c>
ffffffff8400073c:	4501                	li	a0,0
ffffffff8400073e:	70a2                	ld	ra,40(sp)
ffffffff84000740:	7402                	ld	s0,32(sp)
ffffffff84000742:	6145                	addi	sp,sp,48
ffffffff84000744:	8082                	ret
ffffffff84000746:	103030ef          	jal	ra,ffffffff84004048 <cap_get_capPtr>
ffffffff8400074a:	0416                	slli	s0,s0,0x5
ffffffff8400074c:	942a                	add	s0,s0,a0
ffffffff8400074e:	6782                	ld	a5,0(sp)
ffffffff84000750:	e01c                	sd	a5,0(s0)
ffffffff84000752:	67a2                	ld	a5,8(sp)
ffffffff84000754:	e41c                	sd	a5,8(s0)
ffffffff84000756:	00043823          	sd	zero,16(s0)
ffffffff8400075a:	478d                	li	a5,3
ffffffff8400075c:	ec1c                	sd	a5,24(s0)
ffffffff8400075e:	0000c717          	auipc	a4,0xc
ffffffff84000762:	ca270713          	addi	a4,a4,-862 # ffffffff8400c400 <ndks_boot>
ffffffff84000766:	44073783          	ld	a5,1088(a4)
ffffffff8400076a:	0785                	addi	a5,a5,1
ffffffff8400076c:	44f73023          	sd	a5,1088(a4)
ffffffff84000770:	4505                	li	a0,1
ffffffff84000772:	b7f1                	j	ffffffff8400073e <provide_cap+0x24>

ffffffff84000774 <create_frames_of_region>:
ffffffff84000774:	7135                	addi	sp,sp,-160
ffffffff84000776:	ed06                	sd	ra,152(sp)
ffffffff84000778:	e922                	sd	s0,144(sp)
ffffffff8400077a:	e526                	sd	s1,136(sp)
ffffffff8400077c:	e14a                	sd	s2,128(sp)
ffffffff8400077e:	fcce                	sd	s3,120(sp)
ffffffff84000780:	f8d2                	sd	s4,112(sp)
ffffffff84000782:	f4d6                	sd	s5,104(sp)
ffffffff84000784:	f0da                	sd	s6,96(sp)
ffffffff84000786:	ecde                	sd	s7,88(sp)
ffffffff84000788:	e8e2                	sd	s8,80(sp)
ffffffff8400078a:	e4e6                	sd	s9,72(sp)
ffffffff8400078c:	8baa                	mv	s7,a0
ffffffff8400078e:	f02e                	sd	a1,32(sp)
ffffffff84000790:	f432                	sd	a2,40(sp)
ffffffff84000792:	e836                	sd	a3,16(sp)
ffffffff84000794:	ec3a                	sd	a4,24(sp)
ffffffff84000796:	0000cc97          	auipc	s9,0xc
ffffffff8400079a:	0aacbc83          	ld	s9,170(s9) # ffffffff8400c840 <ndks_boot+0x440>
ffffffff8400079e:	0707f963          	bgeu	a5,a6,ffffffff84000810 <create_frames_of_region+0x9c>
ffffffff840007a2:	8946                	mv	s2,a7
ffffffff840007a4:	84c2                	mv	s1,a6
ffffffff840007a6:	843e                	mv	s0,a5
ffffffff840007a8:	4985                	li	s3,1
ffffffff840007aa:	03b99c13          	slli	s8,s3,0x3b
ffffffff840007ae:	fe000b37          	lui	s6,0xfe000
ffffffff840007b2:	010b5b13          	srli	s6,s6,0x10
ffffffff840007b6:	02699a93          	slli	s5,s3,0x26
ffffffff840007ba:	778a                	ld	a5,160(sp)
ffffffff840007bc:	40fa8ab3          	sub	s5,s5,a5
ffffffff840007c0:	6a05                	lui	s4,0x1
ffffffff840007c2:	a00d                	j	ffffffff840007e4 <create_frames_of_region+0x70>
ffffffff840007c4:	f862                	sd	s8,48(sp)
ffffffff840007c6:	00941793          	slli	a5,s0,0x9
ffffffff840007ca:	0167f7b3          	and	a5,a5,s6
ffffffff840007ce:	fc3e                	sd	a5,56(sp)
ffffffff840007d0:	7642                	ld	a2,48(sp)
ffffffff840007d2:	76e2                	ld	a3,56(sp)
ffffffff840007d4:	7502                	ld	a0,32(sp)
ffffffff840007d6:	75a2                	ld	a1,40(sp)
ffffffff840007d8:	f43ff0ef          	jal	ra,ffffffff8400071a <provide_cap>
ffffffff840007dc:	c11d                	beqz	a0,ffffffff84000802 <create_frames_of_region+0x8e>
ffffffff840007de:	9452                	add	s0,s0,s4
ffffffff840007e0:	02947863          	bgeu	s0,s1,ffffffff84000810 <create_frames_of_region+0x9c>
ffffffff840007e4:	fe0900e3          	beqz	s2,ffffffff840007c4 <create_frames_of_region+0x50>
ffffffff840007e8:	884e                	mv	a6,s3
ffffffff840007ea:	4781                	li	a5,0
ffffffff840007ec:	874e                	mv	a4,s3
ffffffff840007ee:	008a86b3          	add	a3,s5,s0
ffffffff840007f2:	8622                	mv	a2,s0
ffffffff840007f4:	6542                	ld	a0,16(sp)
ffffffff840007f6:	65e2                	ld	a1,24(sp)
ffffffff840007f8:	e43ff0ef          	jal	ra,ffffffff8400063a <create_mapped_it_frame_cap>
ffffffff840007fc:	f82a                	sd	a0,48(sp)
ffffffff840007fe:	fc2e                	sd	a1,56(sp)
ffffffff84000800:	bfc1                	j	ffffffff840007d0 <create_frames_of_region+0x5c>
ffffffff84000802:	000bb023          	sd	zero,0(s7)
ffffffff84000806:	000bb423          	sd	zero,8(s7)
ffffffff8400080a:	000bb823          	sd	zero,16(s7)
ffffffff8400080e:	a821                	j	ffffffff84000826 <create_frames_of_region+0xb2>
ffffffff84000810:	019bb023          	sd	s9,0(s7)
ffffffff84000814:	0000c797          	auipc	a5,0xc
ffffffff84000818:	02c7b783          	ld	a5,44(a5) # ffffffff8400c840 <ndks_boot+0x440>
ffffffff8400081c:	00fbb423          	sd	a5,8(s7)
ffffffff84000820:	4785                	li	a5,1
ffffffff84000822:	00fbb823          	sd	a5,16(s7)
ffffffff84000826:	855e                	mv	a0,s7
ffffffff84000828:	60ea                	ld	ra,152(sp)
ffffffff8400082a:	644a                	ld	s0,144(sp)
ffffffff8400082c:	64aa                	ld	s1,136(sp)
ffffffff8400082e:	690a                	ld	s2,128(sp)
ffffffff84000830:	79e6                	ld	s3,120(sp)
ffffffff84000832:	7a46                	ld	s4,112(sp)
ffffffff84000834:	7aa6                	ld	s5,104(sp)
ffffffff84000836:	7b06                	ld	s6,96(sp)
ffffffff84000838:	6be6                	ld	s7,88(sp)
ffffffff8400083a:	6c46                	ld	s8,80(sp)
ffffffff8400083c:	6ca6                	ld	s9,72(sp)
ffffffff8400083e:	610d                	addi	sp,sp,160
ffffffff84000840:	8082                	ret

ffffffff84000842 <init_sched_control>:
ffffffff84000842:	715d                	addi	sp,sp,-80
ffffffff84000844:	e486                	sd	ra,72(sp)
ffffffff84000846:	e0a2                	sd	s0,64(sp)
ffffffff84000848:	fc26                	sd	s1,56(sp)
ffffffff8400084a:	f84a                	sd	s2,48(sp)
ffffffff8400084c:	f44e                	sd	s3,40(sp)
ffffffff8400084e:	e02a                	sd	a0,0(sp)
ffffffff84000850:	e42e                	sd	a1,8(sp)
ffffffff84000852:	0000c997          	auipc	s3,0xc
ffffffff84000856:	fee9b983          	ld	s3,-18(s3) # ffffffff8400c840 <ndks_boot+0x440>
ffffffff8400085a:	c215                	beqz	a2,ffffffff8400087e <init_sched_control+0x3c>
ffffffff8400085c:	fff60493          	addi	s1,a2,-1
ffffffff84000860:	4401                	li	s0,0
ffffffff84000862:	597d                	li	s2,-1
ffffffff84000864:	197a                	slli	s2,s2,0x3e
ffffffff84000866:	864a                	mv	a2,s2
ffffffff84000868:	86a2                	mv	a3,s0
ffffffff8400086a:	6502                	ld	a0,0(sp)
ffffffff8400086c:	65a2                	ld	a1,8(sp)
ffffffff8400086e:	eadff0ef          	jal	ra,ffffffff8400071a <provide_cap>
ffffffff84000872:	00848563          	beq	s1,s0,ffffffff8400087c <init_sched_control+0x3a>
ffffffff84000876:	0405                	addi	s0,s0,1
ffffffff84000878:	f57d                	bnez	a0,ffffffff84000866 <init_sched_control+0x24>
ffffffff8400087a:	a831                	j	ffffffff84000896 <init_sched_control+0x54>
ffffffff8400087c:	cd09                	beqz	a0,ffffffff84000896 <init_sched_control+0x54>
ffffffff8400087e:	0000c717          	auipc	a4,0xc
ffffffff84000882:	b8270713          	addi	a4,a4,-1150 # ffffffff8400c400 <ndks_boot>
ffffffff84000886:	43873783          	ld	a5,1080(a4)
ffffffff8400088a:	44073703          	ld	a4,1088(a4)
ffffffff8400088e:	0937bc23          	sd	s3,152(a5)
ffffffff84000892:	f3d8                	sd	a4,160(a5)
ffffffff84000894:	4505                	li	a0,1
ffffffff84000896:	60a6                	ld	ra,72(sp)
ffffffff84000898:	6406                	ld	s0,64(sp)
ffffffff8400089a:	74e2                	ld	s1,56(sp)
ffffffff8400089c:	7942                	ld	s2,48(sp)
ffffffff8400089e:	79a2                	ld	s3,40(sp)
ffffffff840008a0:	6161                	addi	sp,sp,80
ffffffff840008a2:	8082                	ret

ffffffff840008a4 <create_it_address_space>:
ffffffff840008a4:	7151                	addi	sp,sp,-240
ffffffff840008a6:	f586                	sd	ra,232(sp)
ffffffff840008a8:	f1a2                	sd	s0,224(sp)
ffffffff840008aa:	eda6                	sd	s1,216(sp)
ffffffff840008ac:	e9ca                	sd	s2,208(sp)
ffffffff840008ae:	e5ce                	sd	s3,200(sp)
ffffffff840008b0:	e1d2                	sd	s4,192(sp)
ffffffff840008b2:	fd56                	sd	s5,184(sp)
ffffffff840008b4:	f95a                	sd	s6,176(sp)
ffffffff840008b6:	f55e                	sd	s7,168(sp)
ffffffff840008b8:	f162                	sd	s8,160(sp)
ffffffff840008ba:	ed66                	sd	s9,152(sp)
ffffffff840008bc:	e96a                	sd	s10,144(sp)
ffffffff840008be:	e56e                	sd	s11,136(sp)
ffffffff840008c0:	f82a                	sd	a0,48(sp)
ffffffff840008c2:	fc2e                	sd	a1,56(sp)
ffffffff840008c4:	f032                	sd	a2,32(sp)
ffffffff840008c6:	8b36                	mv	s6,a3
ffffffff840008c8:	0000c417          	auipc	s0,0xc
ffffffff840008cc:	b3840413          	addi	s0,s0,-1224 # ffffffff8400c400 <ndks_boot>
ffffffff840008d0:	45843503          	ld	a0,1112(s0)
ffffffff840008d4:	46f010ef          	jal	ra,ffffffff84002542 <copyGlobalMappings>
ffffffff840008d8:	45843783          	ld	a5,1112(s0)
ffffffff840008dc:	01979a13          	slli	s4,a5,0x19
ffffffff840008e0:	019a5a13          	srli	s4,s4,0x19
ffffffff840008e4:	00300737          	lui	a4,0x300
ffffffff840008e8:	0705                	addi	a4,a4,1
ffffffff840008ea:	171e                	slli	a4,a4,0x27
ffffffff840008ec:	00ea6a33          	or	s4,s4,a4
ffffffff840008f0:	07a6                	slli	a5,a5,0x9
ffffffff840008f2:	fe000737          	lui	a4,0xfe000
ffffffff840008f6:	8341                	srli	a4,a4,0x10
ffffffff840008f8:	8ff9                	and	a5,a5,a4
ffffffff840008fa:	4705                	li	a4,1
ffffffff840008fc:	1742                	slli	a4,a4,0x30
ffffffff840008fe:	00e7e4b3          	or	s1,a5,a4
ffffffff84000902:	e426                	sd	s1,8(sp)
ffffffff84000904:	44043783          	ld	a5,1088(s0)
ffffffff84000908:	ec3e                	sd	a5,24(sp)
ffffffff8400090a:	7542                	ld	a0,48(sp)
ffffffff8400090c:	75e2                	ld	a1,56(sp)
ffffffff8400090e:	73a030ef          	jal	ra,ffffffff84004048 <cap_get_capPtr>
ffffffff84000912:	07453023          	sd	s4,96(a0)
ffffffff84000916:	f524                	sd	s1,104(a0)
ffffffff84000918:	06053823          	sd	zero,112(a0)
ffffffff8400091c:	478d                	li	a5,3
ffffffff8400091e:	fd3c                	sd	a5,120(a0)
ffffffff84000920:	47f9                	li	a5,30
ffffffff84000922:	e83e                	sd	a5,16(sp)
ffffffff84000924:	89a2                	mv	s3,s0
ffffffff84000926:	5c7d                	li	s8,-1
ffffffff84000928:	019c5c13          	srli	s8,s8,0x19
ffffffff8400092c:	00300ab7          	lui	s5,0x300
ffffffff84000930:	0a85                	addi	s5,s5,1
ffffffff84000932:	1a9e                	slli	s5,s5,0x27
ffffffff84000934:	fe000bb7          	lui	s7,0xfe000
ffffffff84000938:	010bdb93          	srli	s7,s7,0x10
ffffffff8400093c:	6742                	ld	a4,16(sp)
ffffffff8400093e:	0007079b          	sext.w	a5,a4
ffffffff84000942:	7902                	ld	s2,32(sp)
ffffffff84000944:	00e95933          	srl	s2,s2,a4
ffffffff84000948:	00e91933          	sll	s2,s2,a4
ffffffff8400094c:	05697763          	bgeu	s2,s6,ffffffff8400099a <create_it_address_space+0xf6>
ffffffff84000950:	4d05                	li	s10,1
ffffffff84000952:	00fd1d33          	sll	s10,s10,a5
ffffffff84000956:	6d85                	lui	s11,0x1
ffffffff84000958:	4c85                	li	s9,1
ffffffff8400095a:	1cc2                	slli	s9,s9,0x30
ffffffff8400095c:	4909b403          	ld	s0,1168(s3)
ffffffff84000960:	01b407b3          	add	a5,s0,s11
ffffffff84000964:	48f9b823          	sd	a5,1168(s3)
ffffffff84000968:	018974b3          	and	s1,s2,s8
ffffffff8400096c:	0154e4b3          	or	s1,s1,s5
ffffffff84000970:	0426                	slli	s0,s0,0x9
ffffffff84000972:	01747433          	and	s0,s0,s7
ffffffff84000976:	01946433          	or	s0,s0,s9
ffffffff8400097a:	8626                	mv	a2,s1
ffffffff8400097c:	86a2                	mv	a3,s0
ffffffff8400097e:	8552                	mv	a0,s4
ffffffff84000980:	65a2                	ld	a1,8(sp)
ffffffff84000982:	be1ff0ef          	jal	ra,ffffffff84000562 <map_it_pt_cap>
ffffffff84000986:	8626                	mv	a2,s1
ffffffff84000988:	86a2                	mv	a3,s0
ffffffff8400098a:	7542                	ld	a0,48(sp)
ffffffff8400098c:	75e2                	ld	a1,56(sp)
ffffffff8400098e:	d8dff0ef          	jal	ra,ffffffff8400071a <provide_cap>
ffffffff84000992:	c931                	beqz	a0,ffffffff840009e6 <create_it_address_space+0x142>
ffffffff84000994:	996a                	add	s2,s2,s10
ffffffff84000996:	fd6963e3          	bltu	s2,s6,ffffffff8400095c <create_it_address_space+0xb8>
ffffffff8400099a:	67c2                	ld	a5,16(sp)
ffffffff8400099c:	37dd                	addiw	a5,a5,-9
ffffffff8400099e:	873e                	mv	a4,a5
ffffffff840009a0:	e83e                	sd	a5,16(sp)
ffffffff840009a2:	47b1                	li	a5,12
ffffffff840009a4:	f8f71ce3          	bne	a4,a5,ffffffff8400093c <create_it_address_space+0x98>
ffffffff840009a8:	0000c797          	auipc	a5,0xc
ffffffff840009ac:	a5878793          	addi	a5,a5,-1448 # ffffffff8400c400 <ndks_boot>
ffffffff840009b0:	4407b703          	ld	a4,1088(a5)
ffffffff840009b4:	4387b783          	ld	a5,1080(a5)
ffffffff840009b8:	66e2                	ld	a3,24(sp)
ffffffff840009ba:	efb4                	sd	a3,88(a5)
ffffffff840009bc:	f3b8                	sd	a4,96(a5)
ffffffff840009be:	f8d2                	sd	s4,112(sp)
ffffffff840009c0:	67a2                	ld	a5,8(sp)
ffffffff840009c2:	fcbe                	sd	a5,120(sp)
ffffffff840009c4:	7546                	ld	a0,112(sp)
ffffffff840009c6:	75e6                	ld	a1,120(sp)
ffffffff840009c8:	70ae                	ld	ra,232(sp)
ffffffff840009ca:	740e                	ld	s0,224(sp)
ffffffff840009cc:	64ee                	ld	s1,216(sp)
ffffffff840009ce:	694e                	ld	s2,208(sp)
ffffffff840009d0:	69ae                	ld	s3,200(sp)
ffffffff840009d2:	6a0e                	ld	s4,192(sp)
ffffffff840009d4:	7aea                	ld	s5,184(sp)
ffffffff840009d6:	7b4a                	ld	s6,176(sp)
ffffffff840009d8:	7baa                	ld	s7,168(sp)
ffffffff840009da:	7c0a                	ld	s8,160(sp)
ffffffff840009dc:	6cea                	ld	s9,152(sp)
ffffffff840009de:	6d4a                	ld	s10,144(sp)
ffffffff840009e0:	6daa                	ld	s11,136(sp)
ffffffff840009e2:	616d                	addi	sp,sp,240
ffffffff840009e4:	8082                	ret
ffffffff840009e6:	f882                	sd	zero,112(sp)
ffffffff840009e8:	fc82                	sd	zero,120(sp)
ffffffff840009ea:	bfe9                	j	ffffffff840009c4 <create_it_address_space+0x120>

ffffffff840009ec <create_it_asid_pool>:
ffffffff840009ec:	715d                	addi	sp,sp,-80
ffffffff840009ee:	e486                	sd	ra,72(sp)
ffffffff840009f0:	e0a2                	sd	s0,64(sp)
ffffffff840009f2:	fc26                	sd	s1,56(sp)
ffffffff840009f4:	f84a                	sd	s2,48(sp)
ffffffff840009f6:	f44e                	sd	s3,40(sp)
ffffffff840009f8:	892a                	mv	s2,a0
ffffffff840009fa:	84ae                	mv	s1,a1
ffffffff840009fc:	0000c417          	auipc	s0,0xc
ffffffff84000a00:	e6443403          	ld	s0,-412(s0) # ffffffff8400c860 <rootserver+0x10>
ffffffff84000a04:	0466                	slli	s0,s0,0x19
ffffffff84000a06:	806d                	srli	s0,s0,0x1b
ffffffff84000a08:	47b5                	li	a5,13
ffffffff84000a0a:	17ee                	slli	a5,a5,0x3b
ffffffff84000a0c:	8c5d                	or	s0,s0,a5
ffffffff84000a0e:	63a030ef          	jal	ra,ffffffff84004048 <cap_get_capPtr>
ffffffff84000a12:	e160                	sd	s0,192(a0)
ffffffff84000a14:	0c053423          	sd	zero,200(a0)
ffffffff84000a18:	0c053823          	sd	zero,208(a0)
ffffffff84000a1c:	498d                	li	s3,3
ffffffff84000a1e:	0d353c23          	sd	s3,216(a0)
ffffffff84000a22:	854a                	mv	a0,s2
ffffffff84000a24:	85a6                	mv	a1,s1
ffffffff84000a26:	622030ef          	jal	ra,ffffffff84004048 <cap_get_capPtr>
ffffffff84000a2a:	47ad                	li	a5,11
ffffffff84000a2c:	17ee                	slli	a5,a5,0x3b
ffffffff84000a2e:	f15c                	sd	a5,160(a0)
ffffffff84000a30:	0a053423          	sd	zero,168(a0)
ffffffff84000a34:	0a053823          	sd	zero,176(a0)
ffffffff84000a38:	0b353c23          	sd	s3,184(a0)
ffffffff84000a3c:	8522                	mv	a0,s0
ffffffff84000a3e:	4581                	li	a1,0
ffffffff84000a40:	60a6                	ld	ra,72(sp)
ffffffff84000a42:	6406                	ld	s0,64(sp)
ffffffff84000a44:	74e2                	ld	s1,56(sp)
ffffffff84000a46:	7942                	ld	s2,48(sp)
ffffffff84000a48:	79a2                	ld	s3,40(sp)
ffffffff84000a4a:	6161                	addi	sp,sp,80
ffffffff84000a4c:	8082                	ret

ffffffff84000a4e <create_initial_thread>:
ffffffff84000a4e:	7175                	addi	sp,sp,-144
ffffffff84000a50:	fc86                	sd	ra,120(sp)
ffffffff84000a52:	f8a2                	sd	s0,112(sp)
ffffffff84000a54:	f4a6                	sd	s1,104(sp)
ffffffff84000a56:	f0ca                	sd	s2,96(sp)
ffffffff84000a58:	ecce                	sd	s3,88(sp)
ffffffff84000a5a:	e8d2                	sd	s4,80(sp)
ffffffff84000a5c:	e4d6                	sd	s5,72(sp)
ffffffff84000a5e:	e82a                	sd	a0,16(sp)
ffffffff84000a60:	ec2e                	sd	a1,24(sp)
ffffffff84000a62:	e032                	sd	a2,0(sp)
ffffffff84000a64:	e436                	sd	a3,8(sp)
ffffffff84000a66:	89ba                	mv	s3,a4
ffffffff84000a68:	8a3e                	mv	s4,a5
ffffffff84000a6a:	8ac2                	mv	s5,a6
ffffffff84000a6c:	8946                	mv	s2,a7
ffffffff84000a6e:	e546                	sd	a7,136(sp)
ffffffff84000a70:	0000c417          	auipc	s0,0xc
ffffffff84000a74:	e1043403          	ld	s0,-496(s0) # ffffffff8400c880 <rootserver+0x30>
ffffffff84000a78:	20040413          	addi	s0,s0,512
ffffffff84000a7c:	02000793          	li	a5,32
ffffffff84000a80:	10f43023          	sd	a5,256(s0)
ffffffff84000a84:	5c4030ef          	jal	ra,ffffffff84004048 <cap_get_capPtr>
ffffffff84000a88:	864a                	mv	a2,s2
ffffffff84000a8a:	66ca                	ld	a3,144(sp)
ffffffff84000a8c:	14050593          	addi	a1,a0,320
ffffffff84000a90:	1028                	addi	a0,sp,40
ffffffff84000a92:	245030ef          	jal	ra,ffffffff840044d6 <deriveCap>
ffffffff84000a96:	77a2                	ld	a5,40(sp)
ffffffff84000a98:	4481                	li	s1,0
ffffffff84000a9a:	12079963          	bnez	a5,ffffffff84000bcc <create_initial_thread+0x17e>
ffffffff84000a9e:	84a2                	mv	s1,s0
ffffffff84000aa0:	6542                	ld	a0,16(sp)
ffffffff84000aa2:	65e2                	ld	a1,24(sp)
ffffffff84000aa4:	5a4030ef          	jal	ra,ffffffff84004048 <cap_get_capPtr>
ffffffff84000aa8:	0000c917          	auipc	s2,0xc
ffffffff84000aac:	95890913          	addi	s2,s2,-1704 # ffffffff8400c400 <ndks_boot>
ffffffff84000ab0:	48093683          	ld	a3,1152(s2)
ffffffff84000ab4:	04050613          	addi	a2,a0,64
ffffffff84000ab8:	6542                	ld	a0,16(sp)
ffffffff84000aba:	65e2                	ld	a1,24(sp)
ffffffff84000abc:	3c9030ef          	jal	ra,ffffffff84004684 <cteInsert>
ffffffff84000ac0:	6542                	ld	a0,16(sp)
ffffffff84000ac2:	65e2                	ld	a1,24(sp)
ffffffff84000ac4:	584030ef          	jal	ra,ffffffff84004048 <cap_get_capPtr>
ffffffff84000ac8:	48093683          	ld	a3,1152(s2)
ffffffff84000acc:	02068693          	addi	a3,a3,32 # ffffffffc0000020 <ki_end+0x3bfdb020>
ffffffff84000ad0:	06050613          	addi	a2,a0,96
ffffffff84000ad4:	6502                	ld	a0,0(sp)
ffffffff84000ad6:	65a2                	ld	a1,8(sp)
ffffffff84000ad8:	3ad030ef          	jal	ra,ffffffff84004684 <cteInsert>
ffffffff84000adc:	6542                	ld	a0,16(sp)
ffffffff84000ade:	65e2                	ld	a1,24(sp)
ffffffff84000ae0:	568030ef          	jal	ra,ffffffff84004048 <cap_get_capPtr>
ffffffff84000ae4:	48093683          	ld	a3,1152(s2)
ffffffff84000ae8:	04068693          	addi	a3,a3,64
ffffffff84000aec:	14050613          	addi	a2,a0,320
ffffffff84000af0:	7542                	ld	a0,48(sp)
ffffffff84000af2:	75e2                	ld	a1,56(sp)
ffffffff84000af4:	391030ef          	jal	ra,ffffffff84004684 <cteInsert>
ffffffff84000af8:	19543023          	sd	s5,384(s0)
ffffffff84000afc:	05443423          	sd	s4,72(s0)
ffffffff84000b00:	11343823          	sd	s3,272(s0)
ffffffff84000b04:	48893503          	ld	a0,1160(s2)
ffffffff84000b08:	16a43823          	sd	a0,368(s0)
ffffffff84000b0c:	4681                	li	a3,0
ffffffff84000b0e:	6605                	lui	a2,0x1
ffffffff84000b10:	38860613          	addi	a2,a2,904 # 1388 <KERNEL_OFFSET-0xfffffffeffffec78>
ffffffff84000b14:	4589                	li	a1,2
ffffffff84000b16:	117020ef          	jal	ra,ffffffff8400342c <refill_new>
ffffffff84000b1a:	17043783          	ld	a5,368(s0)
ffffffff84000b1e:	ef80                	sd	s0,24(a5)
ffffffff84000b20:	0ff00793          	li	a5,255
ffffffff84000b24:	16f43423          	sd	a5,360(s0)
ffffffff84000b28:	16f43023          	sd	a5,352(s0)
ffffffff84000b2c:	0000b917          	auipc	s2,0xb
ffffffff84000b30:	24c90913          	addi	s2,s2,588 # ffffffff8400bd78 <fault_messages>
ffffffff84000b34:	0001f997          	auipc	s3,0x1f
ffffffff84000b38:	cd498993          	addi	s3,s3,-812 # ffffffff8401f808 <ksDomScheduleIdx>
ffffffff84000b3c:	0009b783          	ld	a5,0(s3)
ffffffff84000b40:	0792                	slli	a5,a5,0x4
ffffffff84000b42:	97ca                	add	a5,a5,s2
ffffffff84000b44:	73bc                	ld	a5,96(a5)
ffffffff84000b46:	14f43c23          	sd	a5,344(s0)
ffffffff84000b4a:	4585                	li	a1,1
ffffffff84000b4c:	8522                	mv	a0,s0
ffffffff84000b4e:	751030ef          	jal	ra,ffffffff84004a9e <setThreadState>
ffffffff84000b52:	0009b783          	ld	a5,0(s3)
ffffffff84000b56:	0792                	slli	a5,a5,0x4
ffffffff84000b58:	993e                	add	s2,s2,a5
ffffffff84000b5a:	06093783          	ld	a5,96(s2)
ffffffff84000b5e:	0001f717          	auipc	a4,0x1f
ffffffff84000b62:	caf73d23          	sd	a5,-838(a4) # ffffffff8401f818 <ksCurDomain>
ffffffff84000b66:	06893783          	ld	a5,104(s2)
ffffffff84000b6a:	3e800713          	li	a4,1000
ffffffff84000b6e:	02e787b3          	mul	a5,a5,a4
ffffffff84000b72:	0001f717          	auipc	a4,0x1f
ffffffff84000b76:	c8f73f23          	sd	a5,-866(a4) # ffffffff8401f810 <ksDomainTime>
ffffffff84000b7a:	6542                	ld	a0,16(sp)
ffffffff84000b7c:	65e2                	ld	a1,24(sp)
ffffffff84000b7e:	4ca030ef          	jal	ra,ffffffff84004048 <cap_get_capPtr>
ffffffff84000b82:	01941793          	slli	a5,s0,0x19
ffffffff84000b86:	83e5                	srli	a5,a5,0x19
ffffffff84000b88:	490d                	li	s2,3
ffffffff84000b8a:	03d91713          	slli	a4,s2,0x3d
ffffffff84000b8e:	8fd9                	or	a5,a5,a4
ffffffff84000b90:	f11c                	sd	a5,32(a0)
ffffffff84000b92:	02053423          	sd	zero,40(a0)
ffffffff84000b96:	02053823          	sd	zero,48(a0)
ffffffff84000b9a:	03253c23          	sd	s2,56(a0)
ffffffff84000b9e:	17043403          	ld	s0,368(s0)
ffffffff84000ba2:	0442                	slli	s0,s0,0x10
ffffffff84000ba4:	fe0007b7          	lui	a5,0xfe000
ffffffff84000ba8:	83a5                	srli	a5,a5,0x9
ffffffff84000baa:	8c7d                	and	s0,s0,a5
ffffffff84000bac:	6789                	lui	a5,0x2
ffffffff84000bae:	8c5d                	or	s0,s0,a5
ffffffff84000bb0:	6542                	ld	a0,16(sp)
ffffffff84000bb2:	65e2                	ld	a1,24(sp)
ffffffff84000bb4:	494030ef          	jal	ra,ffffffff84004048 <cap_get_capPtr>
ffffffff84000bb8:	57ed                	li	a5,-5
ffffffff84000bba:	17f2                	slli	a5,a5,0x3c
ffffffff84000bbc:	1cf53023          	sd	a5,448(a0)
ffffffff84000bc0:	1c853423          	sd	s0,456(a0)
ffffffff84000bc4:	1c053823          	sd	zero,464(a0)
ffffffff84000bc8:	1d253c23          	sd	s2,472(a0)
ffffffff84000bcc:	8526                	mv	a0,s1
ffffffff84000bce:	70e6                	ld	ra,120(sp)
ffffffff84000bd0:	7446                	ld	s0,112(sp)
ffffffff84000bd2:	74a6                	ld	s1,104(sp)
ffffffff84000bd4:	7906                	ld	s2,96(sp)
ffffffff84000bd6:	69e6                	ld	s3,88(sp)
ffffffff84000bd8:	6a46                	ld	s4,80(sp)
ffffffff84000bda:	6aa6                	ld	s5,72(sp)
ffffffff84000bdc:	6149                	addi	sp,sp,144
ffffffff84000bde:	8082                	ret

ffffffff84000be0 <configureIdleThread>:
ffffffff84000be0:	1141                	addi	sp,sp,-16
ffffffff84000be2:	e406                	sd	ra,8(sp)
ffffffff84000be4:	00001717          	auipc	a4,0x1
ffffffff84000be8:	4e870713          	addi	a4,a4,1256 # ffffffff840020cc <idle_thread>
ffffffff84000bec:	10e53823          	sd	a4,272(a0)
ffffffff84000bf0:	12000713          	li	a4,288
ffffffff84000bf4:	10e53023          	sd	a4,256(a0)
ffffffff84000bf8:	0001f717          	auipc	a4,0x1f
ffffffff84000bfc:	c0870713          	addi	a4,a4,-1016 # ffffffff8401f800 <tlbLockCount>
ffffffff84000c00:	e518                	sd	a4,8(a0)
ffffffff84000c02:	459d                	li	a1,7
ffffffff84000c04:	69b030ef          	jal	ra,ffffffff84004a9e <setThreadState>
ffffffff84000c08:	60a2                	ld	ra,8(sp)
ffffffff84000c0a:	0141                	addi	sp,sp,16
ffffffff84000c0c:	8082                	ret

ffffffff84000c0e <create_idle_thread>:
ffffffff84000c0e:	1141                	addi	sp,sp,-16
ffffffff84000c10:	e406                	sd	ra,8(sp)
ffffffff84000c12:	e022                	sd	s0,0(sp)
ffffffff84000c14:	0000b517          	auipc	a0,0xb
ffffffff84000c18:	5ec50513          	addi	a0,a0,1516 # ffffffff8400c200 <__global_pointer$+0xe6>
ffffffff84000c1c:	0001f417          	auipc	s0,0x1f
ffffffff84000c20:	c3440413          	addi	s0,s0,-972 # ffffffff8401f850 <ksIdleThread>
ffffffff84000c24:	e008                	sd	a0,0(s0)
ffffffff84000c26:	fbbff0ef          	jal	ra,ffffffff84000be0 <configureIdleThread>
ffffffff84000c2a:	6000                	ld	s0,0(s0)
ffffffff84000c2c:	0000d517          	auipc	a0,0xd
ffffffff84000c30:	cd450513          	addi	a0,a0,-812 # ffffffff8400d900 <ksIdleThreadSC>
ffffffff84000c34:	16a43823          	sd	a0,368(s0)
ffffffff84000c38:	4681                	li	a3,0
ffffffff84000c3a:	6605                	lui	a2,0x1
ffffffff84000c3c:	38860613          	addi	a2,a2,904 # 1388 <KERNEL_OFFSET-0xfffffffeffffec78>
ffffffff84000c40:	4589                	li	a1,2
ffffffff84000c42:	7ea020ef          	jal	ra,ffffffff8400342c <refill_new>
ffffffff84000c46:	17043783          	ld	a5,368(s0)
ffffffff84000c4a:	ef80                	sd	s0,24(a5)
ffffffff84000c4c:	4505                	li	a0,1
ffffffff84000c4e:	60a2                	ld	ra,8(sp)
ffffffff84000c50:	6402                	ld	s0,0(sp)
ffffffff84000c52:	0141                	addi	sp,sp,16
ffffffff84000c54:	8082                	ret

ffffffff84000c56 <create_ipcbuf_frame_cap>:
ffffffff84000c56:	711d                	addi	sp,sp,-96
ffffffff84000c58:	ec86                	sd	ra,88(sp)
ffffffff84000c5a:	e8a2                	sd	s0,80(sp)
ffffffff84000c5c:	e4a6                	sd	s1,72(sp)
ffffffff84000c5e:	e82a                	sd	a0,16(sp)
ffffffff84000c60:	ec2e                	sd	a1,24(sp)
ffffffff84000c62:	e032                	sd	a2,0(sp)
ffffffff84000c64:	e436                	sd	a3,8(sp)
ffffffff84000c66:	843a                	mv	s0,a4
ffffffff84000c68:	0000b497          	auipc	s1,0xb
ffffffff84000c6c:	79848493          	addi	s1,s1,1944 # ffffffff8400c400 <ndks_boot>
ffffffff84000c70:	6585                	lui	a1,0x1
ffffffff84000c72:	4684b503          	ld	a0,1128(s1)
ffffffff84000c76:	5e4080ef          	jal	ra,ffffffff8400925a <memzero>
ffffffff84000c7a:	4801                	li	a6,0
ffffffff84000c7c:	4781                	li	a5,0
ffffffff84000c7e:	4705                	li	a4,1
ffffffff84000c80:	86a2                	mv	a3,s0
ffffffff84000c82:	4684b603          	ld	a2,1128(s1)
ffffffff84000c86:	6502                	ld	a0,0(sp)
ffffffff84000c88:	65a2                	ld	a1,8(sp)
ffffffff84000c8a:	9b1ff0ef          	jal	ra,ffffffff8400063a <create_mapped_it_frame_cap>
ffffffff84000c8e:	84aa                	mv	s1,a0
ffffffff84000c90:	842e                	mv	s0,a1
ffffffff84000c92:	6542                	ld	a0,16(sp)
ffffffff84000c94:	65e2                	ld	a1,24(sp)
ffffffff84000c96:	3b2030ef          	jal	ra,ffffffff84004048 <cap_get_capPtr>
ffffffff84000c9a:	14953023          	sd	s1,320(a0)
ffffffff84000c9e:	14853423          	sd	s0,328(a0)
ffffffff84000ca2:	14053823          	sd	zero,336(a0)
ffffffff84000ca6:	478d                	li	a5,3
ffffffff84000ca8:	14f53c23          	sd	a5,344(a0)
ffffffff84000cac:	8526                	mv	a0,s1
ffffffff84000cae:	85a2                	mv	a1,s0
ffffffff84000cb0:	60e6                	ld	ra,88(sp)
ffffffff84000cb2:	6446                	ld	s0,80(sp)
ffffffff84000cb4:	64a6                	ld	s1,72(sp)
ffffffff84000cb6:	6125                	addi	sp,sp,96
ffffffff84000cb8:	8082                	ret

ffffffff84000cba <alloc_rootserver_obj>:
ffffffff84000cba:	1141                	addi	sp,sp,-16
ffffffff84000cbc:	e406                	sd	ra,8(sp)
ffffffff84000cbe:	e022                	sd	s0,0(sp)
ffffffff84000cc0:	0000b797          	auipc	a5,0xb
ffffffff84000cc4:	74078793          	addi	a5,a5,1856 # ffffffff8400c400 <ndks_boot>
ffffffff84000cc8:	4a07b403          	ld	s0,1184(a5)
ffffffff84000ccc:	00a595b3          	sll	a1,a1,a0
ffffffff84000cd0:	00858733          	add	a4,a1,s0
ffffffff84000cd4:	4ae7b023          	sd	a4,1184(a5)
ffffffff84000cd8:	8522                	mv	a0,s0
ffffffff84000cda:	580080ef          	jal	ra,ffffffff8400925a <memzero>
ffffffff84000cde:	8522                	mv	a0,s0
ffffffff84000ce0:	60a2                	ld	ra,8(sp)
ffffffff84000ce2:	6402                	ld	s0,0(sp)
ffffffff84000ce4:	0141                	addi	sp,sp,16
ffffffff84000ce6:	8082                	ret

ffffffff84000ce8 <maybe_alloc_extra_bi>:
ffffffff84000ce8:	00a5e863          	bltu	a1,a0,ffffffff84000cf8 <maybe_alloc_extra_bi+0x10>
ffffffff84000cec:	87ae                	mv	a5,a1
ffffffff84000cee:	0000c717          	auipc	a4,0xc
ffffffff84000cf2:	b8a73703          	ld	a4,-1142(a4) # ffffffff8400c878 <rootserver+0x28>
ffffffff84000cf6:	c311                	beqz	a4,ffffffff84000cfa <maybe_alloc_extra_bi+0x12>
ffffffff84000cf8:	8082                	ret
ffffffff84000cfa:	1141                	addi	sp,sp,-16
ffffffff84000cfc:	e406                	sd	ra,8(sp)
ffffffff84000cfe:	4585                	li	a1,1
ffffffff84000d00:	853e                	mv	a0,a5
ffffffff84000d02:	fb9ff0ef          	jal	ra,ffffffff84000cba <alloc_rootserver_obj>
ffffffff84000d06:	0000c797          	auipc	a5,0xc
ffffffff84000d0a:	b6a7b923          	sd	a0,-1166(a5) # ffffffff8400c878 <rootserver+0x28>
ffffffff84000d0e:	60a2                	ld	ra,8(sp)
ffffffff84000d10:	0141                	addi	sp,sp,16
ffffffff84000d12:	8082                	ret

ffffffff84000d14 <create_rootserver_objects>:
ffffffff84000d14:	715d                	addi	sp,sp,-80
ffffffff84000d16:	e486                	sd	ra,72(sp)
ffffffff84000d18:	e0a2                	sd	s0,64(sp)
ffffffff84000d1a:	fc26                	sd	s1,56(sp)
ffffffff84000d1c:	f84a                	sd	s2,48(sp)
ffffffff84000d1e:	f44e                	sd	s3,40(sp)
ffffffff84000d20:	f052                	sd	s4,32(sp)
ffffffff84000d22:	84aa                	mv	s1,a0
ffffffff84000d24:	e02e                	sd	a1,0(sp)
ffffffff84000d26:	e432                	sd	a2,8(sp)
ffffffff84000d28:	8936                	mv	s2,a3
ffffffff84000d2a:	8a36                	mv	s4,a3
ffffffff84000d2c:	47e1                	li	a5,24
ffffffff84000d2e:	00f6f363          	bgeu	a3,a5,ffffffff84000d34 <create_rootserver_objects+0x20>
ffffffff84000d32:	4a61                	li	s4,24
ffffffff84000d34:	6782                	ld	a5,0(sp)
ffffffff84000d36:	e83e                	sd	a5,16(sp)
ffffffff84000d38:	67a2                	ld	a5,8(sp)
ffffffff84000d3a:	ec3e                	sd	a5,24(sp)
ffffffff84000d3c:	89ca                	mv	s3,s2
ffffffff84000d3e:	00090563          	beqz	s2,ffffffff84000d48 <create_rootserver_objects+0x34>
ffffffff84000d42:	4985                	li	s3,1
ffffffff84000d44:	012999b3          	sll	s3,s3,s2
ffffffff84000d48:	6542                	ld	a0,16(sp)
ffffffff84000d4a:	65e2                	ld	a1,24(sp)
ffffffff84000d4c:	be6ff0ef          	jal	ra,ffffffff84000132 <arch_get_n_paging>
ffffffff84000d50:	0000b417          	auipc	s0,0xb
ffffffff84000d54:	6b040413          	addi	s0,s0,1712 # ffffffff8400c400 <ndks_boot>
ffffffff84000d58:	4a943023          	sd	s1,1184(s0)
ffffffff84000d5c:	010047b7          	lui	a5,0x1004
ffffffff84000d60:	50078793          	addi	a5,a5,1280 # 1004500 <KERNEL_OFFSET-0xfffffffefeffbb00>
ffffffff84000d64:	94be                	add	s1,s1,a5
ffffffff84000d66:	94ce                	add	s1,s1,s3
ffffffff84000d68:	0532                	slli	a0,a0,0xc
ffffffff84000d6a:	94aa                	add	s1,s1,a0
ffffffff84000d6c:	4a943423          	sd	s1,1192(s0)
ffffffff84000d70:	85ca                	mv	a1,s2
ffffffff84000d72:	8552                	mv	a0,s4
ffffffff84000d74:	f75ff0ef          	jal	ra,ffffffff84000ce8 <maybe_alloc_extra_bi>
ffffffff84000d78:	4585                	li	a1,1
ffffffff84000d7a:	4561                	li	a0,24
ffffffff84000d7c:	f3fff0ef          	jal	ra,ffffffff84000cba <alloc_rootserver_obj>
ffffffff84000d80:	44a43823          	sd	a0,1104(s0)
ffffffff84000d84:	85ca                	mv	a1,s2
ffffffff84000d86:	4531                	li	a0,12
ffffffff84000d88:	f61ff0ef          	jal	ra,ffffffff84000ce8 <maybe_alloc_extra_bi>
ffffffff84000d8c:	4585                	li	a1,1
ffffffff84000d8e:	4531                	li	a0,12
ffffffff84000d90:	f2bff0ef          	jal	ra,ffffffff84000cba <alloc_rootserver_obj>
ffffffff84000d94:	44a43c23          	sd	a0,1112(s0)
ffffffff84000d98:	85ca                	mv	a1,s2
ffffffff84000d9a:	4531                	li	a0,12
ffffffff84000d9c:	f4dff0ef          	jal	ra,ffffffff84000ce8 <maybe_alloc_extra_bi>
ffffffff84000da0:	4585                	li	a1,1
ffffffff84000da2:	4531                	li	a0,12
ffffffff84000da4:	f17ff0ef          	jal	ra,ffffffff84000cba <alloc_rootserver_obj>
ffffffff84000da8:	46a43023          	sd	a0,1120(s0)
ffffffff84000dac:	4585                	li	a1,1
ffffffff84000dae:	4531                	li	a0,12
ffffffff84000db0:	f0bff0ef          	jal	ra,ffffffff84000cba <alloc_rootserver_obj>
ffffffff84000db4:	46a43423          	sd	a0,1128(s0)
ffffffff84000db8:	4585                	li	a1,1
ffffffff84000dba:	4531                	li	a0,12
ffffffff84000dbc:	effff0ef          	jal	ra,ffffffff84000cba <alloc_rootserver_obj>
ffffffff84000dc0:	46a43823          	sd	a0,1136(s0)
ffffffff84000dc4:	6502                	ld	a0,0(sp)
ffffffff84000dc6:	65a2                	ld	a1,8(sp)
ffffffff84000dc8:	b6aff0ef          	jal	ra,ffffffff84000132 <arch_get_n_paging>
ffffffff84000dcc:	84aa                	mv	s1,a0
ffffffff84000dce:	85aa                	mv	a1,a0
ffffffff84000dd0:	4531                	li	a0,12
ffffffff84000dd2:	ee9ff0ef          	jal	ra,ffffffff84000cba <alloc_rootserver_obj>
ffffffff84000dd6:	48a43823          	sd	a0,1168(s0)
ffffffff84000dda:	04b2                	slli	s1,s1,0xc
ffffffff84000ddc:	94aa                	add	s1,s1,a0
ffffffff84000dde:	48943c23          	sd	s1,1176(s0)
ffffffff84000de2:	4585                	li	a1,1
ffffffff84000de4:	4529                	li	a0,10
ffffffff84000de6:	ed5ff0ef          	jal	ra,ffffffff84000cba <alloc_rootserver_obj>
ffffffff84000dea:	48a43023          	sd	a0,1152(s0)
ffffffff84000dee:	4585                	li	a1,1
ffffffff84000df0:	4521                	li	a0,8
ffffffff84000df2:	ec9ff0ef          	jal	ra,ffffffff84000cba <alloc_rootserver_obj>
ffffffff84000df6:	48a43423          	sd	a0,1160(s0)
ffffffff84000dfa:	60a6                	ld	ra,72(sp)
ffffffff84000dfc:	6406                	ld	s0,64(sp)
ffffffff84000dfe:	74e2                	ld	s1,56(sp)
ffffffff84000e00:	7942                	ld	s2,48(sp)
ffffffff84000e02:	79a2                	ld	s3,40(sp)
ffffffff84000e04:	7a02                	ld	s4,32(sp)
ffffffff84000e06:	6161                	addi	sp,sp,80
ffffffff84000e08:	8082                	ret

ffffffff84000e0a <init_freemem>:
ffffffff84000e0a:	7131                	addi	sp,sp,-192
ffffffff84000e0c:	fd06                	sd	ra,184(sp)
ffffffff84000e0e:	f922                	sd	s0,176(sp)
ffffffff84000e10:	f526                	sd	s1,168(sp)
ffffffff84000e12:	f14a                	sd	s2,160(sp)
ffffffff84000e14:	ed4e                	sd	s3,152(sp)
ffffffff84000e16:	e952                	sd	s4,144(sp)
ffffffff84000e18:	e556                	sd	s5,136(sp)
ffffffff84000e1a:	e15a                	sd	s6,128(sp)
ffffffff84000e1c:	fcde                	sd	s7,120(sp)
ffffffff84000e1e:	f8e2                	sd	s8,112(sp)
ffffffff84000e20:	f4e6                	sd	s9,104(sp)
ffffffff84000e22:	8a2a                	mv	s4,a0
ffffffff84000e24:	8ab2                	mv	s5,a2
ffffffff84000e26:	8b36                	mv	s6,a3
ffffffff84000e28:	e03a                	sd	a4,0(sp)
ffffffff84000e2a:	e43e                	sd	a5,8(sp)
ffffffff84000e2c:	89c2                	mv	s3,a6
ffffffff84000e2e:	4785                	li	a5,1
ffffffff84000e30:	00c7f863          	bgeu	a5,a2,ffffffff84000e40 <init_freemem+0x36>
ffffffff84000e34:	fff60713          	addi	a4,a2,-1
ffffffff84000e38:	4781                	li	a5,0
ffffffff84000e3a:	0785                	addi	a5,a5,1
ffffffff84000e3c:	fee79fe3          	bne	a5,a4,ffffffff84000e3a <init_freemem+0x30>
ffffffff84000e40:	fffa0713          	addi	a4,s4,-1 # fff <KERNEL_OFFSET-0xfffffffefffff001>
ffffffff84000e44:	c709                	beqz	a4,ffffffff84000e4e <init_freemem+0x44>
ffffffff84000e46:	4781                	li	a5,0
ffffffff84000e48:	0785                	addi	a5,a5,1
ffffffff84000e4a:	fee79fe3          	bne	a5,a4,ffffffff84000e48 <init_freemem+0x3e>
ffffffff84000e4e:	0000c797          	auipc	a5,0xc
ffffffff84000e52:	8ea78793          	addi	a5,a5,-1814 # ffffffff8400c738 <ndks_boot+0x338>
ffffffff84000e56:	0000c717          	auipc	a4,0xc
ffffffff84000e5a:	9e270713          	addi	a4,a4,-1566 # ffffffff8400c838 <ndks_boot+0x438>
ffffffff84000e5e:	0007b023          	sd	zero,0(a5)
ffffffff84000e62:	0007b423          	sd	zero,8(a5)
ffffffff84000e66:	07c1                	addi	a5,a5,16
ffffffff84000e68:	fee79be3          	bne	a5,a4,ffffffff84000e5e <init_freemem+0x54>
ffffffff84000e6c:	220a0363          	beqz	s4,ffffffff84001092 <init_freemem+0x288>
ffffffff84000e70:	882e                	mv	a6,a1
ffffffff84000e72:	00001717          	auipc	a4,0x1
ffffffff84000e76:	c8670713          	addi	a4,a4,-890 # ffffffff84001af8 <avail_reg+0x8>
ffffffff84000e7a:	004a1313          	slli	t1,s4,0x4
ffffffff84000e7e:	932e                	add	t1,t1,a1
ffffffff84000e80:	58fd                	li	a7,-1
ffffffff84000e82:	189a                	slli	a7,a7,0x26
ffffffff84000e84:	07f00513          	li	a0,127
ffffffff84000e88:	057e                	slli	a0,a0,0x1f
ffffffff84000e8a:	80000eb7          	lui	t4,0x80000
ffffffff84000e8e:	4e05                	li	t3,1
ffffffff84000e90:	1e1a                	slli	t3,t3,0x26
ffffffff84000e92:	a809                	j	ffffffff84000ea4 <init_freemem+0x9a>
ffffffff84000e94:	87f6                	mv	a5,t4
ffffffff84000e96:	a025                	j	ffffffff84000ebe <init_freemem+0xb4>
ffffffff84000e98:	fef6bc23          	sd	a5,-8(a3)
ffffffff84000e9c:	0841                	addi	a6,a6,16
ffffffff84000e9e:	0741                	addi	a4,a4,16
ffffffff84000ea0:	2a680563          	beq	a6,t1,ffffffff8400114a <init_freemem+0x340>
ffffffff84000ea4:	00883583          	ld	a1,8(a6)
ffffffff84000ea8:	011587b3          	add	a5,a1,a7
ffffffff84000eac:	86ba                	mv	a3,a4
ffffffff84000eae:	00083603          	ld	a2,0(a6)
ffffffff84000eb2:	9646                	add	a2,a2,a7
ffffffff84000eb4:	fec73c23          	sd	a2,-8(a4)
ffffffff84000eb8:	e31c                	sd	a5,0(a4)
ffffffff84000eba:	fcb56de3          	bltu	a0,a1,ffffffff84000e94 <init_freemem+0x8a>
ffffffff84000ebe:	e29c                	sd	a5,0(a3)
ffffffff84000ec0:	ff86b783          	ld	a5,-8(a3)
ffffffff84000ec4:	01c78633          	add	a2,a5,t3
ffffffff84000ec8:	fcc578e3          	bgeu	a0,a2,ffffffff84000e98 <init_freemem+0x8e>
ffffffff84000ecc:	87f6                	mv	a5,t4
ffffffff84000ece:	b7e9                	j	ffffffff84000e98 <init_freemem+0x8e>
ffffffff84000ed0:	0485                	addi	s1,s1,1
ffffffff84000ed2:	1d447263          	bgeu	s0,s4,ffffffff84001096 <init_freemem+0x28c>
ffffffff84000ed6:	0f54f163          	bgeu	s1,s5,ffffffff84000fb8 <init_freemem+0x1ae>
ffffffff84000eda:	00449913          	slli	s2,s1,0x4
ffffffff84000ede:	995a                	add	s2,s2,s6
ffffffff84000ee0:	00093583          	ld	a1,0(s2)
ffffffff84000ee4:	00893703          	ld	a4,8(s2)
ffffffff84000ee8:	fee584e3          	beq	a1,a4,ffffffff84000ed0 <init_freemem+0xc6>
ffffffff84000eec:	00441793          	slli	a5,s0,0x4
ffffffff84000ef0:	97de                	add	a5,a5,s7
ffffffff84000ef2:	6394                	ld	a3,0(a5)
ffffffff84000ef4:	679c                	ld	a5,8(a5)
ffffffff84000ef6:	00f6e463          	bltu	a3,a5,ffffffff84000efe <init_freemem+0xf4>
ffffffff84000efa:	0405                	addi	s0,s0,1
ffffffff84000efc:	bfd9                	j	ffffffff84000ed2 <init_freemem+0xc8>
ffffffff84000efe:	02e6f963          	bgeu	a3,a4,ffffffff84000f30 <init_freemem+0x126>
ffffffff84000f02:	04f5f163          	bgeu	a1,a5,ffffffff84000f44 <init_freemem+0x13a>
ffffffff84000f06:	04b6e863          	bltu	a3,a1,ffffffff84000f56 <init_freemem+0x14c>
ffffffff84000f0a:	00441693          	slli	a3,s0,0x4
ffffffff84000f0e:	96de                	add	a3,a3,s7
ffffffff84000f10:	00e7f363          	bgeu	a5,a4,ffffffff84000f16 <init_freemem+0x10c>
ffffffff84000f14:	873e                	mv	a4,a5
ffffffff84000f16:	e298                	sd	a4,0(a3)
ffffffff84000f18:	00893583          	ld	a1,8(s2)
ffffffff84000f1c:	95e2                	add	a1,a1,s8
ffffffff84000f1e:	00093503          	ld	a0,0(s2)
ffffffff84000f22:	9562                	add	a0,a0,s8
ffffffff84000f24:	f82a                	sd	a0,48(sp)
ffffffff84000f26:	fc2e                	sd	a1,56(sp)
ffffffff84000f28:	b0cff0ef          	jal	ra,ffffffff84000234 <reserve_region>
ffffffff84000f2c:	0485                	addi	s1,s1,1
ffffffff84000f2e:	b755                	j	ffffffff84000ed2 <init_freemem+0xc8>
ffffffff84000f30:	01858533          	add	a0,a1,s8
ffffffff84000f34:	f02a                	sd	a0,32(sp)
ffffffff84000f36:	018705b3          	add	a1,a4,s8
ffffffff84000f3a:	f42e                	sd	a1,40(sp)
ffffffff84000f3c:	af8ff0ef          	jal	ra,ffffffff84000234 <reserve_region>
ffffffff84000f40:	0485                	addi	s1,s1,1
ffffffff84000f42:	bf41                	j	ffffffff84000ed2 <init_freemem+0xc8>
ffffffff84000f44:	00441793          	slli	a5,s0,0x4
ffffffff84000f48:	97de                	add	a5,a5,s7
ffffffff84000f4a:	6388                	ld	a0,0(a5)
ffffffff84000f4c:	678c                	ld	a1,8(a5)
ffffffff84000f4e:	d00ff0ef          	jal	ra,ffffffff8400044e <insert_region>
ffffffff84000f52:	0405                	addi	s0,s0,1
ffffffff84000f54:	bfbd                	j	ffffffff84000ed2 <init_freemem+0xc8>
ffffffff84000f56:	00441c93          	slli	s9,s0,0x4
ffffffff84000f5a:	9cde                	add	s9,s9,s7
ffffffff84000f5c:	000cb503          	ld	a0,0(s9)
ffffffff84000f60:	e82a                	sd	a0,16(sp)
ffffffff84000f62:	ec2e                	sd	a1,24(sp)
ffffffff84000f64:	ceaff0ef          	jal	ra,ffffffff8400044e <insert_region>
ffffffff84000f68:	00893783          	ld	a5,8(s2)
ffffffff84000f6c:	008cb703          	ld	a4,8(s9)
ffffffff84000f70:	00e7e463          	bltu	a5,a4,ffffffff84000f78 <init_freemem+0x16e>
ffffffff84000f74:	0405                	addi	s0,s0,1
ffffffff84000f76:	bfb1                	j	ffffffff84000ed2 <init_freemem+0xc8>
ffffffff84000f78:	00fcb023          	sd	a5,0(s9)
ffffffff84000f7c:	00093503          	ld	a0,0(s2)
ffffffff84000f80:	9562                	add	a0,a0,s8
ffffffff84000f82:	e0aa                	sd	a0,64(sp)
ffffffff84000f84:	018785b3          	add	a1,a5,s8
ffffffff84000f88:	e4ae                	sd	a1,72(sp)
ffffffff84000f8a:	aaaff0ef          	jal	ra,ffffffff84000234 <reserve_region>
ffffffff84000f8e:	0485                	addi	s1,s1,1
ffffffff84000f90:	b789                	j	ffffffff84000ed2 <init_freemem+0xc8>
ffffffff84000f92:	0485                	addi	s1,s1,1
ffffffff84000f94:	0941                	addi	s2,s2,16
ffffffff84000f96:	009a8f63          	beq	s5,s1,ffffffff84000fb4 <init_freemem+0x1aa>
ffffffff84000f9a:	00093503          	ld	a0,0(s2)
ffffffff84000f9e:	00893583          	ld	a1,8(s2)
ffffffff84000fa2:	feb578e3          	bgeu	a0,a1,ffffffff84000f92 <init_freemem+0x188>
ffffffff84000fa6:	955a                	add	a0,a0,s6
ffffffff84000fa8:	e8aa                	sd	a0,80(sp)
ffffffff84000faa:	95da                	add	a1,a1,s6
ffffffff84000fac:	ecae                	sd	a1,88(sp)
ffffffff84000fae:	a86ff0ef          	jal	ra,ffffffff84000234 <reserve_region>
ffffffff84000fb2:	b7c5                	j	ffffffff84000f92 <init_freemem+0x188>
ffffffff84000fb4:	0f447863          	bgeu	s0,s4,ffffffff840010a4 <init_freemem+0x29a>
ffffffff84000fb8:	00441793          	slli	a5,s0,0x4
ffffffff84000fbc:	00001497          	auipc	s1,0x1
ffffffff84000fc0:	b3448493          	addi	s1,s1,-1228 # ffffffff84001af0 <avail_reg>
ffffffff84000fc4:	94be                	add	s1,s1,a5
ffffffff84000fc6:	00001917          	auipc	s2,0x1
ffffffff84000fca:	b2a90913          	addi	s2,s2,-1238 # ffffffff84001af0 <avail_reg>
ffffffff84000fce:	a029                	j	ffffffff84000fd8 <init_freemem+0x1ce>
ffffffff84000fd0:	0405                	addi	s0,s0,1
ffffffff84000fd2:	04c1                	addi	s1,s1,16
ffffffff84000fd4:	0c8a0863          	beq	s4,s0,ffffffff840010a4 <init_freemem+0x29a>
ffffffff84000fd8:	6098                	ld	a4,0(s1)
ffffffff84000fda:	649c                	ld	a5,8(s1)
ffffffff84000fdc:	fef77ae3          	bgeu	a4,a5,ffffffff84000fd0 <init_freemem+0x1c6>
ffffffff84000fe0:	00441793          	slli	a5,s0,0x4
ffffffff84000fe4:	97ca                	add	a5,a5,s2
ffffffff84000fe6:	6388                	ld	a0,0(a5)
ffffffff84000fe8:	678c                	ld	a1,8(a5)
ffffffff84000fea:	c64ff0ef          	jal	ra,ffffffff8400044e <insert_region>
ffffffff84000fee:	b7cd                	j	ffffffff84000fd0 <init_freemem+0x1c6>
ffffffff84000ff0:	274010ef          	jal	ra,ffffffff84002264 <halt>
ffffffff84000ff4:	8aa6                	mv	s5,s1
ffffffff84000ff6:	84ca                	mv	s1,s2
ffffffff84000ff8:	86ce                	mv	a3,s3
ffffffff84000ffa:	6582                	ld	a1,0(sp)
ffffffff84000ffc:	6622                	ld	a2,8(sp)
ffffffff84000ffe:	8522                	mv	a0,s0
ffffffff84001000:	d15ff0ef          	jal	ra,ffffffff84000d14 <create_rootserver_objects>
ffffffff84001004:	47bd                	li	a5,15
ffffffff84001006:	0357e363          	bltu	a5,s5,ffffffff8400102c <init_freemem+0x222>
ffffffff8400100a:	0000b797          	auipc	a5,0xb
ffffffff8400100e:	3f678793          	addi	a5,a5,1014 # ffffffff8400c400 <ndks_boot>
ffffffff84001012:	033a8713          	addi	a4,s5,51 # 300033 <KERNEL_OFFSET-0xfffffffeffcfffcd>
ffffffff84001016:	0712                	slli	a4,a4,0x4
ffffffff84001018:	973e                	add	a4,a4,a5
ffffffff8400101a:	6b18                	ld	a4,16(a4)
ffffffff8400101c:	03348493          	addi	s1,s1,51
ffffffff84001020:	0492                	slli	s1,s1,0x4
ffffffff84001022:	97a6                	add	a5,a5,s1
ffffffff84001024:	eb98                	sd	a4,16(a5)
ffffffff84001026:	9a22                	add	s4,s4,s0
ffffffff84001028:	0147b423          	sd	s4,8(a5)
ffffffff8400102c:	033a8a93          	addi	s5,s5,51
ffffffff84001030:	0a92                	slli	s5,s5,0x4
ffffffff84001032:	0000b797          	auipc	a5,0xb
ffffffff84001036:	3ce78793          	addi	a5,a5,974 # ffffffff8400c400 <ndks_boot>
ffffffff8400103a:	9abe                	add	s5,s5,a5
ffffffff8400103c:	008ab823          	sd	s0,16(s5)
ffffffff84001040:	70ea                	ld	ra,184(sp)
ffffffff84001042:	744a                	ld	s0,176(sp)
ffffffff84001044:	74aa                	ld	s1,168(sp)
ffffffff84001046:	790a                	ld	s2,160(sp)
ffffffff84001048:	69ea                	ld	s3,152(sp)
ffffffff8400104a:	6a4a                	ld	s4,144(sp)
ffffffff8400104c:	6aaa                	ld	s5,136(sp)
ffffffff8400104e:	6b0a                	ld	s6,128(sp)
ffffffff84001050:	7be6                	ld	s7,120(sp)
ffffffff84001052:	7c46                	ld	s8,112(sp)
ffffffff84001054:	7ca6                	ld	s9,104(sp)
ffffffff84001056:	6129                	addi	sp,sp,192
ffffffff84001058:	8082                	ret
ffffffff8400105a:	fff48a93          	addi	s5,s1,-1
ffffffff8400105e:	6780                	ld	s0,8(a5)
ffffffff84001060:	41440433          	sub	s0,s0,s4
ffffffff84001064:	00e45433          	srl	s0,s0,a4
ffffffff84001068:	00e41433          	sll	s0,s0,a4
ffffffff8400106c:	17c1                	addi	a5,a5,-16
ffffffff8400106e:	8926                	mv	s2,s1
ffffffff84001070:	6b94                	ld	a3,16(a5)
ffffffff84001072:	f8d473e3          	bgeu	s0,a3,ffffffff84000ff8 <init_freemem+0x1ee>
ffffffff84001076:	84d6                	mv	s1,s5
ffffffff84001078:	fe9661e3          	bltu	a2,s1,ffffffff8400105a <init_freemem+0x250>
ffffffff8400107c:	03390913          	addi	s2,s2,51
ffffffff84001080:	0912                	slli	s2,s2,0x4
ffffffff84001082:	992e                	add	s2,s2,a1
ffffffff84001084:	6b94                	ld	a3,16(a5)
ffffffff84001086:	00d93423          	sd	a3,8(s2)
ffffffff8400108a:	6f94                	ld	a3,24(a5)
ffffffff8400108c:	00d93823          	sd	a3,16(s2)
ffffffff84001090:	b7e9                	j	ffffffff8400105a <init_freemem+0x250>
ffffffff84001092:	8452                	mv	s0,s4
ffffffff84001094:	84d2                	mv	s1,s4
ffffffff84001096:	00449913          	slli	s2,s1,0x4
ffffffff8400109a:	995a                	add	s2,s2,s6
ffffffff8400109c:	4b05                	li	s6,1
ffffffff8400109e:	1b1a                	slli	s6,s6,0x26
ffffffff840010a0:	ef54ede3          	bltu	s1,s5,ffffffff84000f9a <init_freemem+0x190>
ffffffff840010a4:	0000b797          	auipc	a5,0xb
ffffffff840010a8:	35c78793          	addi	a5,a5,860 # ffffffff8400c400 <ndks_boot>
ffffffff840010ac:	4287b683          	ld	a3,1064(a5)
ffffffff840010b0:	4307b703          	ld	a4,1072(a5)
ffffffff840010b4:	0000b797          	auipc	a5,0xb
ffffffff840010b8:	76478793          	addi	a5,a5,1892 # ffffffff8400c818 <ndks_boot+0x418>
ffffffff840010bc:	44bd                	li	s1,15
ffffffff840010be:	f2e699e3          	bne	a3,a4,ffffffff84000ff0 <init_freemem+0x1e6>
ffffffff840010c2:	8926                	mv	s2,s1
ffffffff840010c4:	14fd                	addi	s1,s1,-1
ffffffff840010c6:	6394                	ld	a3,0(a5)
ffffffff840010c8:	17c1                	addi	a5,a5,-16
ffffffff840010ca:	6f98                	ld	a4,24(a5)
ffffffff840010cc:	fee68be3          	beq	a3,a4,ffffffff840010c2 <init_freemem+0x2b8>
ffffffff840010d0:	6782                	ld	a5,0(sp)
ffffffff840010d2:	e83e                	sd	a5,16(sp)
ffffffff840010d4:	67a2                	ld	a5,8(sp)
ffffffff840010d6:	ec3e                	sd	a5,24(sp)
ffffffff840010d8:	844e                	mv	s0,s3
ffffffff840010da:	00098563          	beqz	s3,ffffffff840010e4 <init_freemem+0x2da>
ffffffff840010de:	4405                	li	s0,1
ffffffff840010e0:	01341433          	sll	s0,s0,s3
ffffffff840010e4:	6542                	ld	a0,16(sp)
ffffffff840010e6:	65e2                	ld	a1,24(sp)
ffffffff840010e8:	84aff0ef          	jal	ra,ffffffff84000132 <arch_get_n_paging>
ffffffff840010ec:	01004a37          	lui	s4,0x1004
ffffffff840010f0:	500a0a13          	addi	s4,s4,1280 # 1004500 <KERNEL_OFFSET-0xfffffffefeffbb00>
ffffffff840010f4:	9452                	add	s0,s0,s4
ffffffff840010f6:	00c51a13          	slli	s4,a0,0xc
ffffffff840010fa:	9a22                	add	s4,s4,s0
ffffffff840010fc:	86ce                	mv	a3,s3
ffffffff840010fe:	47e1                	li	a5,24
ffffffff84001100:	00f9f363          	bgeu	s3,a5,ffffffff84001106 <init_freemem+0x2fc>
ffffffff84001104:	46e1                	li	a3,24
ffffffff84001106:	0006871b          	sext.w	a4,a3
ffffffff8400110a:	03348793          	addi	a5,s1,51
ffffffff8400110e:	00479613          	slli	a2,a5,0x4
ffffffff84001112:	0000b797          	auipc	a5,0xb
ffffffff84001116:	2ee78793          	addi	a5,a5,750 # ffffffff8400c400 <ndks_boot>
ffffffff8400111a:	97b2                	add	a5,a5,a2
ffffffff8400111c:	6b80                	ld	s0,16(a5)
ffffffff8400111e:	41440433          	sub	s0,s0,s4
ffffffff84001122:	00d45433          	srl	s0,s0,a3
ffffffff84001126:	00d41433          	sll	s0,s0,a3
ffffffff8400112a:	679c                	ld	a5,8(a5)
ffffffff8400112c:	ecf474e3          	bgeu	s0,a5,ffffffff84000ff4 <init_freemem+0x1ea>
ffffffff84001130:	00449793          	slli	a5,s1,0x4
ffffffff84001134:	0000b697          	auipc	a3,0xb
ffffffff84001138:	5f468693          	addi	a3,a3,1524 # ffffffff8400c728 <ndks_boot+0x328>
ffffffff8400113c:	97b6                	add	a5,a5,a3
ffffffff8400113e:	463d                	li	a2,15
ffffffff84001140:	0000b597          	auipc	a1,0xb
ffffffff84001144:	2c058593          	addi	a1,a1,704 # ffffffff8400c400 <ndks_boot>
ffffffff84001148:	bf05                	j	ffffffff84001078 <init_freemem+0x26e>
ffffffff8400114a:	4481                	li	s1,0
ffffffff8400114c:	4401                	li	s0,0
ffffffff8400114e:	00001b97          	auipc	s7,0x1
ffffffff84001152:	9a2b8b93          	addi	s7,s7,-1630 # ffffffff84001af0 <avail_reg>
ffffffff84001156:	4c05                	li	s8,1
ffffffff84001158:	1c1a                	slli	s8,s8,0x26
ffffffff8400115a:	d80a90e3          	bnez	s5,ffffffff84000eda <init_freemem+0xd0>
ffffffff8400115e:	8456                	mv	s0,s5
ffffffff84001160:	bda1                	j	ffffffff84000fb8 <init_freemem+0x1ae>

ffffffff84001162 <calculate_extra_bi_size_bits>:
ffffffff84001162:	1141                	addi	sp,sp,-16
ffffffff84001164:	e406                	sd	ra,8(sp)
ffffffff84001166:	e022                	sd	s0,0(sp)
ffffffff84001168:	842a                	mv	s0,a0
ffffffff8400116a:	c50d                	beqz	a0,ffffffff84001194 <calculate_extra_bi_size_bits+0x32>
ffffffff8400116c:	157d                	addi	a0,a0,-1
ffffffff8400116e:	8131                	srli	a0,a0,0xc
ffffffff84001170:	0505                	addi	a0,a0,1
ffffffff84001172:	0532                	slli	a0,a0,0xc
ffffffff84001174:	476090ef          	jal	ra,ffffffff8400a5ea <__clzdi2>
ffffffff84001178:	872a                	mv	a4,a0
ffffffff8400117a:	03f00793          	li	a5,63
ffffffff8400117e:	40a78533          	sub	a0,a5,a0
ffffffff84001182:	4785                	li	a5,1
ffffffff84001184:	00a797b3          	sll	a5,a5,a0
ffffffff84001188:	0087f663          	bgeu	a5,s0,ffffffff84001194 <calculate_extra_bi_size_bits+0x32>
ffffffff8400118c:	04000793          	li	a5,64
ffffffff84001190:	40e78533          	sub	a0,a5,a4
ffffffff84001194:	60a2                	ld	ra,8(sp)
ffffffff84001196:	6402                	ld	s0,0(sp)
ffffffff84001198:	0141                	addi	sp,sp,16
ffffffff8400119a:	8082                	ret

ffffffff8400119c <populate_bi_frame>:
ffffffff8400119c:	7179                	addi	sp,sp,-48
ffffffff8400119e:	f406                	sd	ra,40(sp)
ffffffff840011a0:	f022                	sd	s0,32(sp)
ffffffff840011a2:	ec26                	sd	s1,24(sp)
ffffffff840011a4:	e84a                	sd	s2,16(sp)
ffffffff840011a6:	e44e                	sd	s3,8(sp)
ffffffff840011a8:	89aa                	mv	s3,a0
ffffffff840011aa:	892e                	mv	s2,a1
ffffffff840011ac:	84b2                	mv	s1,a2
ffffffff840011ae:	8436                	mv	s0,a3
ffffffff840011b0:	6585                	lui	a1,0x1
ffffffff840011b2:	0000b517          	auipc	a0,0xb
ffffffff840011b6:	6be53503          	ld	a0,1726(a0) # ffffffff8400c870 <rootserver+0x20>
ffffffff840011ba:	0a0080ef          	jal	ra,ffffffff8400925a <memzero>
ffffffff840011be:	e035                	bnez	s0,ffffffff84001222 <populate_bi_frame+0x86>
ffffffff840011c0:	0000b797          	auipc	a5,0xb
ffffffff840011c4:	24078793          	addi	a5,a5,576 # ffffffff8400c400 <ndks_boot>
ffffffff840011c8:	4707b703          	ld	a4,1136(a5)
ffffffff840011cc:	42e7bc23          	sd	a4,1080(a5)
ffffffff840011d0:	46bd                	li	a3,15
ffffffff840011d2:	44d7b023          	sd	a3,1088(a5)
ffffffff840011d6:	01373423          	sd	s3,8(a4)
ffffffff840011da:	4707b703          	ld	a4,1136(a5)
ffffffff840011de:	01273823          	sd	s2,16(a4)
ffffffff840011e2:	4707b703          	ld	a4,1136(a5)
ffffffff840011e6:	00073c23          	sd	zero,24(a4)
ffffffff840011ea:	4707b703          	ld	a4,1136(a5)
ffffffff840011ee:	f304                	sd	s1,32(a4)
ffffffff840011f0:	4707b783          	ld	a5,1136(a5)
ffffffff840011f4:	474d                	li	a4,19
ffffffff840011f6:	e7d8                	sd	a4,136(a5)
ffffffff840011f8:	0001e717          	auipc	a4,0x1e
ffffffff840011fc:	61073703          	ld	a4,1552(a4) # ffffffff8401f808 <ksDomScheduleIdx>
ffffffff84001200:	00471693          	slli	a3,a4,0x4
ffffffff84001204:	0000b717          	auipc	a4,0xb
ffffffff84001208:	b7470713          	addi	a4,a4,-1164 # ffffffff8400bd78 <fault_messages>
ffffffff8400120c:	9736                	add	a4,a4,a3
ffffffff8400120e:	7338                	ld	a4,96(a4)
ffffffff84001210:	ebd8                	sd	a4,144(a5)
ffffffff84001212:	e380                	sd	s0,0(a5)
ffffffff84001214:	70a2                	ld	ra,40(sp)
ffffffff84001216:	7402                	ld	s0,32(sp)
ffffffff84001218:	64e2                	ld	s1,24(sp)
ffffffff8400121a:	6942                	ld	s2,16(sp)
ffffffff8400121c:	69a2                	ld	s3,8(sp)
ffffffff8400121e:	6145                	addi	sp,sp,48
ffffffff84001220:	8082                	ret
ffffffff84001222:	8522                	mv	a0,s0
ffffffff84001224:	f3fff0ef          	jal	ra,ffffffff84001162 <calculate_extra_bi_size_bits>
ffffffff84001228:	4585                	li	a1,1
ffffffff8400122a:	00a595b3          	sll	a1,a1,a0
ffffffff8400122e:	0000b517          	auipc	a0,0xb
ffffffff84001232:	64a53503          	ld	a0,1610(a0) # ffffffff8400c878 <rootserver+0x28>
ffffffff84001236:	024080ef          	jal	ra,ffffffff8400925a <memzero>
ffffffff8400123a:	b759                	j	ffffffff840011c0 <populate_bi_frame+0x24>

ffffffff8400123c <create_untypeds_for_region>:
ffffffff8400123c:	7131                	addi	sp,sp,-192
ffffffff8400123e:	fd06                	sd	ra,184(sp)
ffffffff84001240:	f922                	sd	s0,176(sp)
ffffffff84001242:	f526                	sd	s1,168(sp)
ffffffff84001244:	f14a                	sd	s2,160(sp)
ffffffff84001246:	ed4e                	sd	s3,152(sp)
ffffffff84001248:	e952                	sd	s4,144(sp)
ffffffff8400124a:	e556                	sd	s5,136(sp)
ffffffff8400124c:	e15a                	sd	s6,128(sp)
ffffffff8400124e:	fcde                	sd	s7,120(sp)
ffffffff84001250:	f8e2                	sd	s8,112(sp)
ffffffff84001252:	f4e6                	sd	s9,104(sp)
ffffffff84001254:	f0ea                	sd	s10,96(sp)
ffffffff84001256:	ecee                	sd	s11,88(sp)
ffffffff84001258:	f02a                	sd	a0,32(sp)
ffffffff8400125a:	f42e                	sd	a1,40(sp)
ffffffff8400125c:	0ee68563          	beq	a3,a4,ffffffff84001346 <create_untypeds_for_region+0x10a>
ffffffff84001260:	8cb2                	mv	s9,a2
ffffffff84001262:	8c3e                	mv	s8,a5
ffffffff84001264:	84b6                	mv	s1,a3
ffffffff84001266:	89ba                	mv	s3,a4
ffffffff84001268:	00661d13          	slli	s10,a2,0x6
ffffffff8400126c:	040d7d13          	andi	s10,s10,64
ffffffff84001270:	03f00b13          	li	s6,63
ffffffff84001274:	02600a93          	li	s5,38
ffffffff84001278:	0000bb97          	auipc	s7,0xb
ffffffff8400127c:	188b8b93          	addi	s7,s7,392 # ffffffff8400c400 <ndks_boot>
ffffffff84001280:	4a05                	li	s4,1
ffffffff84001282:	026a1d93          	slli	s11,s4,0x26
ffffffff84001286:	57fd                	li	a5,-1
ffffffff84001288:	83e5                	srli	a5,a5,0x19
ffffffff8400128a:	e03e                	sd	a5,0(sp)
ffffffff8400128c:	03ca1793          	slli	a5,s4,0x3c
ffffffff84001290:	e43e                	sd	a5,8(sp)
ffffffff84001292:	a01d                	j	ffffffff840012b8 <create_untypeds_for_region+0x7c>
ffffffff84001294:	8456                	mv	s0,s5
ffffffff84001296:	7782                	ld	a5,32(sp)
ffffffff84001298:	f83e                	sd	a5,48(sp)
ffffffff8400129a:	77a2                	ld	a5,40(sp)
ffffffff8400129c:	fc3e                	sd	a5,56(sp)
ffffffff8400129e:	440bb783          	ld	a5,1088(s7)
ffffffff840012a2:	418787b3          	sub	a5,a5,s8
ffffffff840012a6:	03100713          	li	a4,49
ffffffff840012aa:	02f77c63          	bgeu	a4,a5,ffffffff840012e2 <create_untypeds_for_region+0xa6>
ffffffff840012ae:	008a1433          	sll	s0,s4,s0
ffffffff840012b2:	94a2                	add	s1,s1,s0
ffffffff840012b4:	07348963          	beq	s1,s3,ffffffff84001326 <create_untypeds_for_region+0xea>
ffffffff840012b8:	40998533          	sub	a0,s3,s1
ffffffff840012bc:	32e090ef          	jal	ra,ffffffff8400a5ea <__clzdi2>
ffffffff840012c0:	40ab0933          	sub	s2,s6,a0
ffffffff840012c4:	844a                	mv	s0,s2
ffffffff840012c6:	c489                	beqz	s1,ffffffff840012d0 <create_untypeds_for_region+0x94>
ffffffff840012c8:	8526                	mv	a0,s1
ffffffff840012ca:	5ec0a0ef          	jal	ra,ffffffff8400b8b6 <__ctzdi2>
ffffffff840012ce:	842a                	mv	s0,a0
ffffffff840012d0:	00897363          	bgeu	s2,s0,ffffffff840012d6 <create_untypeds_for_region+0x9a>
ffffffff840012d4:	844a                	mv	s0,s2
ffffffff840012d6:	fa8aefe3          	bltu	s5,s0,ffffffff84001294 <create_untypeds_for_region+0x58>
ffffffff840012da:	478d                	li	a5,3
ffffffff840012dc:	fc87f9e3          	bgeu	a5,s0,ffffffff840012ae <create_untypeds_for_region+0x72>
ffffffff840012e0:	bf5d                	j	ffffffff84001296 <create_untypeds_for_region+0x5a>
ffffffff840012e2:	0792                	slli	a5,a5,0x4
ffffffff840012e4:	438bb703          	ld	a4,1080(s7)
ffffffff840012e8:	97ba                	add	a5,a5,a4
ffffffff840012ea:	0c07b023          	sd	zero,192(a5)
ffffffff840012ee:	01b48733          	add	a4,s1,s11
ffffffff840012f2:	ffd8                	sd	a4,184(a5)
ffffffff840012f4:	0c878023          	sb	s0,192(a5)
ffffffff840012f8:	0d9780a3          	sb	s9,193(a5)
ffffffff840012fc:	6782                	ld	a5,0(sp)
ffffffff840012fe:	00f4f633          	and	a2,s1,a5
ffffffff84001302:	ffc4079b          	addiw	a5,s0,-4
ffffffff84001306:	00fa17b3          	sll	a5,s4,a5
ffffffff8400130a:	07e6                	slli	a5,a5,0x19
ffffffff8400130c:	03f47693          	andi	a3,s0,63
ffffffff84001310:	01a6e6b3          	or	a3,a3,s10
ffffffff84001314:	6722                	ld	a4,8(sp)
ffffffff84001316:	8e59                	or	a2,a2,a4
ffffffff84001318:	8edd                	or	a3,a3,a5
ffffffff8400131a:	7542                	ld	a0,48(sp)
ffffffff8400131c:	75e2                	ld	a1,56(sp)
ffffffff8400131e:	bfcff0ef          	jal	ra,ffffffff8400071a <provide_cap>
ffffffff84001322:	f551                	bnez	a0,ffffffff840012ae <create_untypeds_for_region+0x72>
ffffffff84001324:	a011                	j	ffffffff84001328 <create_untypeds_for_region+0xec>
ffffffff84001326:	4505                	li	a0,1
ffffffff84001328:	70ea                	ld	ra,184(sp)
ffffffff8400132a:	744a                	ld	s0,176(sp)
ffffffff8400132c:	74aa                	ld	s1,168(sp)
ffffffff8400132e:	790a                	ld	s2,160(sp)
ffffffff84001330:	69ea                	ld	s3,152(sp)
ffffffff84001332:	6a4a                	ld	s4,144(sp)
ffffffff84001334:	6aaa                	ld	s5,136(sp)
ffffffff84001336:	6b0a                	ld	s6,128(sp)
ffffffff84001338:	7be6                	ld	s7,120(sp)
ffffffff8400133a:	7c46                	ld	s8,112(sp)
ffffffff8400133c:	7ca6                	ld	s9,104(sp)
ffffffff8400133e:	7d06                	ld	s10,96(sp)
ffffffff84001340:	6de6                	ld	s11,88(sp)
ffffffff84001342:	6129                	addi	sp,sp,192
ffffffff84001344:	8082                	ret
ffffffff84001346:	4505                	li	a0,1
ffffffff84001348:	b7c5                	j	ffffffff84001328 <create_untypeds_for_region+0xec>

ffffffff8400134a <create_device_untypeds>:
ffffffff8400134a:	711d                	addi	sp,sp,-96
ffffffff8400134c:	ec86                	sd	ra,88(sp)
ffffffff8400134e:	e8a2                	sd	s0,80(sp)
ffffffff84001350:	e4a6                	sd	s1,72(sp)
ffffffff84001352:	e0ca                	sd	s2,64(sp)
ffffffff84001354:	fc4e                	sd	s3,56(sp)
ffffffff84001356:	f852                	sd	s4,48(sp)
ffffffff84001358:	f456                	sd	s5,40(sp)
ffffffff8400135a:	e02a                	sd	a0,0(sp)
ffffffff8400135c:	e42e                	sd	a1,8(sp)
ffffffff8400135e:	8a32                	mv	s4,a2
ffffffff84001360:	0000b697          	auipc	a3,0xb
ffffffff84001364:	3d06b683          	ld	a3,976(a3) # ffffffff8400c730 <ndks_boot+0x330>
ffffffff84001368:	c2b5                	beqz	a3,ffffffff840013cc <create_device_untypeds+0x82>
ffffffff8400136a:	0000b417          	auipc	s0,0xb
ffffffff8400136e:	09640413          	addi	s0,s0,150 # ffffffff8400c400 <ndks_boot>
ffffffff84001372:	4481                	li	s1,0
ffffffff84001374:	4681                	li	a3,0
ffffffff84001376:	5afd                	li	s5,-1
ffffffff84001378:	1a9a                	slli	s5,s5,0x26
ffffffff8400137a:	89a2                	mv	s3,s0
ffffffff8400137c:	a809                	j	ffffffff8400138e <create_device_untypeds+0x44>
ffffffff8400137e:	00893683          	ld	a3,8(s2)
ffffffff84001382:	0485                	addi	s1,s1,1
ffffffff84001384:	0441                	addi	s0,s0,16
ffffffff84001386:	3309b703          	ld	a4,816(s3)
ffffffff8400138a:	02e4f263          	bgeu	s1,a4,ffffffff840013ae <create_device_untypeds+0x64>
ffffffff8400138e:	8922                	mv	s2,s0
ffffffff84001390:	6018                	ld	a4,0(s0)
ffffffff84001392:	fee6f6e3          	bgeu	a3,a4,ffffffff8400137e <create_device_untypeds+0x34>
ffffffff84001396:	96d6                	add	a3,a3,s5
ffffffff84001398:	e836                	sd	a3,16(sp)
ffffffff8400139a:	9756                	add	a4,a4,s5
ffffffff8400139c:	ec3a                	sd	a4,24(sp)
ffffffff8400139e:	87d2                	mv	a5,s4
ffffffff840013a0:	4605                	li	a2,1
ffffffff840013a2:	6502                	ld	a0,0(sp)
ffffffff840013a4:	65a2                	ld	a1,8(sp)
ffffffff840013a6:	e97ff0ef          	jal	ra,ffffffff8400123c <create_untypeds_for_region>
ffffffff840013aa:	f971                	bnez	a0,ffffffff8400137e <create_device_untypeds+0x34>
ffffffff840013ac:	a039                	j	ffffffff840013ba <create_device_untypeds+0x70>
ffffffff840013ae:	fc0007b7          	lui	a5,0xfc000
ffffffff840013b2:	83e5                	srli	a5,a5,0x19
ffffffff840013b4:	4505                	li	a0,1
ffffffff840013b6:	00d7fb63          	bgeu	a5,a3,ffffffff840013cc <create_device_untypeds+0x82>
ffffffff840013ba:	60e6                	ld	ra,88(sp)
ffffffff840013bc:	6446                	ld	s0,80(sp)
ffffffff840013be:	64a6                	ld	s1,72(sp)
ffffffff840013c0:	6906                	ld	s2,64(sp)
ffffffff840013c2:	79e2                	ld	s3,56(sp)
ffffffff840013c4:	7a42                	ld	s4,48(sp)
ffffffff840013c6:	7aa2                	ld	s5,40(sp)
ffffffff840013c8:	6125                	addi	sp,sp,96
ffffffff840013ca:	8082                	ret
ffffffff840013cc:	577d                	li	a4,-1
ffffffff840013ce:	02671793          	slli	a5,a4,0x26
ffffffff840013d2:	96be                	add	a3,a3,a5
ffffffff840013d4:	e836                	sd	a3,16(sp)
ffffffff840013d6:	8369                	srli	a4,a4,0x1a
ffffffff840013d8:	ec3a                	sd	a4,24(sp)
ffffffff840013da:	87d2                	mv	a5,s4
ffffffff840013dc:	4605                	li	a2,1
ffffffff840013de:	6502                	ld	a0,0(sp)
ffffffff840013e0:	65a2                	ld	a1,8(sp)
ffffffff840013e2:	e5bff0ef          	jal	ra,ffffffff8400123c <create_untypeds_for_region>
ffffffff840013e6:	d971                	beqz	a0,ffffffff840013ba <create_device_untypeds+0x70>
ffffffff840013e8:	4505                	li	a0,1
ffffffff840013ea:	bfc1                	j	ffffffff840013ba <create_device_untypeds+0x70>

ffffffff840013ec <create_kernel_untypeds>:
ffffffff840013ec:	715d                	addi	sp,sp,-80
ffffffff840013ee:	e486                	sd	ra,72(sp)
ffffffff840013f0:	e0a2                	sd	s0,64(sp)
ffffffff840013f2:	fc26                	sd	s1,56(sp)
ffffffff840013f4:	f84a                	sd	s2,48(sp)
ffffffff840013f6:	e82a                	sd	a0,16(sp)
ffffffff840013f8:	ec2e                	sd	a1,24(sp)
ffffffff840013fa:	8836                	mv	a6,a3
ffffffff840013fc:	84ba                	mv	s1,a4
ffffffff840013fe:	87ba                	mv	a5,a4
ffffffff84001400:	86b2                	mv	a3,a2
ffffffff84001402:	8742                	mv	a4,a6
ffffffff84001404:	4601                	li	a2,0
ffffffff84001406:	e37ff0ef          	jal	ra,ffffffff8400123c <create_untypeds_for_region>
ffffffff8400140a:	c915                	beqz	a0,ffffffff8400143e <create_kernel_untypeds+0x52>
ffffffff8400140c:	0000b417          	auipc	s0,0xb
ffffffff84001410:	32c40413          	addi	s0,s0,812 # ffffffff8400c738 <ndks_boot+0x338>
ffffffff84001414:	0000b917          	auipc	s2,0xb
ffffffff84001418:	42490913          	addi	s2,s2,1060 # ffffffff8400c838 <ndks_boot+0x438>
ffffffff8400141c:	6014                	ld	a3,0(s0)
ffffffff8400141e:	6418                	ld	a4,8(s0)
ffffffff84001420:	00043023          	sd	zero,0(s0)
ffffffff84001424:	00043423          	sd	zero,8(s0)
ffffffff84001428:	87a6                	mv	a5,s1
ffffffff8400142a:	4601                	li	a2,0
ffffffff8400142c:	6542                	ld	a0,16(sp)
ffffffff8400142e:	65e2                	ld	a1,24(sp)
ffffffff84001430:	e0dff0ef          	jal	ra,ffffffff8400123c <create_untypeds_for_region>
ffffffff84001434:	c509                	beqz	a0,ffffffff8400143e <create_kernel_untypeds+0x52>
ffffffff84001436:	0441                	addi	s0,s0,16
ffffffff84001438:	ff2412e3          	bne	s0,s2,ffffffff8400141c <create_kernel_untypeds+0x30>
ffffffff8400143c:	4505                	li	a0,1
ffffffff8400143e:	60a6                	ld	ra,72(sp)
ffffffff84001440:	6406                	ld	s0,64(sp)
ffffffff84001442:	74e2                	ld	s1,56(sp)
ffffffff84001444:	7942                	ld	s2,48(sp)
ffffffff84001446:	6161                	addi	sp,sp,80
ffffffff84001448:	8082                	ret

ffffffff8400144a <init_kernel>:
ffffffff8400144a:	7169                	addi	sp,sp,-304
ffffffff8400144c:	f606                	sd	ra,296(sp)
ffffffff8400144e:	f222                	sd	s0,288(sp)
ffffffff84001450:	ee26                	sd	s1,280(sp)
ffffffff84001452:	ea4a                	sd	s2,272(sp)
ffffffff84001454:	e64e                	sd	s3,264(sp)
ffffffff84001456:	e252                	sd	s4,256(sp)
ffffffff84001458:	fdd6                	sd	s5,248(sp)
ffffffff8400145a:	f9da                	sd	s6,240(sp)
ffffffff8400145c:	f5de                	sd	s7,232(sp)
ffffffff8400145e:	f1e2                	sd	s8,224(sp)
ffffffff84001460:	ede6                	sd	s9,216(sp)
ffffffff84001462:	e9ea                	sd	s10,208(sp)
ffffffff84001464:	e5ee                	sd	s11,200(sp)
ffffffff84001466:	8cb6                	mv	s9,a3
ffffffff84001468:	89ba                	mv	s3,a4
ffffffff8400146a:	28070f63          	beqz	a4,ffffffff84001708 <init_kernel+0x2be>
ffffffff8400146e:	5bfd                	li	s7,-1
ffffffff84001470:	1b9a                	slli	s7,s7,0x26
ffffffff84001472:	017504b3          	add	s1,a0,s7
ffffffff84001476:	01758433          	add	s0,a1,s7
ffffffff8400147a:	e8a6                	sd	s1,80(sp)
ffffffff8400147c:	eca2                	sd	s0,88(sp)
ffffffff8400147e:	02061b13          	slli	s6,a2,0x20
ffffffff84001482:	020b5b13          	srli	s6,s6,0x20
ffffffff84001486:	41650ab3          	sub	s5,a0,s6
ffffffff8400148a:	41658a33          	sub	s4,a1,s6
ffffffff8400148e:	6d09                	lui	s10,0x2
ffffffff84001490:	9d52                	add	s10,s10,s4
ffffffff84001492:	1782                	slli	a5,a5,0x20
ffffffff84001494:	9381                	srli	a5,a5,0x20
ffffffff84001496:	97ba                	add	a5,a5,a4
ffffffff84001498:	17fd                	addi	a5,a5,-1
ffffffff8400149a:	83b1                	srli	a5,a5,0xc
ffffffff8400149c:	0785                	addi	a5,a5,1
ffffffff8400149e:	07b2                	slli	a5,a5,0xc
ffffffff840014a0:	01770c33          	add	s8,a4,s7
ffffffff840014a4:	9bbe                	add	s7,s7,a5
ffffffff840014a6:	40e789b3          	sub	s3,a5,a4
ffffffff840014aa:	09c1                	addi	s3,s3,16
ffffffff840014ac:	a449                	j	ffffffff8400172e <init_kernel+0x2e4>
ffffffff840014ae:	6542                	ld	a0,16(sp)
ffffffff840014b0:	9faff0ef          	jal	ra,ffffffff840006aa <create_domain_cap>
ffffffff840014b4:	67c2                	ld	a5,16(sp)
ffffffff840014b6:	f53e                	sd	a5,168(sp)
ffffffff840014b8:	67e2                	ld	a5,24(sp)
ffffffff840014ba:	f93e                	sd	a5,176(sp)
ffffffff840014bc:	4485                	li	s1,1
ffffffff840014be:	4401                	li	s0,0
ffffffff840014c0:	03600913          	li	s2,54
ffffffff840014c4:	a019                	j	ffffffff840014ca <init_kernel+0x80>
ffffffff840014c6:	0405                	addi	s0,s0,1
ffffffff840014c8:	0485                	addi	s1,s1,1
ffffffff840014ca:	dc75                	beqz	s0,ffffffff840014c6 <init_kernel+0x7c>
ffffffff840014cc:	85a2                	mv	a1,s0
ffffffff840014ce:	4501                	li	a0,0
ffffffff840014d0:	712020ef          	jal	ra,ffffffff84003be2 <setIRQState>
ffffffff840014d4:	fe9979e3          	bgeu	s2,s1,ffffffff840014c6 <init_kernel+0x7c>
ffffffff840014d8:	03600593          	li	a1,54
ffffffff840014dc:	4509                	li	a0,2
ffffffff840014de:	704020ef          	jal	ra,ffffffff84003be2 <setIRQState>
ffffffff840014e2:	752a                	ld	a0,168(sp)
ffffffff840014e4:	75ca                	ld	a1,176(sp)
ffffffff840014e6:	363020ef          	jal	ra,ffffffff84004048 <cap_get_capPtr>
ffffffff840014ea:	479d                	li	a5,7
ffffffff840014ec:	17f2                	slli	a5,a5,0x3c
ffffffff840014ee:	e15c                	sd	a5,128(a0)
ffffffff840014f0:	08053423          	sd	zero,136(a0)
ffffffff840014f4:	08053823          	sd	zero,144(a0)
ffffffff840014f8:	478d                	li	a5,3
ffffffff840014fa:	ed5c                	sd	a5,152(a0)
ffffffff840014fc:	86ce                	mv	a3,s3
ffffffff840014fe:	8652                	mv	a2,s4
ffffffff84001500:	4585                	li	a1,1
ffffffff84001502:	4501                	li	a0,0
ffffffff84001504:	c99ff0ef          	jal	ra,ffffffff8400119c <populate_bi_frame>
ffffffff84001508:	1c0c1a63          	bnez	s8,ffffffff840016dc <init_kernel+0x292>
ffffffff8400150c:	013c7d63          	bgeu	s8,s3,ffffffff84001526 <init_kernel+0xdc>
ffffffff84001510:	0000b797          	auipc	a5,0xb
ffffffff84001514:	3687b783          	ld	a5,872(a5) # ffffffff8400c878 <rootserver+0x28>
ffffffff84001518:	97e2                	add	a5,a5,s8
ffffffff8400151a:	0007b023          	sd	zero,0(a5)
ffffffff8400151e:	41898c33          	sub	s8,s3,s8
ffffffff84001522:	0187b423          	sd	s8,8(a5)
ffffffff84001526:	8656                	mv	a2,s5
ffffffff84001528:	86ee                	mv	a3,s11
ffffffff8400152a:	6542                	ld	a0,16(sp)
ffffffff8400152c:	65e2                	ld	a1,24(sp)
ffffffff8400152e:	b76ff0ef          	jal	ra,ffffffff840008a4 <create_it_address_space>
ffffffff84001532:	f02a                	sd	a0,32(sp)
ffffffff84001534:	f42e                	sd	a1,40(sp)
ffffffff84001536:	916d                	srli	a0,a0,0x3b
ffffffff84001538:	2a050263          	beqz	a0,ffffffff840017dc <init_kernel+0x392>
ffffffff8400153c:	6405                	lui	s0,0x1
ffffffff8400153e:	9452                	add	s0,s0,s4
ffffffff84001540:	8722                	mv	a4,s0
ffffffff84001542:	7602                	ld	a2,32(sp)
ffffffff84001544:	86ae                	mv	a3,a1
ffffffff84001546:	6542                	ld	a0,16(sp)
ffffffff84001548:	65e2                	ld	a1,24(sp)
ffffffff8400154a:	984ff0ef          	jal	ra,ffffffff840006ce <create_bi_frame_cap>
ffffffff8400154e:	04098363          	beqz	s3,ffffffff84001594 <init_kernel+0x14a>
ffffffff84001552:	0000b797          	auipc	a5,0xb
ffffffff84001556:	3267b783          	ld	a5,806(a5) # ffffffff8400c878 <rootserver+0x28>
ffffffff8400155a:	00f98833          	add	a6,s3,a5
ffffffff8400155e:	ed42                	sd	a6,152(sp)
ffffffff84001560:	e93e                	sd	a5,144(sp)
ffffffff84001562:	4705                	li	a4,1
ffffffff84001564:	171a                	slli	a4,a4,0x26
ffffffff84001566:	973e                	add	a4,a4,a5
ffffffff84001568:	41a70d33          	sub	s10,a4,s10
ffffffff8400156c:	e06a                	sd	s10,0(sp)
ffffffff8400156e:	4885                	li	a7,1
ffffffff84001570:	7682                	ld	a3,32(sp)
ffffffff84001572:	7722                	ld	a4,40(sp)
ffffffff84001574:	65c2                	ld	a1,16(sp)
ffffffff84001576:	6662                	ld	a2,24(sp)
ffffffff84001578:	1128                	addi	a0,sp,168
ffffffff8400157a:	9faff0ef          	jal	ra,ffffffff84000774 <create_frames_of_region>
ffffffff8400157e:	77ea                	ld	a5,184(sp)
ffffffff84001580:	24078e63          	beqz	a5,ffffffff840017dc <init_kernel+0x392>
ffffffff84001584:	0000b797          	auipc	a5,0xb
ffffffff84001588:	2b47b783          	ld	a5,692(a5) # ffffffff8400c838 <ndks_boot+0x438>
ffffffff8400158c:	772a                	ld	a4,168(sp)
ffffffff8400158e:	ffb8                	sd	a4,120(a5)
ffffffff84001590:	774a                	ld	a4,176(sp)
ffffffff84001592:	e3d8                	sd	a4,128(a5)
ffffffff84001594:	4605                	li	a2,1
ffffffff84001596:	6542                	ld	a0,16(sp)
ffffffff84001598:	65e2                	ld	a1,24(sp)
ffffffff8400159a:	aa8ff0ef          	jal	ra,ffffffff84000842 <init_sched_control>
ffffffff8400159e:	8752                	mv	a4,s4
ffffffff840015a0:	7602                	ld	a2,32(sp)
ffffffff840015a2:	76a2                	ld	a3,40(sp)
ffffffff840015a4:	6542                	ld	a0,16(sp)
ffffffff840015a6:	65e2                	ld	a1,24(sp)
ffffffff840015a8:	eaeff0ef          	jal	ra,ffffffff84000c56 <create_ipcbuf_frame_cap>
ffffffff840015ac:	e0aa                	sd	a0,64(sp)
ffffffff840015ae:	e4ae                	sd	a1,72(sp)
ffffffff840015b0:	916d                	srli	a0,a0,0x3b
ffffffff840015b2:	22050563          	beqz	a0,ffffffff840017dc <init_kernel+0x392>
ffffffff840015b6:	e05a                	sd	s6,0(sp)
ffffffff840015b8:	4885                	li	a7,1
ffffffff840015ba:	67c6                	ld	a5,80(sp)
ffffffff840015bc:	6866                	ld	a6,88(sp)
ffffffff840015be:	7682                	ld	a3,32(sp)
ffffffff840015c0:	7722                	ld	a4,40(sp)
ffffffff840015c2:	65c2                	ld	a1,16(sp)
ffffffff840015c4:	6662                	ld	a2,24(sp)
ffffffff840015c6:	0908                	addi	a0,sp,144
ffffffff840015c8:	9acff0ef          	jal	ra,ffffffff84000774 <create_frames_of_region>
ffffffff840015cc:	778a                	ld	a5,160(sp)
ffffffff840015ce:	20078763          	beqz	a5,ffffffff840017dc <init_kernel+0x392>
ffffffff840015d2:	0000b797          	auipc	a5,0xb
ffffffff840015d6:	2667b783          	ld	a5,614(a5) # ffffffff8400c838 <ndks_boot+0x438>
ffffffff840015da:	674a                	ld	a4,144(sp)
ffffffff840015dc:	e7b8                	sd	a4,72(a5)
ffffffff840015de:	676a                	ld	a4,152(sp)
ffffffff840015e0:	ebb8                	sd	a4,80(a5)
ffffffff840015e2:	6542                	ld	a0,16(sp)
ffffffff840015e4:	65e2                	ld	a1,24(sp)
ffffffff840015e6:	c06ff0ef          	jal	ra,ffffffff840009ec <create_it_asid_pool>
ffffffff840015ea:	f82a                	sd	a0,48(sp)
ffffffff840015ec:	fc2e                	sd	a1,56(sp)
ffffffff840015ee:	03b55793          	srli	a5,a0,0x3b
ffffffff840015f2:	1e078563          	beqz	a5,ffffffff840017dc <init_kernel+0x392>
ffffffff840015f6:	7602                	ld	a2,32(sp)
ffffffff840015f8:	76a2                	ld	a3,40(sp)
ffffffff840015fa:	87eff0ef          	jal	ra,ffffffff84000678 <write_it_asid_pool>
ffffffff840015fe:	c01027f3          	rdtime	a5
ffffffff84001602:	0001e717          	auipc	a4,0x1e
ffffffff84001606:	22f73723          	sd	a5,558(a4) # ffffffff8401f830 <ksCurTime>
ffffffff8400160a:	e04ff0ef          	jal	ra,ffffffff84000c0e <create_idle_thread>
ffffffff8400160e:	1c050763          	beqz	a0,ffffffff840017dc <init_kernel+0x392>
ffffffff84001612:	67a6                	ld	a5,72(sp)
ffffffff84001614:	e03e                	sd	a5,0(sp)
ffffffff84001616:	6886                	ld	a7,64(sp)
ffffffff84001618:	8852                	mv	a6,s4
ffffffff8400161a:	87a2                	mv	a5,s0
ffffffff8400161c:	8766                	mv	a4,s9
ffffffff8400161e:	7602                	ld	a2,32(sp)
ffffffff84001620:	76a2                	ld	a3,40(sp)
ffffffff84001622:	6542                	ld	a0,16(sp)
ffffffff84001624:	65e2                	ld	a1,24(sp)
ffffffff84001626:	c28ff0ef          	jal	ra,ffffffff84000a4e <create_initial_thread>
ffffffff8400162a:	1a050963          	beqz	a0,ffffffff840017dc <init_kernel+0x392>
ffffffff8400162e:	ecffe0ef          	jal	ra,ffffffff840004fc <init_core_state>
ffffffff84001632:	6542                	ld	a0,16(sp)
ffffffff84001634:	f8aa                	sd	a0,112(sp)
ffffffff84001636:	65e2                	ld	a1,24(sp)
ffffffff84001638:	fcae                	sd	a1,120(sp)
ffffffff8400163a:	ff0217b7          	lui	a5,0xff021
ffffffff8400163e:	07ba                	slli	a5,a5,0xe
ffffffff84001640:	e13e                	sd	a5,128(sp)
ffffffff84001642:	00001797          	auipc	a5,0x1
ffffffff84001646:	9be78793          	addi	a5,a5,-1602 # ffffffff84002000 <ki_boot_end>
ffffffff8400164a:	fc100713          	li	a4,-63
ffffffff8400164e:	1702                	slli	a4,a4,0x20
ffffffff84001650:	97ba                	add	a5,a5,a4
ffffffff84001652:	e53e                	sd	a5,136(sp)
ffffffff84001654:	0000b497          	auipc	s1,0xb
ffffffff84001658:	dac48493          	addi	s1,s1,-596 # ffffffff8400c400 <ndks_boot>
ffffffff8400165c:	4404b403          	ld	s0,1088(s1)
ffffffff84001660:	8622                	mv	a2,s0
ffffffff84001662:	ce9ff0ef          	jal	ra,ffffffff8400134a <create_device_untypeds>
ffffffff84001666:	8722                	mv	a4,s0
ffffffff84001668:	660a                	ld	a2,128(sp)
ffffffff8400166a:	66aa                	ld	a3,136(sp)
ffffffff8400166c:	7546                	ld	a0,112(sp)
ffffffff8400166e:	75e6                	ld	a1,120(sp)
ffffffff84001670:	d7dff0ef          	jal	ra,ffffffff840013ec <create_kernel_untypeds>
ffffffff84001674:	4404b703          	ld	a4,1088(s1)
ffffffff84001678:	4384b783          	ld	a5,1080(s1)
ffffffff8400167c:	f7c0                	sd	s0,168(a5)
ffffffff8400167e:	fbd8                	sd	a4,176(a5)
ffffffff84001680:	14050e63          	beqz	a0,ffffffff840017dc <init_kernel+0x392>
ffffffff84001684:	0000b797          	auipc	a5,0xb
ffffffff84001688:	1b47b783          	ld	a5,436(a5) # ffffffff8400c838 <ndks_boot+0x438>
ffffffff8400168c:	0207bc23          	sd	zero,56(a5)
ffffffff84001690:	0407b023          	sd	zero,64(a5)
ffffffff84001694:	eb5fe0ef          	jal	ra,ffffffff84000548 <bi_finalise>
ffffffff84001698:	4785                	li	a5,1
ffffffff8400169a:	0001e717          	auipc	a4,0x1e
ffffffff8400169e:	1cf73723          	sd	a5,462(a4) # ffffffff8401f868 <ksNumCPUs>
ffffffff840016a2:	c01027f3          	rdtime	a5
ffffffff840016a6:	0001e717          	auipc	a4,0x1e
ffffffff840016aa:	18f73523          	sd	a5,394(a4) # ffffffff8401f830 <ksCurTime>
ffffffff840016ae:	0001e797          	auipc	a5,0x1e
ffffffff840016b2:	1807b923          	sd	zero,402(a5) # ffffffff8401f840 <ksConsumed>
ffffffff840016b6:	098090ef          	jal	ra,ffffffff8400a74e <schedule>
ffffffff840016ba:	4d6030ef          	jal	ra,ffffffff84004b90 <activateThread>
ffffffff840016be:	70b2                	ld	ra,296(sp)
ffffffff840016c0:	7412                	ld	s0,288(sp)
ffffffff840016c2:	64f2                	ld	s1,280(sp)
ffffffff840016c4:	6952                	ld	s2,272(sp)
ffffffff840016c6:	69b2                	ld	s3,264(sp)
ffffffff840016c8:	6a12                	ld	s4,256(sp)
ffffffff840016ca:	7aee                	ld	s5,248(sp)
ffffffff840016cc:	7b4e                	ld	s6,240(sp)
ffffffff840016ce:	7bae                	ld	s7,232(sp)
ffffffff840016d0:	7c0e                	ld	s8,224(sp)
ffffffff840016d2:	6cee                	ld	s9,216(sp)
ffffffff840016d4:	6d4e                	ld	s10,208(sp)
ffffffff840016d6:	6dae                	ld	s11,200(sp)
ffffffff840016d8:	6155                	addi	sp,sp,304
ffffffff840016da:	8082                	ret
ffffffff840016dc:	0000b797          	auipc	a5,0xb
ffffffff840016e0:	d2478793          	addi	a5,a5,-732 # ffffffff8400c400 <ndks_boot>
ffffffff840016e4:	4787b703          	ld	a4,1144(a5)
ffffffff840016e8:	4699                	li	a3,6
ffffffff840016ea:	e314                	sd	a3,0(a4)
ffffffff840016ec:	01373423          	sd	s3,8(a4)
ffffffff840016f0:	418b8bb3          	sub	s7,s7,s8
ffffffff840016f4:	4787b503          	ld	a0,1144(a5)
ffffffff840016f8:	865e                	mv	a2,s7
ffffffff840016fa:	85e2                	mv	a1,s8
ffffffff840016fc:	0541                	addi	a0,a0,16
ffffffff840016fe:	5fd080ef          	jal	ra,ffffffff8400a4fa <memcpy>
ffffffff84001702:	010b8c13          	addi	s8,s7,16
ffffffff84001706:	b519                	j	ffffffff8400150c <init_kernel+0xc2>
ffffffff84001708:	547d                	li	s0,-1
ffffffff8400170a:	141a                	slli	s0,s0,0x26
ffffffff8400170c:	008504b3          	add	s1,a0,s0
ffffffff84001710:	942e                	add	s0,s0,a1
ffffffff84001712:	e8a6                	sd	s1,80(sp)
ffffffff84001714:	eca2                	sd	s0,88(sp)
ffffffff84001716:	02061b13          	slli	s6,a2,0x20
ffffffff8400171a:	020b5b13          	srli	s6,s6,0x20
ffffffff8400171e:	41650ab3          	sub	s5,a0,s6
ffffffff84001722:	41658a33          	sub	s4,a1,s6
ffffffff84001726:	6d09                	lui	s10,0x2
ffffffff84001728:	9d52                	add	s10,s10,s4
ffffffff8400172a:	8bba                	mv	s7,a4
ffffffff8400172c:	8c3a                	mv	s8,a4
ffffffff8400172e:	854e                	mv	a0,s3
ffffffff84001730:	a33ff0ef          	jal	ra,ffffffff84001162 <calculate_extra_bi_size_bits>
ffffffff84001734:	892a                	mv	s2,a0
ffffffff84001736:	4d85                	li	s11,1
ffffffff84001738:	00ad9db3          	sll	s11,s11,a0
ffffffff8400173c:	9dea                	add	s11,s11,s10
ffffffff8400173e:	c37fe0ef          	jal	ra,ffffffff84000374 <map_kernel_window>
ffffffff84001742:	a21fe0ef          	jal	ra,ffffffff84000162 <activate_kernel_vspace>
ffffffff84001746:	00001797          	auipc	a5,0x1
ffffffff8400174a:	8ba78793          	addi	a5,a5,-1862 # ffffffff84002000 <ki_boot_end>
ffffffff8400174e:	10579073          	csrw	stvec,a5
ffffffff84001752:	a47fe0ef          	jal	ra,ffffffff84000198 <initLocalIRQController>
ffffffff84001756:	6799                	lui	a5,0x6
ffffffff84001758:	1007b073          	csrc	sstatus,a5
ffffffff8400175c:	a81fe0ef          	jal	ra,ffffffff840001dc <initIRQController>
ffffffff84001760:	f556                	sd	s5,168(sp)
ffffffff84001762:	f96e                	sd	s11,176(sp)
ffffffff84001764:	00000697          	auipc	a3,0x0
ffffffff84001768:	38c68693          	addi	a3,a3,908 # ffffffff84001af0 <avail_reg>
ffffffff8400176c:	ff0217b7          	lui	a5,0xff021
ffffffff84001770:	07ba                	slli	a5,a5,0xe
ffffffff84001772:	10f6b023          	sd	a5,256(a3)
ffffffff84001776:	00024797          	auipc	a5,0x24
ffffffff8400177a:	88a78793          	addi	a5,a5,-1910 # ffffffff84025000 <ki_end>
ffffffff8400177e:	fc100713          	li	a4,-63
ffffffff84001782:	1702                	slli	a4,a4,0x20
ffffffff84001784:	97ba                	add	a5,a5,a4
ffffffff84001786:	10f6b423          	sd	a5,264(a3)
ffffffff8400178a:	4605                	li	a2,1
ffffffff8400178c:	000c0763          	beqz	s8,ffffffff8400179a <init_kernel+0x350>
ffffffff84001790:	1186b823          	sd	s8,272(a3)
ffffffff84001794:	1176bc23          	sd	s7,280(a3)
ffffffff84001798:	4609                	li	a2,2
ffffffff8400179a:	00461713          	slli	a4,a2,0x4
ffffffff8400179e:	00000797          	auipc	a5,0x0
ffffffff840017a2:	35278793          	addi	a5,a5,850 # ffffffff84001af0 <avail_reg>
ffffffff840017a6:	97ba                	add	a5,a5,a4
ffffffff840017a8:	1097b023          	sd	s1,256(a5)
ffffffff840017ac:	1087b423          	sd	s0,264(a5)
ffffffff840017b0:	884a                	mv	a6,s2
ffffffff840017b2:	772a                	ld	a4,168(sp)
ffffffff840017b4:	77ca                	ld	a5,176(sp)
ffffffff840017b6:	00000697          	auipc	a3,0x0
ffffffff840017ba:	43a68693          	addi	a3,a3,1082 # ffffffff84001bf0 <res_reg>
ffffffff840017be:	0605                	addi	a2,a2,1
ffffffff840017c0:	00000597          	auipc	a1,0x0
ffffffff840017c4:	02058593          	addi	a1,a1,32 # ffffffff840017e0 <avail_p_regs>
ffffffff840017c8:	4505                	li	a0,1
ffffffff840017ca:	e40ff0ef          	jal	ra,ffffffff84000e0a <init_freemem>
ffffffff840017ce:	cf3fe0ef          	jal	ra,ffffffff840004c0 <create_root_cnode>
ffffffff840017d2:	e82a                	sd	a0,16(sp)
ffffffff840017d4:	ec2e                	sd	a1,24(sp)
ffffffff840017d6:	916d                	srli	a0,a0,0x3b
ffffffff840017d8:	cc051be3          	bnez	a0,ffffffff840014ae <init_kernel+0x64>
ffffffff840017dc:	289000ef          	jal	ra,ffffffff84002264 <halt>

Disassembly of section .text:

ffffffff84002000 <ki_boot_end>:
ffffffff84002000:	140292f3          	csrrw	t0,sscratch,t0
ffffffff84002004:	0012b023          	sd	ra,0(t0)
ffffffff84002008:	0022b423          	sd	sp,8(t0)
ffffffff8400200c:	0032b823          	sd	gp,16(t0)
ffffffff84002010:	0042bc23          	sd	tp,24(t0)
ffffffff84002014:	0262b423          	sd	t1,40(t0)
ffffffff84002018:	0272b823          	sd	t2,48(t0)
ffffffff8400201c:	0282bc23          	sd	s0,56(t0)
ffffffff84002020:	0492b023          	sd	s1,64(t0)
ffffffff84002024:	04a2b423          	sd	a0,72(t0)
ffffffff84002028:	04b2b823          	sd	a1,80(t0)
ffffffff8400202c:	04c2bc23          	sd	a2,88(t0)
ffffffff84002030:	06d2b023          	sd	a3,96(t0)
ffffffff84002034:	06e2b423          	sd	a4,104(t0)
ffffffff84002038:	06f2b823          	sd	a5,112(t0)
ffffffff8400203c:	0702bc23          	sd	a6,120(t0)
ffffffff84002040:	0912b023          	sd	a7,128(t0)
ffffffff84002044:	0922b423          	sd	s2,136(t0)
ffffffff84002048:	0932b823          	sd	s3,144(t0)
ffffffff8400204c:	0942bc23          	sd	s4,152(t0)
ffffffff84002050:	0b52b023          	sd	s5,160(t0)
ffffffff84002054:	0b62b423          	sd	s6,168(t0)
ffffffff84002058:	0b72b823          	sd	s7,176(t0)
ffffffff8400205c:	0b82bc23          	sd	s8,184(t0)
ffffffff84002060:	0d92b023          	sd	s9,192(t0)
ffffffff84002064:	0da2b423          	sd	s10,200(t0)
ffffffff84002068:	0db2b823          	sd	s11,208(t0)
ffffffff8400206c:	0dc2bc23          	sd	t3,216(t0)
ffffffff84002070:	0fd2b023          	sd	t4,224(t0)
ffffffff84002074:	0fe2b423          	sd	t5,232(t0)
ffffffff84002078:	0ff2b823          	sd	t6,240(t0)
ffffffff8400207c:	140020f3          	csrr	ra,sscratch
ffffffff84002080:	0212b023          	sd	ra,32(t0)
ffffffff84002084:	100020f3          	csrr	ra,sstatus
ffffffff84002088:	1012b023          	sd	ra,256(t0)
ffffffff8400208c:	14202473          	csrr	s0,scause
ffffffff84002090:	0e82bc23          	sd	s0,248(t0)
ffffffff84002094:	00018193          	mv	gp,gp
ffffffff84002098:	0001d117          	auipc	sp,0x1d
ffffffff8400209c:	76810113          	addi	sp,sp,1896 # ffffffff8401f800 <tlbLockCount>
ffffffff840020a0:	141020f3          	csrr	ra,sepc
ffffffff840020a4:	1012b423          	sd	ra,264(t0)
ffffffff840020a8:	00044e63          	bltz	s0,ffffffff840020c4 <interrupt>
ffffffff840020ac:	4a21                	li	s4,8
ffffffff840020ae:	01441763          	bne	s0,s4,ffffffff840020bc <exception>

ffffffff840020b2 <syscall>:
ffffffff840020b2:	0091                	addi	ra,ra,4
ffffffff840020b4:	1012b823          	sd	ra,272(t0)
ffffffff840020b8:	7de0906f          	j	ffffffff8400b896 <c_handle_syscall>

ffffffff840020bc <exception>:
ffffffff840020bc:	1012b823          	sd	ra,272(t0)
ffffffff840020c0:	43f0806f          	j	ffffffff8400acfe <c_handle_exception>

ffffffff840020c4 <interrupt>:
ffffffff840020c4:	1012b823          	sd	ra,272(t0)
ffffffff840020c8:	18d0806f          	j	ffffffff8400aa54 <c_handle_interrupt>

ffffffff840020cc <idle_thread>:
ffffffff840020cc:	10500073          	wfi
ffffffff840020d0:	bff5                	j	ffffffff840020cc <idle_thread>

ffffffff840020d2 <pte_next>:
ffffffff840020d2:	00b035b3          	snez	a1,a1
ffffffff840020d6:	8109                	srli	a0,a0,0x2
ffffffff840020d8:	fff007b7          	lui	a5,0xfff00
ffffffff840020dc:	83a9                	srli	a5,a5,0xa
ffffffff840020de:	8d7d                	and	a0,a0,a5
ffffffff840020e0:	00359793          	slli	a5,a1,0x3
ffffffff840020e4:	00259713          	slli	a4,a1,0x2
ffffffff840020e8:	8fd9                	or	a5,a5,a4
ffffffff840020ea:	8d5d                	or	a0,a0,a5
ffffffff840020ec:	0586                	slli	a1,a1,0x1
ffffffff840020ee:	8d4d                	or	a0,a0,a1
ffffffff840020f0:	0e156513          	ori	a0,a0,225
ffffffff840020f4:	8082                	ret

ffffffff840020f6 <findVSpaceForASID>:
ffffffff840020f6:	1141                	addi	sp,sp,-16
ffffffff840020f8:	00955793          	srli	a5,a0,0x9
ffffffff840020fc:	00379713          	slli	a4,a5,0x3
ffffffff84002100:	0000b797          	auipc	a5,0xb
ffffffff84002104:	f0078793          	addi	a5,a5,-256 # ffffffff8400d000 <riscvKSASIDTable>
ffffffff84002108:	97ba                	add	a5,a5,a4
ffffffff8400210a:	639c                	ld	a5,0(a5)
ffffffff8400210c:	cf89                	beqz	a5,ffffffff84002126 <findVSpaceForASID+0x30>
ffffffff8400210e:	1ff57513          	andi	a0,a0,511
ffffffff84002112:	050e                	slli	a0,a0,0x3
ffffffff84002114:	953e                	add	a0,a0,a5
ffffffff84002116:	611c                	ld	a5,0(a0)
ffffffff84002118:	c39d                	beqz	a5,ffffffff8400213e <findVSpaceForASID+0x48>
ffffffff8400211a:	e002                	sd	zero,0(sp)
ffffffff8400211c:	e43e                	sd	a5,8(sp)
ffffffff8400211e:	6502                	ld	a0,0(sp)
ffffffff84002120:	65a2                	ld	a1,8(sp)
ffffffff84002122:	0141                	addi	sp,sp,16
ffffffff84002124:	8082                	ret
ffffffff84002126:	0000b797          	auipc	a5,0xb
ffffffff8400212a:	eda78793          	addi	a5,a5,-294 # ffffffff8400d000 <riscvKSASIDTable>
ffffffff8400212e:	4007b023          	sd	zero,1024(a5)
ffffffff84002132:	4007b423          	sd	zero,1032(a5)
ffffffff84002136:	4789                	li	a5,2
ffffffff84002138:	e03e                	sd	a5,0(sp)
ffffffff8400213a:	e402                	sd	zero,8(sp)
ffffffff8400213c:	b7cd                	j	ffffffff8400211e <findVSpaceForASID+0x28>
ffffffff8400213e:	0000b797          	auipc	a5,0xb
ffffffff84002142:	ec278793          	addi	a5,a5,-318 # ffffffff8400d000 <riscvKSASIDTable>
ffffffff84002146:	4007b023          	sd	zero,1024(a5)
ffffffff8400214a:	4007b423          	sd	zero,1032(a5)
ffffffff8400214e:	4789                	li	a5,2
ffffffff84002150:	e03e                	sd	a5,0(sp)
ffffffff84002152:	e402                	sd	zero,8(sp)
ffffffff84002154:	b7e9                	j	ffffffff8400211e <findVSpaceForASID+0x28>

ffffffff84002156 <getNewActiveIRQ>:
ffffffff84002156:	14402573          	csrr	a0,sip
ffffffff8400215a:	20057793          	andi	a5,a0,512
ffffffff8400215e:	e789                	bnez	a5,ffffffff84002168 <getNewActiveIRQ+0x12>
ffffffff84002160:	02057513          	andi	a0,a0,32
ffffffff84002164:	e901                	bnez	a0,ffffffff84002174 <getNewActiveIRQ+0x1e>
ffffffff84002166:	8082                	ret
ffffffff84002168:	c02027b7          	lui	a5,0xc0202
ffffffff8400216c:	43c8                	lw	a0,4(a5)
ffffffff8400216e:	1502                	slli	a0,a0,0x20
ffffffff84002170:	9101                	srli	a0,a0,0x20
ffffffff84002172:	8082                	ret
ffffffff84002174:	03600513          	li	a0,54
ffffffff84002178:	b7fd                	j	ffffffff84002166 <getNewActiveIRQ+0x10>

ffffffff8400217a <validFaultHandler>:
ffffffff8400217a:	1141                	addi	sp,sp,-16
ffffffff8400217c:	03b55793          	srli	a5,a0,0x3b
ffffffff84002180:	cf8d                	beqz	a5,ffffffff840021ba <validFaultHandler+0x40>
ffffffff84002182:	4711                	li	a4,4
ffffffff84002184:	02e79363          	bne	a5,a4,ffffffff840021aa <validFaultHandler+0x30>
ffffffff84002188:	03755793          	srli	a5,a0,0x37
ffffffff8400218c:	8b85                	andi	a5,a5,1
ffffffff8400218e:	c799                	beqz	a5,ffffffff8400219c <validFaultHandler+0x22>
ffffffff84002190:	03955793          	srli	a5,a0,0x39
ffffffff84002194:	9169                	srli	a0,a0,0x3a
ffffffff84002196:	8d5d                	or	a0,a0,a5
ffffffff84002198:	8905                	andi	a0,a0,1
ffffffff8400219a:	ed11                	bnez	a0,ffffffff840021b6 <validFaultHandler+0x3c>
ffffffff8400219c:	4789                	li	a5,2
ffffffff8400219e:	0000b717          	auipc	a4,0xb
ffffffff840021a2:	2af73123          	sd	a5,674(a4) # ffffffff8400d440 <current_syscall_error+0x30>
ffffffff840021a6:	4501                	li	a0,0
ffffffff840021a8:	a039                	j	ffffffff840021b6 <validFaultHandler+0x3c>
ffffffff840021aa:	4789                	li	a5,2
ffffffff840021ac:	0000b717          	auipc	a4,0xb
ffffffff840021b0:	28f73a23          	sd	a5,660(a4) # ffffffff8400d440 <current_syscall_error+0x30>
ffffffff840021b4:	4501                	li	a0,0
ffffffff840021b6:	0141                	addi	sp,sp,16
ffffffff840021b8:	8082                	ret
ffffffff840021ba:	4505                	li	a0,1
ffffffff840021bc:	bfed                	j	ffffffff840021b6 <validFaultHandler+0x3c>

ffffffff840021be <restore_user_context>:
ffffffff840021be:	0001d797          	auipc	a5,0x1d
ffffffff840021c2:	69a7b783          	ld	a5,1690(a5) # ffffffff8401f858 <ksCurThread>
ffffffff840021c6:	82be                	mv	t0,a5
ffffffff840021c8:	0002b083          	ld	ra,0(t0)
ffffffff840021cc:	0082b103          	ld	sp,8(t0)
ffffffff840021d0:	0102b183          	ld	gp,16(t0)
ffffffff840021d4:	1802a02f          	sc.w	zero,zero,(t0)
ffffffff840021d8:	0302b383          	ld	t2,48(t0)
ffffffff840021dc:	0382b403          	ld	s0,56(t0)
ffffffff840021e0:	0402b483          	ld	s1,64(t0)
ffffffff840021e4:	0482b503          	ld	a0,72(t0)
ffffffff840021e8:	0502b583          	ld	a1,80(t0)
ffffffff840021ec:	0582b603          	ld	a2,88(t0)
ffffffff840021f0:	0602b683          	ld	a3,96(t0)
ffffffff840021f4:	0682b703          	ld	a4,104(t0)
ffffffff840021f8:	0702b783          	ld	a5,112(t0)
ffffffff840021fc:	0782b803          	ld	a6,120(t0)
ffffffff84002200:	0802b883          	ld	a7,128(t0)
ffffffff84002204:	0882b903          	ld	s2,136(t0)
ffffffff84002208:	0902b983          	ld	s3,144(t0)
ffffffff8400220c:	0982ba03          	ld	s4,152(t0)
ffffffff84002210:	0a02ba83          	ld	s5,160(t0)
ffffffff84002214:	0a82bb03          	ld	s6,168(t0)
ffffffff84002218:	0b02bb83          	ld	s7,176(t0)
ffffffff8400221c:	0b82bc03          	ld	s8,184(t0)
ffffffff84002220:	0c02bc83          	ld	s9,192(t0)
ffffffff84002224:	0c82bd03          	ld	s10,200(t0)
ffffffff84002228:	0d02bd83          	ld	s11,208(t0)
ffffffff8400222c:	0d82be03          	ld	t3,216(t0)
ffffffff84002230:	0e02be83          	ld	t4,224(t0)
ffffffff84002234:	0e82bf03          	ld	t5,232(t0)
ffffffff84002238:	0f02bf83          	ld	t6,240(t0)
ffffffff8400223c:	0182b303          	ld	t1,24(t0)
ffffffff84002240:	00030233          	add	tp,t1,zero
ffffffff84002244:	1102b303          	ld	t1,272(t0)
ffffffff84002248:	14131073          	csrw	sepc,t1
ffffffff8400224c:	14029073          	csrw	sscratch,t0
ffffffff84002250:	1002b303          	ld	t1,256(t0)
ffffffff84002254:	10031073          	csrw	sstatus,t1
ffffffff84002258:	0282b303          	ld	t1,40(t0)
ffffffff8400225c:	0202b283          	ld	t0,32(t0)
ffffffff84002260:	10200073          	sret

ffffffff84002264 <halt>:
ffffffff84002264:	4501                	li	a0,0
ffffffff84002266:	4581                	li	a1,0
ffffffff84002268:	4601                	li	a2,0
ffffffff8400226a:	48a1                	li	a7,8
ffffffff8400226c:	00000073          	ecall

ffffffff84002270 <setMRs_lookup_failure>:
ffffffff84002270:	1101                	addi	sp,sp,-32
ffffffff84002272:	ec06                	sd	ra,24(sp)
ffffffff84002274:	88aa                	mv	a7,a0
ffffffff84002276:	e436                	sd	a3,8(sp)
ffffffff84002278:	00367793          	andi	a5,a2,3
ffffffff8400227c:	00178813          	addi	a6,a5,1
ffffffff84002280:	468d                	li	a3,3
ffffffff84002282:	04e6fd63          	bgeu	a3,a4,ffffffff840022dc <setMRs_lookup_failure+0x6c>
ffffffff84002286:	cda5                	beqz	a1,ffffffff840022fe <setMRs_lookup_failure+0x8e>
ffffffff84002288:	0017069b          	addiw	a3,a4,1
ffffffff8400228c:	0006851b          	sext.w	a0,a3
ffffffff84002290:	1682                	slli	a3,a3,0x20
ffffffff84002292:	9281                	srli	a3,a3,0x20
ffffffff84002294:	068e                	slli	a3,a3,0x3
ffffffff84002296:	96ae                	add	a3,a3,a1
ffffffff84002298:	0106b023          	sd	a6,0(a3)
ffffffff8400229c:	4689                	li	a3,2
ffffffff8400229e:	08d78163          	beq	a5,a3,ffffffff84002320 <setMRs_lookup_failure+0xb0>
ffffffff840022a2:	0ef6eb63          	bltu	a3,a5,ffffffff84002398 <setMRs_lookup_failure+0x128>
ffffffff840022a6:	cb85                	beqz	a5,ffffffff840022d6 <setMRs_lookup_failure+0x66>
ffffffff840022a8:	4685                	li	a3,1
ffffffff840022aa:	1ad79763          	bne	a5,a3,ffffffff84002458 <setMRs_lookup_failure+0x1e8>
ffffffff840022ae:	0017079b          	addiw	a5,a4,1
ffffffff840022b2:	0007851b          	sext.w	a0,a5
ffffffff840022b6:	8209                	srli	a2,a2,0x2
ffffffff840022b8:	07f67613          	andi	a2,a2,127
ffffffff840022bc:	468d                	li	a3,3
ffffffff840022be:	04a6f263          	bgeu	a3,a0,ffffffff84002302 <setMRs_lookup_failure+0x92>
ffffffff840022c2:	18058d63          	beqz	a1,ffffffff8400245c <setMRs_lookup_failure+0x1ec>
ffffffff840022c6:	2709                	addiw	a4,a4,2
ffffffff840022c8:	0007051b          	sext.w	a0,a4
ffffffff840022cc:	1702                	slli	a4,a4,0x20
ffffffff840022ce:	9301                	srli	a4,a4,0x20
ffffffff840022d0:	070e                	slli	a4,a4,0x3
ffffffff840022d2:	95ba                	add	a1,a1,a4
ffffffff840022d4:	e190                	sd	a2,0(a1)
ffffffff840022d6:	60e2                	ld	ra,24(sp)
ffffffff840022d8:	6105                	addi	sp,sp,32
ffffffff840022da:	8082                	ret
ffffffff840022dc:	02071513          	slli	a0,a4,0x20
ffffffff840022e0:	9101                	srli	a0,a0,0x20
ffffffff840022e2:	00009697          	auipc	a3,0x9
ffffffff840022e6:	64668693          	addi	a3,a3,1606 # ffffffff8400b928 <msgRegisters>
ffffffff840022ea:	96aa                	add	a3,a3,a0
ffffffff840022ec:	0006c683          	lbu	a3,0(a3)
ffffffff840022f0:	068e                	slli	a3,a3,0x3
ffffffff840022f2:	96c6                	add	a3,a3,a7
ffffffff840022f4:	0106b023          	sd	a6,0(a3)
ffffffff840022f8:	0017051b          	addiw	a0,a4,1
ffffffff840022fc:	b745                	j	ffffffff8400229c <setMRs_lookup_failure+0x2c>
ffffffff840022fe:	4511                	li	a0,4
ffffffff84002300:	bf71                	j	ffffffff8400229c <setMRs_lookup_failure+0x2c>
ffffffff84002302:	1782                	slli	a5,a5,0x20
ffffffff84002304:	9381                	srli	a5,a5,0x20
ffffffff84002306:	00009697          	auipc	a3,0x9
ffffffff8400230a:	62268693          	addi	a3,a3,1570 # ffffffff8400b928 <msgRegisters>
ffffffff8400230e:	97b6                	add	a5,a5,a3
ffffffff84002310:	0007c503          	lbu	a0,0(a5)
ffffffff84002314:	050e                	slli	a0,a0,0x3
ffffffff84002316:	9546                	add	a0,a0,a7
ffffffff84002318:	e110                	sd	a2,0(a0)
ffffffff8400231a:	0027051b          	addiw	a0,a4,2
ffffffff8400231e:	bf65                	j	ffffffff840022d6 <setMRs_lookup_failure+0x66>
ffffffff84002320:	0017051b          	addiw	a0,a4,1
ffffffff84002324:	0005081b          	sext.w	a6,a0
ffffffff84002328:	00265793          	srli	a5,a2,0x2
ffffffff8400232c:	07f7f693          	andi	a3,a5,127
ffffffff84002330:	478d                	li	a5,3
ffffffff84002332:	0307fc63          	bgeu	a5,a6,ffffffff8400236a <setMRs_lookup_failure+0xfa>
ffffffff84002336:	12058563          	beqz	a1,ffffffff84002460 <setMRs_lookup_failure+0x1f0>
ffffffff8400233a:	0027079b          	addiw	a5,a4,2
ffffffff8400233e:	0007881b          	sext.w	a6,a5
ffffffff84002342:	1782                	slli	a5,a5,0x20
ffffffff84002344:	9381                	srli	a5,a5,0x20
ffffffff84002346:	078e                	slli	a5,a5,0x3
ffffffff84002348:	97ae                	add	a5,a5,a1
ffffffff8400234a:	e394                	sd	a3,0(a5)
ffffffff8400234c:	8225                	srli	a2,a2,0x9
ffffffff8400234e:	07f67613          	andi	a2,a2,127
ffffffff84002352:	478d                	li	a5,3
ffffffff84002354:	1107ff63          	bgeu	a5,a6,ffffffff84002472 <setMRs_lookup_failure+0x202>
ffffffff84002358:	270d                	addiw	a4,a4,3
ffffffff8400235a:	0007051b          	sext.w	a0,a4
ffffffff8400235e:	1702                	slli	a4,a4,0x20
ffffffff84002360:	9301                	srli	a4,a4,0x20
ffffffff84002362:	070e                	slli	a4,a4,0x3
ffffffff84002364:	95ba                	add	a1,a1,a4
ffffffff84002366:	e190                	sd	a2,0(a1)
ffffffff84002368:	b7bd                	j	ffffffff840022d6 <setMRs_lookup_failure+0x66>
ffffffff8400236a:	1502                	slli	a0,a0,0x20
ffffffff8400236c:	9101                	srli	a0,a0,0x20
ffffffff8400236e:	00009797          	auipc	a5,0x9
ffffffff84002372:	5ba78793          	addi	a5,a5,1466 # ffffffff8400b928 <msgRegisters>
ffffffff84002376:	953e                	add	a0,a0,a5
ffffffff84002378:	00054783          	lbu	a5,0(a0)
ffffffff8400237c:	078e                	slli	a5,a5,0x3
ffffffff8400237e:	97c6                	add	a5,a5,a7
ffffffff84002380:	e394                	sd	a3,0(a5)
ffffffff84002382:	0027081b          	addiw	a6,a4,2
ffffffff84002386:	8225                	srli	a2,a2,0x9
ffffffff84002388:	07f67613          	andi	a2,a2,127
ffffffff8400238c:	478d                	li	a5,3
ffffffff8400238e:	0f07f263          	bgeu	a5,a6,ffffffff84002472 <setMRs_lookup_failure+0x202>
ffffffff84002392:	f1f9                	bnez	a1,ffffffff84002358 <setMRs_lookup_failure+0xe8>
ffffffff84002394:	4511                	li	a0,4
ffffffff84002396:	b781                	j	ffffffff840022d6 <setMRs_lookup_failure+0x66>
ffffffff84002398:	0017069b          	addiw	a3,a4,1
ffffffff8400239c:	0006881b          	sext.w	a6,a3
ffffffff840023a0:	00965793          	srli	a5,a2,0x9
ffffffff840023a4:	07f7f793          	andi	a5,a5,127
ffffffff840023a8:	450d                	li	a0,3
ffffffff840023aa:	05057b63          	bgeu	a0,a6,ffffffff84002400 <setMRs_lookup_failure+0x190>
ffffffff840023ae:	12058663          	beqz	a1,ffffffff840024da <setMRs_lookup_failure+0x26a>
ffffffff840023b2:	0027051b          	addiw	a0,a4,2
ffffffff840023b6:	0005031b          	sext.w	t1,a0
ffffffff840023ba:	02051693          	slli	a3,a0,0x20
ffffffff840023be:	9281                	srli	a3,a3,0x20
ffffffff840023c0:	068e                	slli	a3,a3,0x3
ffffffff840023c2:	96ae                	add	a3,a3,a1
ffffffff840023c4:	e29c                	sd	a5,0(a3)
ffffffff840023c6:	6822                	ld	a6,8(sp)
ffffffff840023c8:	478d                	li	a5,3
ffffffff840023ca:	0c67f463          	bgeu	a5,t1,ffffffff84002492 <setMRs_lookup_failure+0x222>
ffffffff840023ce:	0037079b          	addiw	a5,a4,3
ffffffff840023d2:	0007869b          	sext.w	a3,a5
ffffffff840023d6:	1782                	slli	a5,a5,0x20
ffffffff840023d8:	9381                	srli	a5,a5,0x20
ffffffff840023da:	078e                	slli	a5,a5,0x3
ffffffff840023dc:	97ae                	add	a5,a5,a1
ffffffff840023de:	0107b023          	sd	a6,0(a5)
ffffffff840023e2:	8209                	srli	a2,a2,0x2
ffffffff840023e4:	07f67613          	andi	a2,a2,127
ffffffff840023e8:	478d                	li	a5,3
ffffffff840023ea:	0cd7f963          	bgeu	a5,a3,ffffffff840024bc <setMRs_lookup_failure+0x24c>
ffffffff840023ee:	2711                	addiw	a4,a4,4
ffffffff840023f0:	0007051b          	sext.w	a0,a4
ffffffff840023f4:	1702                	slli	a4,a4,0x20
ffffffff840023f6:	9301                	srli	a4,a4,0x20
ffffffff840023f8:	070e                	slli	a4,a4,0x3
ffffffff840023fa:	95ba                	add	a1,a1,a4
ffffffff840023fc:	e190                	sd	a2,0(a1)
ffffffff840023fe:	bde1                	j	ffffffff840022d6 <setMRs_lookup_failure+0x66>
ffffffff84002400:	1682                	slli	a3,a3,0x20
ffffffff84002402:	9281                	srli	a3,a3,0x20
ffffffff84002404:	00009517          	auipc	a0,0x9
ffffffff84002408:	52450513          	addi	a0,a0,1316 # ffffffff8400b928 <msgRegisters>
ffffffff8400240c:	96aa                	add	a3,a3,a0
ffffffff8400240e:	0006c683          	lbu	a3,0(a3)
ffffffff84002412:	068e                	slli	a3,a3,0x3
ffffffff84002414:	96c6                	add	a3,a3,a7
ffffffff84002416:	e29c                	sd	a5,0(a3)
ffffffff84002418:	0027079b          	addiw	a5,a4,2
ffffffff8400241c:	6822                	ld	a6,8(sp)
ffffffff8400241e:	468d                	li	a3,3
ffffffff84002420:	00f6f463          	bgeu	a3,a5,ffffffff84002428 <setMRs_lookup_failure+0x1b8>
ffffffff84002424:	f5cd                	bnez	a1,ffffffff840023ce <setMRs_lookup_failure+0x15e>
ffffffff84002426:	a0c1                	j	ffffffff840024e6 <setMRs_lookup_failure+0x276>
ffffffff84002428:	1782                	slli	a5,a5,0x20
ffffffff8400242a:	9381                	srli	a5,a5,0x20
ffffffff8400242c:	00009697          	auipc	a3,0x9
ffffffff84002430:	4fc68693          	addi	a3,a3,1276 # ffffffff8400b928 <msgRegisters>
ffffffff84002434:	97b6                	add	a5,a5,a3
ffffffff84002436:	0007c783          	lbu	a5,0(a5)
ffffffff8400243a:	078e                	slli	a5,a5,0x3
ffffffff8400243c:	97c6                	add	a5,a5,a7
ffffffff8400243e:	0107b023          	sd	a6,0(a5)
ffffffff84002442:	0037069b          	addiw	a3,a4,3
ffffffff84002446:	8209                	srli	a2,a2,0x2
ffffffff84002448:	07f67613          	andi	a2,a2,127
ffffffff8400244c:	478d                	li	a5,3
ffffffff8400244e:	06d7f763          	bgeu	a5,a3,ffffffff840024bc <setMRs_lookup_failure+0x24c>
ffffffff84002452:	4511                	li	a0,4
ffffffff84002454:	fdc9                	bnez	a1,ffffffff840023ee <setMRs_lookup_failure+0x17e>
ffffffff84002456:	b541                	j	ffffffff840022d6 <setMRs_lookup_failure+0x66>
ffffffff84002458:	e0dff0ef          	jal	ra,ffffffff84002264 <halt>
ffffffff8400245c:	4511                	li	a0,4
ffffffff8400245e:	bda5                	j	ffffffff840022d6 <setMRs_lookup_failure+0x66>
ffffffff84002460:	0027081b          	addiw	a6,a4,2
ffffffff84002464:	478d                	li	a5,3
ffffffff84002466:	4511                	li	a0,4
ffffffff84002468:	8225                	srli	a2,a2,0x9
ffffffff8400246a:	07f67613          	andi	a2,a2,127
ffffffff8400246e:	e707e4e3          	bltu	a5,a6,ffffffff840022d6 <setMRs_lookup_failure+0x66>
ffffffff84002472:	1802                	slli	a6,a6,0x20
ffffffff84002474:	02085813          	srli	a6,a6,0x20
ffffffff84002478:	00009797          	auipc	a5,0x9
ffffffff8400247c:	4b078793          	addi	a5,a5,1200 # ffffffff8400b928 <msgRegisters>
ffffffff84002480:	983e                	add	a6,a6,a5
ffffffff84002482:	00084503          	lbu	a0,0(a6)
ffffffff84002486:	050e                	slli	a0,a0,0x3
ffffffff84002488:	9546                	add	a0,a0,a7
ffffffff8400248a:	e110                	sd	a2,0(a0)
ffffffff8400248c:	0037051b          	addiw	a0,a4,3
ffffffff84002490:	b599                	j	ffffffff840022d6 <setMRs_lookup_failure+0x66>
ffffffff84002492:	1502                	slli	a0,a0,0x20
ffffffff84002494:	9101                	srli	a0,a0,0x20
ffffffff84002496:	00009797          	auipc	a5,0x9
ffffffff8400249a:	49278793          	addi	a5,a5,1170 # ffffffff8400b928 <msgRegisters>
ffffffff8400249e:	953e                	add	a0,a0,a5
ffffffff840024a0:	00054783          	lbu	a5,0(a0)
ffffffff840024a4:	078e                	slli	a5,a5,0x3
ffffffff840024a6:	97c6                	add	a5,a5,a7
ffffffff840024a8:	0107b023          	sd	a6,0(a5)
ffffffff840024ac:	0037069b          	addiw	a3,a4,3
ffffffff840024b0:	8209                	srli	a2,a2,0x2
ffffffff840024b2:	07f67613          	andi	a2,a2,127
ffffffff840024b6:	478d                	li	a5,3
ffffffff840024b8:	f2d7ebe3          	bltu	a5,a3,ffffffff840023ee <setMRs_lookup_failure+0x17e>
ffffffff840024bc:	1682                	slli	a3,a3,0x20
ffffffff840024be:	9281                	srli	a3,a3,0x20
ffffffff840024c0:	00009797          	auipc	a5,0x9
ffffffff840024c4:	46878793          	addi	a5,a5,1128 # ffffffff8400b928 <msgRegisters>
ffffffff840024c8:	96be                	add	a3,a3,a5
ffffffff840024ca:	0006c503          	lbu	a0,0(a3)
ffffffff840024ce:	050e                	slli	a0,a0,0x3
ffffffff840024d0:	9546                	add	a0,a0,a7
ffffffff840024d2:	e110                	sd	a2,0(a0)
ffffffff840024d4:	0047051b          	addiw	a0,a4,4
ffffffff840024d8:	bbfd                	j	ffffffff840022d6 <setMRs_lookup_failure+0x66>
ffffffff840024da:	0027079b          	addiw	a5,a4,2
ffffffff840024de:	6822                	ld	a6,8(sp)
ffffffff840024e0:	468d                	li	a3,3
ffffffff840024e2:	f4f6f3e3          	bgeu	a3,a5,ffffffff84002428 <setMRs_lookup_failure+0x1b8>
ffffffff840024e6:	0037069b          	addiw	a3,a4,3
ffffffff840024ea:	478d                	li	a5,3
ffffffff840024ec:	4511                	li	a0,4
ffffffff840024ee:	8209                	srli	a2,a2,0x2
ffffffff840024f0:	07f67613          	andi	a2,a2,127
ffffffff840024f4:	ded7e1e3          	bltu	a5,a3,ffffffff840022d6 <setMRs_lookup_failure+0x66>
ffffffff840024f8:	b7d1                	j	ffffffff840024bc <setMRs_lookup_failure+0x24c>

ffffffff840024fa <Arch_handleFaultReply>:
ffffffff840024fa:	4799                	li	a5,6
ffffffff840024fc:	00f61463          	bne	a2,a5,ffffffff84002504 <Arch_handleFaultReply+0xa>
ffffffff84002500:	4505                	li	a0,1
ffffffff84002502:	8082                	ret
ffffffff84002504:	1141                	addi	sp,sp,-16
ffffffff84002506:	e406                	sd	ra,8(sp)
ffffffff84002508:	d5dff0ef          	jal	ra,ffffffff84002264 <halt>

ffffffff8400250c <Arch_setMRs_fault>:
ffffffff8400250c:	4799                	li	a5,6
ffffffff8400250e:	02f69463          	bne	a3,a5,ffffffff84002536 <Arch_setMRs_fault+0x2a>
ffffffff84002512:	10853783          	ld	a5,264(a0)
ffffffff84002516:	edbc                	sd	a5,88(a1)
ffffffff84002518:	14053783          	ld	a5,320(a0)
ffffffff8400251c:	f1bc                	sd	a5,96(a1)
ffffffff8400251e:	13853783          	ld	a5,312(a0)
ffffffff84002522:	83cd                	srli	a5,a5,0x13
ffffffff84002524:	8b85                	andi	a5,a5,1
ffffffff84002526:	f5bc                	sd	a5,104(a1)
ffffffff84002528:	13853783          	ld	a5,312(a0)
ffffffff8400252c:	01b7d79b          	srliw	a5,a5,0x1b
ffffffff84002530:	f9bc                	sd	a5,112(a1)
ffffffff84002532:	4511                	li	a0,4
ffffffff84002534:	8082                	ret
ffffffff84002536:	1141                	addi	sp,sp,-16
ffffffff84002538:	e406                	sd	ra,8(sp)
ffffffff8400253a:	d2bff0ef          	jal	ra,ffffffff84002264 <halt>

ffffffff8400253e <Arch_activateIdleThread>:
ffffffff8400253e:	8082                	ret

ffffffff84002540 <Arch_postModifyRegisters>:
ffffffff84002540:	8082                	ret

ffffffff84002542 <copyGlobalMappings>:
ffffffff84002542:	00021797          	auipc	a5,0x21
ffffffff84002546:	2be78793          	addi	a5,a5,702 # ffffffff84023800 <kernel_root_pageTable+0x800>
ffffffff8400254a:	6705                	lui	a4,0x1
ffffffff8400254c:	80070713          	addi	a4,a4,-2048 # 800 <KERNEL_OFFSET-0xfffffffefffff800>
ffffffff84002550:	972a                	add	a4,a4,a0
ffffffff84002552:	00022617          	auipc	a2,0x22
ffffffff84002556:	aae60613          	addi	a2,a2,-1362 # ffffffff84024000 <kernel_root_pageTable+0x1000>
ffffffff8400255a:	6394                	ld	a3,0(a5)
ffffffff8400255c:	e314                	sd	a3,0(a4)
ffffffff8400255e:	07a1                	addi	a5,a5,8
ffffffff84002560:	0721                	addi	a4,a4,8
ffffffff84002562:	fec79ce3          	bne	a5,a2,ffffffff8400255a <copyGlobalMappings+0x18>
ffffffff84002566:	8082                	ret

ffffffff84002568 <lookupIPCBuffer>:
ffffffff84002568:	c005f793          	andi	a5,a1,-1024
ffffffff8400256c:	04078613          	addi	a2,a5,64
ffffffff84002570:	63bc                	ld	a5,64(a5)
ffffffff84002572:	03b7d693          	srli	a3,a5,0x3b
ffffffff84002576:	4705                	li	a4,1
ffffffff84002578:	06e69a63          	bne	a3,a4,ffffffff840025ec <lookupIPCBuffer+0x84>
ffffffff8400257c:	0367d713          	srli	a4,a5,0x36
ffffffff84002580:	8b05                	andi	a4,a4,1
ffffffff84002582:	e73d                	bnez	a4,ffffffff840025f0 <lookupIPCBuffer+0x88>
ffffffff84002584:	0377d713          	srli	a4,a5,0x37
ffffffff84002588:	8b0d                	andi	a4,a4,3
ffffffff8400258a:	468d                	li	a3,3
ffffffff8400258c:	02d71d63          	bne	a4,a3,ffffffff840025c6 <lookupIPCBuffer+0x5e>
ffffffff84002590:	6618                	ld	a4,8(a2)
ffffffff84002592:	8325                	srli	a4,a4,0x9
ffffffff84002594:	01971513          	slli	a0,a4,0x19
ffffffff84002598:	01955693          	srli	a3,a0,0x19
ffffffff8400259c:	9319                	srli	a4,a4,0x26
ffffffff8400259e:	8b05                	andi	a4,a4,1
ffffffff840025a0:	c701                	beqz	a4,ffffffff840025a8 <lookupIPCBuffer+0x40>
ffffffff840025a2:	577d                	li	a4,-1
ffffffff840025a4:	171e                	slli	a4,a4,0x27
ffffffff840025a6:	8ed9                	or	a3,a3,a4
ffffffff840025a8:	1805b703          	ld	a4,384(a1)
ffffffff840025ac:	93e5                	srli	a5,a5,0x39
ffffffff840025ae:	8b8d                	andi	a5,a5,3
ffffffff840025b0:	4605                	li	a2,1
ffffffff840025b2:	02c78063          	beq	a5,a2,ffffffff840025d2 <lookupIPCBuffer+0x6a>
ffffffff840025b6:	4609                	li	a2,2
ffffffff840025b8:	00c78f63          	beq	a5,a2,ffffffff840025d6 <lookupIPCBuffer+0x6e>
ffffffff840025bc:	c795                	beqz	a5,ffffffff840025e8 <lookupIPCBuffer+0x80>
ffffffff840025be:	1141                	addi	sp,sp,-16
ffffffff840025c0:	e406                	sd	ra,8(sp)
ffffffff840025c2:	ca3ff0ef          	jal	ra,ffffffff84002264 <halt>
ffffffff840025c6:	e51d                	bnez	a0,ffffffff840025f4 <lookupIPCBuffer+0x8c>
ffffffff840025c8:	4689                	li	a3,2
ffffffff840025ca:	fcd703e3          	beq	a4,a3,ffffffff84002590 <lookupIPCBuffer+0x28>
ffffffff840025ce:	4501                	li	a0,0
ffffffff840025d0:	8082                	ret
ffffffff840025d2:	47d5                	li	a5,21
ffffffff840025d4:	a011                	j	ffffffff840025d8 <lookupIPCBuffer+0x70>
ffffffff840025d6:	47f9                	li	a5,30
ffffffff840025d8:	557d                	li	a0,-1
ffffffff840025da:	00f51533          	sll	a0,a0,a5
ffffffff840025de:	fff54513          	not	a0,a0
ffffffff840025e2:	8d79                	and	a0,a0,a4
ffffffff840025e4:	9536                	add	a0,a0,a3
ffffffff840025e6:	8082                	ret
ffffffff840025e8:	47b1                	li	a5,12
ffffffff840025ea:	b7fd                	j	ffffffff840025d8 <lookupIPCBuffer+0x70>
ffffffff840025ec:	4501                	li	a0,0
ffffffff840025ee:	8082                	ret
ffffffff840025f0:	4501                	li	a0,0
ffffffff840025f2:	8082                	ret
ffffffff840025f4:	4501                	li	a0,0
ffffffff840025f6:	8082                	ret

ffffffff840025f8 <handleFaultReply>:
ffffffff840025f8:	7179                	addi	sp,sp,-48
ffffffff840025fa:	f406                	sd	ra,40(sp)
ffffffff840025fc:	f022                	sd	s0,32(sp)
ffffffff840025fe:	ec26                	sd	s1,24(sp)
ffffffff84002600:	e84a                	sd	s2,16(sp)
ffffffff84002602:	e44e                	sd	s3,8(sp)
ffffffff84002604:	842a                	mv	s0,a0
ffffffff84002606:	69b8                	ld	a4,80(a1)
ffffffff84002608:	07f77693          	andi	a3,a4,127
ffffffff8400260c:	07800793          	li	a5,120
ffffffff84002610:	00d7f663          	bgeu	a5,a3,ffffffff8400261c <handleFaultReply+0x24>
ffffffff84002614:	f8077713          	andi	a4,a4,-128
ffffffff84002618:	07876713          	ori	a4,a4,120
ffffffff8400261c:	00c75493          	srli	s1,a4,0xc
ffffffff84002620:	07f77693          	andi	a3,a4,127
ffffffff84002624:	13843783          	ld	a5,312(s0) # 1138 <KERNEL_OFFSET-0xfffffffeffffeec8>
ffffffff84002628:	00f7f513          	andi	a0,a5,15
ffffffff8400262c:	460d                	li	a2,3
ffffffff8400262e:	12c50d63          	beq	a0,a2,ffffffff84002768 <handleFaultReply+0x170>
ffffffff84002632:	8bb1                	andi	a5,a5,12
ffffffff84002634:	e3cd                	bnez	a5,ffffffff840026d6 <handleFaultReply+0xde>
ffffffff84002636:	4705                	li	a4,1
ffffffff84002638:	08e50863          	beq	a0,a4,ffffffff840026c8 <handleFaultReply+0xd0>
ffffffff8400263c:	4709                	li	a4,2
ffffffff8400263e:	18e51b63          	bne	a0,a4,ffffffff840027d4 <handleFaultReply+0x1dc>
ffffffff84002642:	8936                	mv	s2,a3
ffffffff84002644:	4729                	li	a4,10
ffffffff84002646:	00d77363          	bgeu	a4,a3,ffffffff8400264c <handleFaultReply+0x54>
ffffffff8400264a:	4929                	li	s2,10
ffffffff8400264c:	88ca                	mv	a7,s2
ffffffff8400264e:	4711                	li	a4,4
ffffffff84002650:	01277363          	bgeu	a4,s2,ffffffff84002656 <handleFaultReply+0x5e>
ffffffff84002654:	4891                	li	a7,4
ffffffff84002656:	c6bd                	beqz	a3,ffffffff840026c4 <handleFaultReply+0xcc>
ffffffff84002658:	00009517          	auipc	a0,0x9
ffffffff8400265c:	72050513          	addi	a0,a0,1824 # ffffffff8400bd78 <fault_messages>
ffffffff84002660:	00009617          	auipc	a2,0x9
ffffffff84002664:	2c860613          	addi	a2,a2,712 # ffffffff8400b928 <msgRegisters>
ffffffff84002668:	00064703          	lbu	a4,0(a2)
ffffffff8400266c:	070e                	slli	a4,a4,0x3
ffffffff8400266e:	972e                	add	a4,a4,a1
ffffffff84002670:	00073803          	ld	a6,0(a4)
ffffffff84002674:	00054703          	lbu	a4,0(a0)
ffffffff84002678:	070e                	slli	a4,a4,0x3
ffffffff8400267a:	9722                	add	a4,a4,s0
ffffffff8400267c:	01073023          	sd	a6,0(a4)
ffffffff84002680:	0785                	addi	a5,a5,1
ffffffff84002682:	0505                	addi	a0,a0,1
ffffffff84002684:	0605                	addi	a2,a2,1
ffffffff84002686:	ff17e1e3          	bltu	a5,a7,ffffffff84002668 <handleFaultReply+0x70>
ffffffff8400268a:	4985                	li	s3,1
ffffffff8400268c:	c291                	beqz	a3,ffffffff84002690 <handleFaultReply+0x98>
ffffffff8400268e:	89c6                	mv	s3,a7
ffffffff84002690:	0329fa63          	bgeu	s3,s2,ffffffff840026c4 <handleFaultReply+0xcc>
ffffffff84002694:	4501                	li	a0,0
ffffffff84002696:	ed3ff0ef          	jal	ra,ffffffff84002568 <lookupIPCBuffer>
ffffffff8400269a:	c50d                	beqz	a0,ffffffff840026c4 <handleFaultReply+0xcc>
ffffffff8400269c:	00009697          	auipc	a3,0x9
ffffffff840026a0:	6dc68693          	addi	a3,a3,1756 # ffffffff8400bd78 <fault_messages>
ffffffff840026a4:	96ce                	add	a3,a3,s3
ffffffff840026a6:	00399713          	slli	a4,s3,0x3
ffffffff840026aa:	972a                	add	a4,a4,a0
ffffffff840026ac:	090e                	slli	s2,s2,0x3
ffffffff840026ae:	992a                	add	s2,s2,a0
ffffffff840026b0:	6710                	ld	a2,8(a4)
ffffffff840026b2:	0006c783          	lbu	a5,0(a3)
ffffffff840026b6:	078e                	slli	a5,a5,0x3
ffffffff840026b8:	97a2                	add	a5,a5,s0
ffffffff840026ba:	e390                	sd	a2,0(a5)
ffffffff840026bc:	0685                	addi	a3,a3,1
ffffffff840026be:	0721                	addi	a4,a4,8
ffffffff840026c0:	fee918e3          	bne	s2,a4,ffffffff840026b0 <handleFaultReply+0xb8>
ffffffff840026c4:	0014b513          	seqz	a0,s1
ffffffff840026c8:	70a2                	ld	ra,40(sp)
ffffffff840026ca:	7402                	ld	s0,32(sp)
ffffffff840026cc:	64e2                	ld	s1,24(sp)
ffffffff840026ce:	6942                	ld	s2,16(sp)
ffffffff840026d0:	69a2                	ld	s3,8(sp)
ffffffff840026d2:	6145                	addi	sp,sp,48
ffffffff840026d4:	8082                	ret
ffffffff840026d6:	4795                	li	a5,5
ffffffff840026d8:	0ef51963          	bne	a0,a5,ffffffff840027ca <handleFaultReply+0x1d2>
ffffffff840026dc:	8936                	mv	s2,a3
ffffffff840026de:	02000793          	li	a5,32
ffffffff840026e2:	00d7f463          	bgeu	a5,a3,ffffffff840026ea <handleFaultReply+0xf2>
ffffffff840026e6:	02000913          	li	s2,32
ffffffff840026ea:	884a                	mv	a6,s2
ffffffff840026ec:	4791                	li	a5,4
ffffffff840026ee:	0127f363          	bgeu	a5,s2,ffffffff840026f4 <handleFaultReply+0xfc>
ffffffff840026f2:	4811                	li	a6,4
ffffffff840026f4:	c6bd                	beqz	a3,ffffffff84002762 <handleFaultReply+0x16a>
ffffffff840026f6:	00009617          	auipc	a2,0x9
ffffffff840026fa:	23260613          	addi	a2,a2,562 # ffffffff8400b928 <msgRegisters>
ffffffff840026fe:	4701                	li	a4,0
ffffffff84002700:	00009897          	auipc	a7,0x9
ffffffff84002704:	67888893          	addi	a7,a7,1656 # ffffffff8400bd78 <fault_messages>
ffffffff84002708:	00064783          	lbu	a5,0(a2)
ffffffff8400270c:	078e                	slli	a5,a5,0x3
ffffffff8400270e:	97ae                	add	a5,a5,a1
ffffffff84002710:	6388                	ld	a0,0(a5)
ffffffff84002712:	00e887b3          	add	a5,a7,a4
ffffffff84002716:	0407c783          	lbu	a5,64(a5)
ffffffff8400271a:	078e                	slli	a5,a5,0x3
ffffffff8400271c:	97a2                	add	a5,a5,s0
ffffffff8400271e:	e388                	sd	a0,0(a5)
ffffffff84002720:	0705                	addi	a4,a4,1
ffffffff84002722:	0605                	addi	a2,a2,1
ffffffff84002724:	ff0762e3          	bltu	a4,a6,ffffffff84002708 <handleFaultReply+0x110>
ffffffff84002728:	4985                	li	s3,1
ffffffff8400272a:	c291                	beqz	a3,ffffffff8400272e <handleFaultReply+0x136>
ffffffff8400272c:	89c2                	mv	s3,a6
ffffffff8400272e:	0329fa63          	bgeu	s3,s2,ffffffff84002762 <handleFaultReply+0x16a>
ffffffff84002732:	4501                	li	a0,0
ffffffff84002734:	e35ff0ef          	jal	ra,ffffffff84002568 <lookupIPCBuffer>
ffffffff84002738:	c50d                	beqz	a0,ffffffff84002762 <handleFaultReply+0x16a>
ffffffff8400273a:	00009697          	auipc	a3,0x9
ffffffff8400273e:	63e68693          	addi	a3,a3,1598 # ffffffff8400bd78 <fault_messages>
ffffffff84002742:	96ce                	add	a3,a3,s3
ffffffff84002744:	00399713          	slli	a4,s3,0x3
ffffffff84002748:	972a                	add	a4,a4,a0
ffffffff8400274a:	090e                	slli	s2,s2,0x3
ffffffff8400274c:	992a                	add	s2,s2,a0
ffffffff8400274e:	6710                	ld	a2,8(a4)
ffffffff84002750:	0406c783          	lbu	a5,64(a3)
ffffffff84002754:	078e                	slli	a5,a5,0x3
ffffffff84002756:	97a2                	add	a5,a5,s0
ffffffff84002758:	e390                	sd	a2,0(a5)
ffffffff8400275a:	0685                	addi	a3,a3,1
ffffffff8400275c:	0721                	addi	a4,a4,8
ffffffff8400275e:	ff2718e3          	bne	a4,s2,ffffffff8400274e <handleFaultReply+0x156>
ffffffff84002762:	0014b513          	seqz	a0,s1
ffffffff84002766:	b78d                	j	ffffffff840026c8 <handleFaultReply+0xd0>
ffffffff84002768:	89b6                	mv	s3,a3
ffffffff8400276a:	4789                	li	a5,2
ffffffff8400276c:	00d7f363          	bgeu	a5,a3,ffffffff84002772 <handleFaultReply+0x17a>
ffffffff84002770:	4989                	li	s3,2
ffffffff84002772:	864e                	mv	a2,s3
ffffffff84002774:	4791                	li	a5,4
ffffffff84002776:	0137f363          	bgeu	a5,s3,ffffffff8400277c <handleFaultReply+0x184>
ffffffff8400277a:	4611                	li	a2,4
ffffffff8400277c:	c6a1                	beqz	a3,ffffffff840027c4 <handleFaultReply+0x1cc>
ffffffff8400277e:	6dbc                	ld	a5,88(a1)
ffffffff84002780:	10f43423          	sd	a5,264(s0)
ffffffff84002784:	07e77713          	andi	a4,a4,126
ffffffff84002788:	c319                	beqz	a4,ffffffff8400278e <handleFaultReply+0x196>
ffffffff8400278a:	71bc                	ld	a5,96(a1)
ffffffff8400278c:	e41c                	sd	a5,8(s0)
ffffffff8400278e:	4905                	li	s2,1
ffffffff84002790:	c291                	beqz	a3,ffffffff84002794 <handleFaultReply+0x19c>
ffffffff84002792:	8932                	mv	s2,a2
ffffffff84002794:	03397863          	bgeu	s2,s3,ffffffff840027c4 <handleFaultReply+0x1cc>
ffffffff84002798:	4501                	li	a0,0
ffffffff8400279a:	dcfff0ef          	jal	ra,ffffffff84002568 <lookupIPCBuffer>
ffffffff8400279e:	c11d                	beqz	a0,ffffffff840027c4 <handleFaultReply+0x1cc>
ffffffff840027a0:	00009617          	auipc	a2,0x9
ffffffff840027a4:	5d860613          	addi	a2,a2,1496 # ffffffff8400bd78 <fault_messages>
ffffffff840027a8:	012606b3          	add	a3,a2,s2
ffffffff840027ac:	0905                	addi	s2,s2,1
ffffffff840027ae:	00391793          	slli	a5,s2,0x3
ffffffff840027b2:	97aa                	add	a5,a5,a0
ffffffff840027b4:	6398                	ld	a4,0(a5)
ffffffff840027b6:	0206c783          	lbu	a5,32(a3)
ffffffff840027ba:	078e                	slli	a5,a5,0x3
ffffffff840027bc:	97a2                	add	a5,a5,s0
ffffffff840027be:	e398                	sd	a4,0(a5)
ffffffff840027c0:	ff2994e3          	bne	s3,s2,ffffffff840027a8 <handleFaultReply+0x1b0>
ffffffff840027c4:	0014b513          	seqz	a0,s1
ffffffff840027c8:	b701                	j	ffffffff840026c8 <handleFaultReply+0xd0>
ffffffff840027ca:	4799                	li	a5,6
ffffffff840027cc:	00f51463          	bne	a0,a5,ffffffff840027d4 <handleFaultReply+0x1dc>
ffffffff840027d0:	4505                	li	a0,1
ffffffff840027d2:	bddd                	j	ffffffff840026c8 <handleFaultReply+0xd0>
ffffffff840027d4:	a91ff0ef          	jal	ra,ffffffff84002264 <halt>

ffffffff840027d8 <lookupPTSlot>:
ffffffff840027d8:	1141                	addi	sp,sp,-16
ffffffff840027da:	86ae                	mv	a3,a1
ffffffff840027dc:	01e5d793          	srli	a5,a1,0x1e
ffffffff840027e0:	1ff7f793          	andi	a5,a5,511
ffffffff840027e4:	078e                	slli	a5,a5,0x3
ffffffff840027e6:	953e                	add	a0,a0,a5
ffffffff840027e8:	45f9                	li	a1,30
ffffffff840027ea:	488d                	li	a7,3
ffffffff840027ec:	fff00837          	lui	a6,0xfff00
ffffffff840027f0:	00885813          	srli	a6,a6,0x8
ffffffff840027f4:	567d                	li	a2,-1
ffffffff840027f6:	161a                	slli	a2,a2,0x26
ffffffff840027f8:	a839                	j	ffffffff84002816 <lookupPTSlot+0x3e>
ffffffff840027fa:	15dd                	addi	a1,a1,-9
ffffffff840027fc:	03158f63          	beq	a1,a7,ffffffff8400283a <lookupPTSlot+0x62>
ffffffff84002800:	00279513          	slli	a0,a5,0x2
ffffffff84002804:	01057533          	and	a0,a0,a6
ffffffff84002808:	9532                	add	a0,a0,a2
ffffffff8400280a:	00b6d7b3          	srl	a5,a3,a1
ffffffff8400280e:	1ff7f793          	andi	a5,a5,511
ffffffff84002812:	078e                	slli	a5,a5,0x3
ffffffff84002814:	953e                	add	a0,a0,a5
ffffffff84002816:	611c                	ld	a5,0(a0)
ffffffff84002818:	0017f713          	andi	a4,a5,1
ffffffff8400281c:	cf09                	beqz	a4,ffffffff84002836 <lookupPTSlot+0x5e>
ffffffff8400281e:	0017d713          	srli	a4,a5,0x1
ffffffff84002822:	0027d313          	srli	t1,a5,0x2
ffffffff84002826:	00676733          	or	a4,a4,t1
ffffffff8400282a:	0037d313          	srli	t1,a5,0x3
ffffffff8400282e:	00676733          	or	a4,a4,t1
ffffffff84002832:	8b05                	andi	a4,a4,1
ffffffff84002834:	d379                	beqz	a4,ffffffff840027fa <lookupPTSlot+0x22>
ffffffff84002836:	0141                	addi	sp,sp,16
ffffffff84002838:	8082                	ret
ffffffff8400283a:	45b1                	li	a1,12
ffffffff8400283c:	bfed                	j	ffffffff84002836 <lookupPTSlot+0x5e>

ffffffff8400283e <handleVMFault>:
ffffffff8400283e:	143026f3          	csrr	a3,stval
ffffffff84002842:	47bd                	li	a5,15
ffffffff84002844:	06b7e063          	bltu	a5,a1,ffffffff840028a4 <handleVMFault+0x66>
ffffffff84002848:	058a                	slli	a1,a1,0x2
ffffffff8400284a:	00009717          	auipc	a4,0x9
ffffffff8400284e:	0e670713          	addi	a4,a4,230 # ffffffff8400b930 <msgRegisters+0x8>
ffffffff84002852:	95ba                	add	a1,a1,a4
ffffffff84002854:	419c                	lw	a5,0(a1)
ffffffff84002856:	97ba                	add	a5,a5,a4
ffffffff84002858:	8782                	jr	a5
ffffffff8400285a:	0000a717          	auipc	a4,0xa
ffffffff8400285e:	7a670713          	addi	a4,a4,1958 # ffffffff8400d000 <riscvKSASIDTable>
ffffffff84002862:	280007b7          	lui	a5,0x28000
ffffffff84002866:	0799                	addi	a5,a5,6
ffffffff84002868:	44f73423          	sd	a5,1096(a4)
ffffffff8400286c:	44d73823          	sd	a3,1104(a4)
ffffffff84002870:	4505                	li	a0,1
ffffffff84002872:	8082                	ret
ffffffff84002874:	0000a717          	auipc	a4,0xa
ffffffff84002878:	78c70713          	addi	a4,a4,1932 # ffffffff8400d000 <riscvKSASIDTable>
ffffffff8400287c:	380007b7          	lui	a5,0x38000
ffffffff84002880:	0799                	addi	a5,a5,6
ffffffff84002882:	44f73423          	sd	a5,1096(a4)
ffffffff84002886:	44d73823          	sd	a3,1104(a4)
ffffffff8400288a:	b7dd                	j	ffffffff84002870 <handleVMFault+0x32>
ffffffff8400288c:	0000a717          	auipc	a4,0xa
ffffffff84002890:	77470713          	addi	a4,a4,1908 # ffffffff8400d000 <riscvKSASIDTable>
ffffffff84002894:	080807b7          	lui	a5,0x8080
ffffffff84002898:	0799                	addi	a5,a5,6
ffffffff8400289a:	44f73423          	sd	a5,1096(a4)
ffffffff8400289e:	44d73823          	sd	a3,1104(a4)
ffffffff840028a2:	b7f9                	j	ffffffff84002870 <handleVMFault+0x32>
ffffffff840028a4:	1141                	addi	sp,sp,-16
ffffffff840028a6:	e406                	sd	ra,8(sp)
ffffffff840028a8:	9bdff0ef          	jal	ra,ffffffff84002264 <halt>

ffffffff840028ac <unmapPageTable>:
ffffffff840028ac:	7179                	addi	sp,sp,-48
ffffffff840028ae:	f406                	sd	ra,40(sp)
ffffffff840028b0:	f022                	sd	s0,32(sp)
ffffffff840028b2:	ec26                	sd	s1,24(sp)
ffffffff840028b4:	842e                	mv	s0,a1
ffffffff840028b6:	84b2                	mv	s1,a2
ffffffff840028b8:	83fff0ef          	jal	ra,ffffffff840020f6 <findVSpaceForASID>
ffffffff840028bc:	e02a                	sd	a0,0(sp)
ffffffff840028be:	e42e                	sd	a1,8(sp)
ffffffff840028c0:	e141                	bnez	a0,ffffffff84002940 <unmapPageTable+0x94>
ffffffff840028c2:	08958463          	beq	a1,s1,ffffffff8400294a <unmapPageTable+0x9e>
ffffffff840028c6:	01e45793          	srli	a5,s0,0x1e
ffffffff840028ca:	1ff7f793          	andi	a5,a5,511
ffffffff840028ce:	078e                	slli	a5,a5,0x3
ffffffff840028d0:	00f58733          	add	a4,a1,a5
ffffffff840028d4:	631c                	ld	a5,0(a4)
ffffffff840028d6:	0017f693          	andi	a3,a5,1
ffffffff840028da:	c2bd                	beqz	a3,ffffffff84002940 <unmapPageTable+0x94>
ffffffff840028dc:	0017d693          	srli	a3,a5,0x1
ffffffff840028e0:	0027d613          	srli	a2,a5,0x2
ffffffff840028e4:	8ed1                	or	a3,a3,a2
ffffffff840028e6:	0037d613          	srli	a2,a5,0x3
ffffffff840028ea:	8ed1                	or	a3,a3,a2
ffffffff840028ec:	8a85                	andi	a3,a3,1
ffffffff840028ee:	eaa9                	bnez	a3,ffffffff84002940 <unmapPageTable+0x94>
ffffffff840028f0:	078a                	slli	a5,a5,0x2
ffffffff840028f2:	fff006b7          	lui	a3,0xfff00
ffffffff840028f6:	82a1                	srli	a3,a3,0x8
ffffffff840028f8:	8ff5                	and	a5,a5,a3
ffffffff840028fa:	56fd                	li	a3,-1
ffffffff840028fc:	169a                	slli	a3,a3,0x26
ffffffff840028fe:	97b6                	add	a5,a5,a3
ffffffff84002900:	04f48663          	beq	s1,a5,ffffffff8400294c <unmapPageTable+0xa0>
ffffffff84002904:	8055                	srli	s0,s0,0x15
ffffffff84002906:	1ff47413          	andi	s0,s0,511
ffffffff8400290a:	040e                	slli	s0,s0,0x3
ffffffff8400290c:	00878733          	add	a4,a5,s0
ffffffff84002910:	631c                	ld	a5,0(a4)
ffffffff84002912:	0017f693          	andi	a3,a5,1
ffffffff84002916:	c68d                	beqz	a3,ffffffff84002940 <unmapPageTable+0x94>
ffffffff84002918:	0017d693          	srli	a3,a5,0x1
ffffffff8400291c:	0027d613          	srli	a2,a5,0x2
ffffffff84002920:	8ed1                	or	a3,a3,a2
ffffffff84002922:	0037d613          	srli	a2,a5,0x3
ffffffff84002926:	8ed1                	or	a3,a3,a2
ffffffff84002928:	8a85                	andi	a3,a3,1
ffffffff8400292a:	ea99                	bnez	a3,ffffffff84002940 <unmapPageTable+0x94>
ffffffff8400292c:	078a                	slli	a5,a5,0x2
ffffffff8400292e:	fff006b7          	lui	a3,0xfff00
ffffffff84002932:	82a1                	srli	a3,a3,0x8
ffffffff84002934:	8ff5                	and	a5,a5,a3
ffffffff84002936:	56fd                	li	a3,-1
ffffffff84002938:	169a                	slli	a3,a3,0x26
ffffffff8400293a:	97b6                	add	a5,a5,a3
ffffffff8400293c:	00f48863          	beq	s1,a5,ffffffff8400294c <unmapPageTable+0xa0>
ffffffff84002940:	70a2                	ld	ra,40(sp)
ffffffff84002942:	7402                	ld	s0,32(sp)
ffffffff84002944:	64e2                	ld	s1,24(sp)
ffffffff84002946:	6145                	addi	sp,sp,48
ffffffff84002948:	8082                	ret
ffffffff8400294a:	4701                	li	a4,0
ffffffff8400294c:	00073023          	sd	zero,0(a4)
ffffffff84002950:	12000073          	sfence.vma
ffffffff84002954:	b7f5                	j	ffffffff84002940 <unmapPageTable+0x94>

ffffffff84002956 <unmapPage>:
ffffffff84002956:	7139                	addi	sp,sp,-64
ffffffff84002958:	fc06                	sd	ra,56(sp)
ffffffff8400295a:	f822                	sd	s0,48(sp)
ffffffff8400295c:	f426                	sd	s1,40(sp)
ffffffff8400295e:	f04a                	sd	s2,32(sp)
ffffffff84002960:	842a                	mv	s0,a0
ffffffff84002962:	8932                	mv	s2,a2
ffffffff84002964:	84b6                	mv	s1,a3
ffffffff84002966:	852e                	mv	a0,a1
ffffffff84002968:	f8eff0ef          	jal	ra,ffffffff840020f6 <findVSpaceForASID>
ffffffff8400296c:	e82a                	sd	a0,16(sp)
ffffffff8400296e:	ec2e                	sd	a1,24(sp)
ffffffff84002970:	c519                	beqz	a0,ffffffff8400297e <unmapPage+0x28>
ffffffff84002972:	70e2                	ld	ra,56(sp)
ffffffff84002974:	7442                	ld	s0,48(sp)
ffffffff84002976:	74a2                	ld	s1,40(sp)
ffffffff84002978:	7902                	ld	s2,32(sp)
ffffffff8400297a:	6121                	addi	sp,sp,64
ffffffff8400297c:	8082                	ret
ffffffff8400297e:	85ca                	mv	a1,s2
ffffffff84002980:	6562                	ld	a0,24(sp)
ffffffff84002982:	e57ff0ef          	jal	ra,ffffffff840027d8 <lookupPTSlot>
ffffffff84002986:	e02a                	sd	a0,0(sp)
ffffffff84002988:	e42e                	sd	a1,8(sp)
ffffffff8400298a:	4785                	li	a5,1
ffffffff8400298c:	00f40863          	beq	s0,a5,ffffffff8400299c <unmapPage+0x46>
ffffffff84002990:	4789                	li	a5,2
ffffffff84002992:	00f40763          	beq	s0,a5,ffffffff840029a0 <unmapPage+0x4a>
ffffffff84002996:	c429                	beqz	s0,ffffffff840029e0 <unmapPage+0x8a>
ffffffff84002998:	8cdff0ef          	jal	ra,ffffffff84002264 <halt>
ffffffff8400299c:	47d5                	li	a5,21
ffffffff8400299e:	a011                	j	ffffffff840029a2 <unmapPage+0x4c>
ffffffff840029a0:	47f9                	li	a5,30
ffffffff840029a2:	fcf598e3          	bne	a1,a5,ffffffff84002972 <unmapPage+0x1c>
ffffffff840029a6:	6118                	ld	a4,0(a0)
ffffffff840029a8:	00177793          	andi	a5,a4,1
ffffffff840029ac:	d3f9                	beqz	a5,ffffffff84002972 <unmapPage+0x1c>
ffffffff840029ae:	00175793          	srli	a5,a4,0x1
ffffffff840029b2:	00275693          	srli	a3,a4,0x2
ffffffff840029b6:	8fd5                	or	a5,a5,a3
ffffffff840029b8:	00375693          	srli	a3,a4,0x3
ffffffff840029bc:	8fd5                	or	a5,a5,a3
ffffffff840029be:	8b85                	andi	a5,a5,1
ffffffff840029c0:	dbcd                	beqz	a5,ffffffff84002972 <unmapPage+0x1c>
ffffffff840029c2:	070a                	slli	a4,a4,0x2
ffffffff840029c4:	fff007b7          	lui	a5,0xfff00
ffffffff840029c8:	83a1                	srli	a5,a5,0x8
ffffffff840029ca:	8f7d                	and	a4,a4,a5
ffffffff840029cc:	4685                	li	a3,1
ffffffff840029ce:	169a                	slli	a3,a3,0x26
ffffffff840029d0:	94b6                	add	s1,s1,a3
ffffffff840029d2:	fa9710e3          	bne	a4,s1,ffffffff84002972 <unmapPage+0x1c>
ffffffff840029d6:	00053023          	sd	zero,0(a0)
ffffffff840029da:	12000073          	sfence.vma
ffffffff840029de:	bf51                	j	ffffffff84002972 <unmapPage+0x1c>
ffffffff840029e0:	47b1                	li	a5,12
ffffffff840029e2:	b7c1                	j	ffffffff840029a2 <unmapPage+0x4c>

ffffffff840029e4 <setVMRoot>:
ffffffff840029e4:	c0057513          	andi	a0,a0,-1024
ffffffff840029e8:	711c                	ld	a5,32(a0)
ffffffff840029ea:	93ed                	srli	a5,a5,0x3b
ffffffff840029ec:	470d                	li	a4,3
ffffffff840029ee:	02e78563          	beq	a5,a4,ffffffff84002a18 <setVMRoot+0x34>
ffffffff840029f2:	00020797          	auipc	a5,0x20
ffffffff840029f6:	60e78793          	addi	a5,a5,1550 # ffffffff84023000 <kernel_root_pageTable>
ffffffff840029fa:	4705                	li	a4,1
ffffffff840029fc:	1702                	slli	a4,a4,0x20
ffffffff840029fe:	97ba                	add	a5,a5,a4
ffffffff84002a00:	83b1                	srli	a5,a5,0xc
ffffffff84002a02:	577d                	li	a4,-1
ffffffff84002a04:	01475693          	srli	a3,a4,0x14
ffffffff84002a08:	8ff5                	and	a5,a5,a3
ffffffff84002a0a:	177e                	slli	a4,a4,0x3f
ffffffff84002a0c:	8fd9                	or	a5,a5,a4
ffffffff84002a0e:	18079073          	csrw	satp,a5
ffffffff84002a12:	12000073          	sfence.vma
ffffffff84002a16:	8082                	ret
ffffffff84002a18:	7179                	addi	sp,sp,-48
ffffffff84002a1a:	f406                	sd	ra,40(sp)
ffffffff84002a1c:	f022                	sd	s0,32(sp)
ffffffff84002a1e:	ec26                	sd	s1,24(sp)
ffffffff84002a20:	e84a                	sd	s2,16(sp)
ffffffff84002a22:	02050693          	addi	a3,a0,32
ffffffff84002a26:	669c                	ld	a5,8(a3)
ffffffff84002a28:	0097d713          	srli	a4,a5,0x9
ffffffff84002a2c:	01971413          	slli	s0,a4,0x19
ffffffff84002a30:	8065                	srli	s0,s0,0x19
ffffffff84002a32:	9319                	srli	a4,a4,0x26
ffffffff84002a34:	8b05                	andi	a4,a4,1
ffffffff84002a36:	c701                	beqz	a4,ffffffff84002a3e <setVMRoot+0x5a>
ffffffff84002a38:	577d                	li	a4,-1
ffffffff84002a3a:	171e                	slli	a4,a4,0x27
ffffffff84002a3c:	8c59                	or	s0,s0,a4
ffffffff84002a3e:	0307d493          	srli	s1,a5,0x30
ffffffff84002a42:	8526                	mv	a0,s1
ffffffff84002a44:	eb2ff0ef          	jal	ra,ffffffff840020f6 <findVSpaceForASID>
ffffffff84002a48:	e02a                	sd	a0,0(sp)
ffffffff84002a4a:	e42e                	sd	a1,8(sp)
ffffffff84002a4c:	e915                	bnez	a0,ffffffff84002a80 <setVMRoot+0x9c>
ffffffff84002a4e:	02859963          	bne	a1,s0,ffffffff84002a80 <setVMRoot+0x9c>
ffffffff84002a52:	4785                	li	a5,1
ffffffff84002a54:	179a                	slli	a5,a5,0x26
ffffffff84002a56:	97a2                	add	a5,a5,s0
ffffffff84002a58:	83b1                	srli	a5,a5,0xc
ffffffff84002a5a:	577d                	li	a4,-1
ffffffff84002a5c:	01475413          	srli	s0,a4,0x14
ffffffff84002a60:	8fe1                	and	a5,a5,s0
ffffffff84002a62:	02c49513          	slli	a0,s1,0x2c
ffffffff84002a66:	8fc9                	or	a5,a5,a0
ffffffff84002a68:	177e                	slli	a4,a4,0x3f
ffffffff84002a6a:	8fd9                	or	a5,a5,a4
ffffffff84002a6c:	18079073          	csrw	satp,a5
ffffffff84002a70:	12000073          	sfence.vma
ffffffff84002a74:	70a2                	ld	ra,40(sp)
ffffffff84002a76:	7402                	ld	s0,32(sp)
ffffffff84002a78:	64e2                	ld	s1,24(sp)
ffffffff84002a7a:	6942                	ld	s2,16(sp)
ffffffff84002a7c:	6145                	addi	sp,sp,48
ffffffff84002a7e:	8082                	ret
ffffffff84002a80:	00020797          	auipc	a5,0x20
ffffffff84002a84:	58078793          	addi	a5,a5,1408 # ffffffff84023000 <kernel_root_pageTable>
ffffffff84002a88:	4705                	li	a4,1
ffffffff84002a8a:	1702                	slli	a4,a4,0x20
ffffffff84002a8c:	97ba                	add	a5,a5,a4
ffffffff84002a8e:	83b1                	srli	a5,a5,0xc
ffffffff84002a90:	577d                	li	a4,-1
ffffffff84002a92:	01475693          	srli	a3,a4,0x14
ffffffff84002a96:	8ff5                	and	a5,a5,a3
ffffffff84002a98:	177e                	slli	a4,a4,0x3f
ffffffff84002a9a:	8fd9                	or	a5,a5,a4
ffffffff84002a9c:	18079073          	csrw	satp,a5
ffffffff84002aa0:	12000073          	sfence.vma
ffffffff84002aa4:	bfc1                	j	ffffffff84002a74 <setVMRoot+0x90>

ffffffff84002aa6 <Arch_switchToThread>:
ffffffff84002aa6:	1141                	addi	sp,sp,-16
ffffffff84002aa8:	e406                	sd	ra,8(sp)
ffffffff84002aaa:	f3bff0ef          	jal	ra,ffffffff840029e4 <setVMRoot>
ffffffff84002aae:	60a2                	ld	ra,8(sp)
ffffffff84002ab0:	0141                	addi	sp,sp,16
ffffffff84002ab2:	8082                	ret

ffffffff84002ab4 <Arch_switchToIdleThread>:
ffffffff84002ab4:	1141                	addi	sp,sp,-16
ffffffff84002ab6:	e406                	sd	ra,8(sp)
ffffffff84002ab8:	0001d517          	auipc	a0,0x1d
ffffffff84002abc:	d9853503          	ld	a0,-616(a0) # ffffffff8401f850 <ksIdleThread>
ffffffff84002ac0:	f25ff0ef          	jal	ra,ffffffff840029e4 <setVMRoot>
ffffffff84002ac4:	60a2                	ld	ra,8(sp)
ffffffff84002ac6:	0141                	addi	sp,sp,16
ffffffff84002ac8:	8082                	ret

ffffffff84002aca <deleteASIDPool>:
ffffffff84002aca:	8125                	srli	a0,a0,0x9
ffffffff84002acc:	00351713          	slli	a4,a0,0x3
ffffffff84002ad0:	0000a797          	auipc	a5,0xa
ffffffff84002ad4:	53078793          	addi	a5,a5,1328 # ffffffff8400d000 <riscvKSASIDTable>
ffffffff84002ad8:	97ba                	add	a5,a5,a4
ffffffff84002ada:	639c                	ld	a5,0(a5)
ffffffff84002adc:	00b78363          	beq	a5,a1,ffffffff84002ae2 <deleteASIDPool+0x18>
ffffffff84002ae0:	8082                	ret
ffffffff84002ae2:	1141                	addi	sp,sp,-16
ffffffff84002ae4:	e406                	sd	ra,8(sp)
ffffffff84002ae6:	0000a797          	auipc	a5,0xa
ffffffff84002aea:	51a78793          	addi	a5,a5,1306 # ffffffff8400d000 <riscvKSASIDTable>
ffffffff84002aee:	00e78533          	add	a0,a5,a4
ffffffff84002af2:	00053023          	sd	zero,0(a0)
ffffffff84002af6:	0001d517          	auipc	a0,0x1d
ffffffff84002afa:	d6253503          	ld	a0,-670(a0) # ffffffff8401f858 <ksCurThread>
ffffffff84002afe:	ee7ff0ef          	jal	ra,ffffffff840029e4 <setVMRoot>
ffffffff84002b02:	60a2                	ld	ra,8(sp)
ffffffff84002b04:	0141                	addi	sp,sp,16
ffffffff84002b06:	8082                	ret

ffffffff84002b08 <deleteASID>:
ffffffff84002b08:	00955793          	srli	a5,a0,0x9
ffffffff84002b0c:	00379713          	slli	a4,a5,0x3
ffffffff84002b10:	0000a797          	auipc	a5,0xa
ffffffff84002b14:	4f078793          	addi	a5,a5,1264 # ffffffff8400d000 <riscvKSASIDTable>
ffffffff84002b18:	97ba                	add	a5,a5,a4
ffffffff84002b1a:	639c                	ld	a5,0(a5)
ffffffff84002b1c:	cb81                	beqz	a5,ffffffff84002b2c <deleteASID+0x24>
ffffffff84002b1e:	1ff57713          	andi	a4,a0,511
ffffffff84002b22:	070e                	slli	a4,a4,0x3
ffffffff84002b24:	97ba                	add	a5,a5,a4
ffffffff84002b26:	6398                	ld	a4,0(a5)
ffffffff84002b28:	00b70363          	beq	a4,a1,ffffffff84002b2e <deleteASID+0x26>
ffffffff84002b2c:	8082                	ret
ffffffff84002b2e:	1141                	addi	sp,sp,-16
ffffffff84002b30:	e406                	sd	ra,8(sp)
ffffffff84002b32:	12a00073          	sfence.vma	zero,a0
ffffffff84002b36:	0007b023          	sd	zero,0(a5)
ffffffff84002b3a:	0001d517          	auipc	a0,0x1d
ffffffff84002b3e:	d1e53503          	ld	a0,-738(a0) # ffffffff8401f858 <ksCurThread>
ffffffff84002b42:	ea3ff0ef          	jal	ra,ffffffff840029e4 <setVMRoot>
ffffffff84002b46:	60a2                	ld	ra,8(sp)
ffffffff84002b48:	0141                	addi	sp,sp,16
ffffffff84002b4a:	8082                	ret

ffffffff84002b4c <isValidVTableRoot>:
ffffffff84002b4c:	1141                	addi	sp,sp,-16
ffffffff84002b4e:	03b55713          	srli	a4,a0,0x3b
ffffffff84002b52:	478d                	li	a5,3
ffffffff84002b54:	911d                	srli	a0,a0,0x27
ffffffff84002b56:	8905                	andi	a0,a0,1
ffffffff84002b58:	00f70363          	beq	a4,a5,ffffffff84002b5e <isValidVTableRoot+0x12>
ffffffff84002b5c:	4501                	li	a0,0
ffffffff84002b5e:	0141                	addi	sp,sp,16
ffffffff84002b60:	8082                	ret

ffffffff84002b62 <checkValidIPCBuffer>:
ffffffff84002b62:	1141                	addi	sp,sp,-16
ffffffff84002b64:	03b5d713          	srli	a4,a1,0x3b
ffffffff84002b68:	4785                	li	a5,1
ffffffff84002b6a:	00f71a63          	bne	a4,a5,ffffffff84002b7e <checkValidIPCBuffer+0x1c>
ffffffff84002b6e:	91d9                	srli	a1,a1,0x36
ffffffff84002b70:	8985                	andi	a1,a1,1
ffffffff84002b72:	ed89                	bnez	a1,ffffffff84002b8c <checkValidIPCBuffer+0x2a>
ffffffff84002b74:	3ff57513          	andi	a0,a0,1023
ffffffff84002b78:	e10d                	bnez	a0,ffffffff84002b9a <checkValidIPCBuffer+0x38>
ffffffff84002b7a:	0141                	addi	sp,sp,16
ffffffff84002b7c:	8082                	ret
ffffffff84002b7e:	478d                	li	a5,3
ffffffff84002b80:	0000b717          	auipc	a4,0xb
ffffffff84002b84:	8cf73023          	sd	a5,-1856(a4) # ffffffff8400d440 <current_syscall_error+0x30>
ffffffff84002b88:	450d                	li	a0,3
ffffffff84002b8a:	bfc5                	j	ffffffff84002b7a <checkValidIPCBuffer+0x18>
ffffffff84002b8c:	478d                	li	a5,3
ffffffff84002b8e:	0000b717          	auipc	a4,0xb
ffffffff84002b92:	8af73923          	sd	a5,-1870(a4) # ffffffff8400d440 <current_syscall_error+0x30>
ffffffff84002b96:	450d                	li	a0,3
ffffffff84002b98:	b7cd                	j	ffffffff84002b7a <checkValidIPCBuffer+0x18>
ffffffff84002b9a:	4795                	li	a5,5
ffffffff84002b9c:	0000b717          	auipc	a4,0xb
ffffffff84002ba0:	8af73223          	sd	a5,-1884(a4) # ffffffff8400d440 <current_syscall_error+0x30>
ffffffff84002ba4:	450d                	li	a0,3
ffffffff84002ba6:	bfd1                	j	ffffffff84002b7a <checkValidIPCBuffer+0x18>

ffffffff84002ba8 <maskVMRights>:
ffffffff84002ba8:	87aa                	mv	a5,a0
ffffffff84002baa:	4709                	li	a4,2
ffffffff84002bac:	00e50763          	beq	a0,a4,ffffffff84002bba <maskVMRights+0x12>
ffffffff84002bb0:	470d                	li	a4,3
ffffffff84002bb2:	4505                	li	a0,1
ffffffff84002bb4:	00e78863          	beq	a5,a4,ffffffff84002bc4 <maskVMRights+0x1c>
ffffffff84002bb8:	8082                	ret
ffffffff84002bba:	8185                	srli	a1,a1,0x1
ffffffff84002bbc:	8985                	andi	a1,a1,1
ffffffff84002bbe:	00158513          	addi	a0,a1,1
ffffffff84002bc2:	8082                	ret
ffffffff84002bc4:	0015d793          	srli	a5,a1,0x1
ffffffff84002bc8:	8b85                	andi	a5,a5,1
ffffffff84002bca:	d7fd                	beqz	a5,ffffffff84002bb8 <maskVMRights+0x10>
ffffffff84002bcc:	8985                	andi	a1,a1,1
ffffffff84002bce:	00258513          	addi	a0,a1,2
ffffffff84002bd2:	b7dd                	j	ffffffff84002bb8 <maskVMRights+0x10>

ffffffff84002bd4 <performPageTableInvocationMap>:
ffffffff84002bd4:	1141                	addi	sp,sp,-16
ffffffff84002bd6:	e02a                	sd	a0,0(sp)
ffffffff84002bd8:	e42e                	sd	a1,8(sp)
ffffffff84002bda:	e208                	sd	a0,0(a2)
ffffffff84002bdc:	e60c                	sd	a1,8(a2)
ffffffff84002bde:	e314                	sd	a3,0(a4)
ffffffff84002be0:	12000073          	sfence.vma
ffffffff84002be4:	4501                	li	a0,0
ffffffff84002be6:	0141                	addi	sp,sp,16
ffffffff84002be8:	8082                	ret

ffffffff84002bea <performPageInvocationMapPTE>:
ffffffff84002bea:	1141                	addi	sp,sp,-16
ffffffff84002bec:	e02a                	sd	a0,0(sp)
ffffffff84002bee:	e42e                	sd	a1,8(sp)
ffffffff84002bf0:	e208                	sd	a0,0(a2)
ffffffff84002bf2:	e60c                	sd	a1,8(a2)
ffffffff84002bf4:	e314                	sd	a3,0(a4)
ffffffff84002bf6:	12000073          	sfence.vma
ffffffff84002bfa:	4501                	li	a0,0
ffffffff84002bfc:	0141                	addi	sp,sp,16
ffffffff84002bfe:	8082                	ret

ffffffff84002c00 <performPageInvocationUnmap>:
ffffffff84002c00:	1101                	addi	sp,sp,-32
ffffffff84002c02:	ec06                	sd	ra,24(sp)
ffffffff84002c04:	e822                	sd	s0,16(sp)
ffffffff84002c06:	e02a                	sd	a0,0(sp)
ffffffff84002c08:	8432                	mv	s0,a2
ffffffff84002c0a:	87ae                	mv	a5,a1
ffffffff84002c0c:	91c1                	srli	a1,a1,0x30
ffffffff84002c0e:	c98d                	beqz	a1,ffffffff84002c40 <performPageInvocationUnmap+0x40>
ffffffff84002c10:	872a                	mv	a4,a0
ffffffff84002c12:	9165                	srli	a0,a0,0x39
ffffffff84002c14:	890d                	andi	a0,a0,3
ffffffff84002c16:	01971613          	slli	a2,a4,0x19
ffffffff84002c1a:	8265                	srli	a2,a2,0x19
ffffffff84002c1c:	9319                	srli	a4,a4,0x26
ffffffff84002c1e:	8b05                	andi	a4,a4,1
ffffffff84002c20:	c701                	beqz	a4,ffffffff84002c28 <performPageInvocationUnmap+0x28>
ffffffff84002c22:	577d                	li	a4,-1
ffffffff84002c24:	171e                	slli	a4,a4,0x27
ffffffff84002c26:	8e59                	or	a2,a2,a4
ffffffff84002c28:	83a5                	srli	a5,a5,0x9
ffffffff84002c2a:	01979693          	slli	a3,a5,0x19
ffffffff84002c2e:	82e5                	srli	a3,a3,0x19
ffffffff84002c30:	9399                	srli	a5,a5,0x26
ffffffff84002c32:	8b85                	andi	a5,a5,1
ffffffff84002c34:	c781                	beqz	a5,ffffffff84002c3c <performPageInvocationUnmap+0x3c>
ffffffff84002c36:	57fd                	li	a5,-1
ffffffff84002c38:	179e                	slli	a5,a5,0x27
ffffffff84002c3a:	8edd                	or	a3,a3,a5
ffffffff84002c3c:	d1bff0ef          	jal	ra,ffffffff84002956 <unmapPage>
ffffffff84002c40:	6418                	ld	a4,8(s0)
ffffffff84002c42:	57fd                	li	a5,-1
ffffffff84002c44:	0107d693          	srli	a3,a5,0x10
ffffffff84002c48:	8f75                	and	a4,a4,a3
ffffffff84002c4a:	6014                	ld	a3,0(s0)
ffffffff84002c4c:	179e                	slli	a5,a5,0x27
ffffffff84002c4e:	8ff5                	and	a5,a5,a3
ffffffff84002c50:	e01c                	sd	a5,0(s0)
ffffffff84002c52:	e418                	sd	a4,8(s0)
ffffffff84002c54:	4501                	li	a0,0
ffffffff84002c56:	60e2                	ld	ra,24(sp)
ffffffff84002c58:	6442                	ld	s0,16(sp)
ffffffff84002c5a:	6105                	addi	sp,sp,32
ffffffff84002c5c:	8082                	ret

ffffffff84002c5e <getRestartPC>:
ffffffff84002c5e:	10853503          	ld	a0,264(a0)
ffffffff84002c62:	8082                	ret

ffffffff84002c64 <setNextPC>:
ffffffff84002c64:	10b53823          	sd	a1,272(a0)
ffffffff84002c68:	8082                	ret

ffffffff84002c6a <setIRQTrigger>:
ffffffff84002c6a:	8082                	ret

ffffffff84002c6c <plat_cleanL2Range>:
ffffffff84002c6c:	8082                	ret

ffffffff84002c6e <plat_invalidateL2Range>:
ffffffff84002c6e:	8082                	ret

ffffffff84002c70 <plat_cleanInvalidateL2Range>:
ffffffff84002c70:	8082                	ret

ffffffff84002c72 <getNBSendRecvDest>:
ffffffff84002c72:	0001d797          	auipc	a5,0x1d
ffffffff84002c76:	be67b783          	ld	a5,-1050(a5) # ffffffff8401f858 <ksCurThread>
ffffffff84002c7a:	7388                	ld	a0,32(a5)
ffffffff84002c7c:	8082                	ret

ffffffff84002c7e <Arch_checkIRQ>:
ffffffff84002c7e:	157d                	addi	a0,a0,-1
ffffffff84002c80:	03500793          	li	a5,53
ffffffff84002c84:	00a7e463          	bltu	a5,a0,ffffffff84002c8c <Arch_checkIRQ+0xe>
ffffffff84002c88:	4501                	li	a0,0
ffffffff84002c8a:	8082                	ret
ffffffff84002c8c:	0000a797          	auipc	a5,0xa
ffffffff84002c90:	37478793          	addi	a5,a5,884 # ffffffff8400d000 <riscvKSASIDTable>
ffffffff84002c94:	4711                	li	a4,4
ffffffff84002c96:	44e7b023          	sd	a4,1088(a5)
ffffffff84002c9a:	4705                	li	a4,1
ffffffff84002c9c:	42e7b023          	sd	a4,1056(a5)
ffffffff84002ca0:	03600713          	li	a4,54
ffffffff84002ca4:	42e7b423          	sd	a4,1064(a5)
ffffffff84002ca8:	450d                	li	a0,3
ffffffff84002caa:	8082                	ret

ffffffff84002cac <Arch_deriveCap>:
ffffffff84002cac:	03b65793          	srli	a5,a2,0x3b
ffffffff84002cb0:	470d                	li	a4,3
ffffffff84002cb2:	02e78963          	beq	a5,a4,ffffffff84002ce4 <Arch_deriveCap+0x38>
ffffffff84002cb6:	00f77963          	bgeu	a4,a5,ffffffff84002cc8 <Arch_deriveCap+0x1c>
ffffffff84002cba:	17d5                	addi	a5,a5,-11
ffffffff84002cbc:	9bf5                	andi	a5,a5,-3
ffffffff84002cbe:	c7a1                	beqz	a5,ffffffff84002d06 <Arch_deriveCap+0x5a>
ffffffff84002cc0:	1101                	addi	sp,sp,-32
ffffffff84002cc2:	ec06                	sd	ra,24(sp)
ffffffff84002cc4:	da0ff0ef          	jal	ra,ffffffff84002264 <halt>
ffffffff84002cc8:	4705                	li	a4,1
ffffffff84002cca:	fee79be3          	bne	a5,a4,ffffffff84002cc0 <Arch_deriveCap+0x14>
ffffffff84002cce:	00053023          	sd	zero,0(a0)
ffffffff84002cd2:	57fd                	li	a5,-1
ffffffff84002cd4:	02779713          	slli	a4,a5,0x27
ffffffff84002cd8:	8e79                	and	a2,a2,a4
ffffffff84002cda:	e510                	sd	a2,8(a0)
ffffffff84002cdc:	83c1                	srli	a5,a5,0x10
ffffffff84002cde:	8efd                	and	a3,a3,a5
ffffffff84002ce0:	e914                	sd	a3,16(a0)
ffffffff84002ce2:	8082                	ret
ffffffff84002ce4:	02765713          	srli	a4,a2,0x27
ffffffff84002ce8:	8b05                	andi	a4,a4,1
ffffffff84002cea:	ef01                	bnez	a4,ffffffff84002d02 <Arch_deriveCap+0x56>
ffffffff84002cec:	468d                	li	a3,3
ffffffff84002cee:	0000a617          	auipc	a2,0xa
ffffffff84002cf2:	74d63923          	sd	a3,1874(a2) # ffffffff8400d440 <current_syscall_error+0x30>
ffffffff84002cf6:	86ba                	mv	a3,a4
ffffffff84002cf8:	863a                	mv	a2,a4
ffffffff84002cfa:	e11c                	sd	a5,0(a0)
ffffffff84002cfc:	e510                	sd	a2,8(a0)
ffffffff84002cfe:	e914                	sd	a3,16(a0)
ffffffff84002d00:	8082                	ret
ffffffff84002d02:	4781                	li	a5,0
ffffffff84002d04:	bfdd                	j	ffffffff84002cfa <Arch_deriveCap+0x4e>
ffffffff84002d06:	00053023          	sd	zero,0(a0)
ffffffff84002d0a:	e510                	sd	a2,8(a0)
ffffffff84002d0c:	e914                	sd	a3,16(a0)
ffffffff84002d0e:	8082                	ret

ffffffff84002d10 <Arch_updateCapData>:
ffffffff84002d10:	1101                	addi	sp,sp,-32
ffffffff84002d12:	8532                	mv	a0,a2
ffffffff84002d14:	85b6                	mv	a1,a3
ffffffff84002d16:	6105                	addi	sp,sp,32
ffffffff84002d18:	8082                	ret

ffffffff84002d1a <Arch_maskCapRights>:
ffffffff84002d1a:	7139                	addi	sp,sp,-64
ffffffff84002d1c:	fc06                	sd	ra,56(sp)
ffffffff84002d1e:	f822                	sd	s0,48(sp)
ffffffff84002d20:	f426                	sd	s1,40(sp)
ffffffff84002d22:	842e                	mv	s0,a1
ffffffff84002d24:	84b2                	mv	s1,a2
ffffffff84002d26:	03b5d713          	srli	a4,a1,0x3b
ffffffff84002d2a:	4785                	li	a5,1
ffffffff84002d2c:	00f70b63          	beq	a4,a5,ffffffff84002d42 <Arch_maskCapRights+0x28>
ffffffff84002d30:	e82e                	sd	a1,16(sp)
ffffffff84002d32:	ec32                	sd	a2,24(sp)
ffffffff84002d34:	6542                	ld	a0,16(sp)
ffffffff84002d36:	65e2                	ld	a1,24(sp)
ffffffff84002d38:	70e2                	ld	ra,56(sp)
ffffffff84002d3a:	7442                	ld	s0,48(sp)
ffffffff84002d3c:	74a2                	ld	s1,40(sp)
ffffffff84002d3e:	6121                	addi	sp,sp,64
ffffffff84002d40:	8082                	ret
ffffffff84002d42:	0375d793          	srli	a5,a1,0x37
ffffffff84002d46:	85aa                	mv	a1,a0
ffffffff84002d48:	0037f513          	andi	a0,a5,3
ffffffff84002d4c:	e5dff0ef          	jal	ra,ffffffff84002ba8 <maskVMRights>
ffffffff84002d50:	890d                	andi	a0,a0,3
ffffffff84002d52:	155e                	slli	a0,a0,0x37
ffffffff84002d54:	55f5                	li	a1,-3
ffffffff84002d56:	15de                	slli	a1,a1,0x37
ffffffff84002d58:	15fd                	addi	a1,a1,-1
ffffffff84002d5a:	8c6d                	and	s0,s0,a1
ffffffff84002d5c:	8c49                	or	s0,s0,a0
ffffffff84002d5e:	e822                	sd	s0,16(sp)
ffffffff84002d60:	ec26                	sd	s1,24(sp)
ffffffff84002d62:	bfc9                	j	ffffffff84002d34 <Arch_maskCapRights+0x1a>

ffffffff84002d64 <Arch_finaliseCap>:
ffffffff84002d64:	715d                	addi	sp,sp,-80
ffffffff84002d66:	e486                	sd	ra,72(sp)
ffffffff84002d68:	e0a2                	sd	s0,64(sp)
ffffffff84002d6a:	fc26                	sd	s1,56(sp)
ffffffff84002d6c:	f84a                	sd	s2,48(sp)
ffffffff84002d6e:	f44e                	sd	s3,40(sp)
ffffffff84002d70:	842a                	mv	s0,a0
ffffffff84002d72:	8932                	mv	s2,a2
ffffffff84002d74:	84ae                	mv	s1,a1
ffffffff84002d76:	03b5d793          	srli	a5,a1,0x3b
ffffffff84002d7a:	470d                	li	a4,3
ffffffff84002d7c:	06e78863          	beq	a5,a4,ffffffff84002dec <Arch_finaliseCap+0x88>
ffffffff84002d80:	4735                	li	a4,13
ffffffff84002d82:	0ce78663          	beq	a5,a4,ffffffff84002e4e <Arch_finaliseCap+0xea>
ffffffff84002d86:	4705                	li	a4,1
ffffffff84002d88:	02e78263          	beq	a5,a4,ffffffff84002dac <Arch_finaliseCap+0x48>
ffffffff84002d8c:	00043023          	sd	zero,0(s0)
ffffffff84002d90:	00043423          	sd	zero,8(s0)
ffffffff84002d94:	00043823          	sd	zero,16(s0)
ffffffff84002d98:	00043c23          	sd	zero,24(s0)
ffffffff84002d9c:	8522                	mv	a0,s0
ffffffff84002d9e:	60a6                	ld	ra,72(sp)
ffffffff84002da0:	6406                	ld	s0,64(sp)
ffffffff84002da2:	74e2                	ld	s1,56(sp)
ffffffff84002da4:	7942                	ld	s2,48(sp)
ffffffff84002da6:	79a2                	ld	s3,40(sp)
ffffffff84002da8:	6161                	addi	sp,sp,80
ffffffff84002daa:	8082                	ret
ffffffff84002dac:	03065593          	srli	a1,a2,0x30
ffffffff84002db0:	ddf1                	beqz	a1,ffffffff84002d8c <Arch_finaliseCap+0x28>
ffffffff84002db2:	0394d513          	srli	a0,s1,0x39
ffffffff84002db6:	890d                	andi	a0,a0,3
ffffffff84002db8:	01949613          	slli	a2,s1,0x19
ffffffff84002dbc:	8265                	srli	a2,a2,0x19
ffffffff84002dbe:	9099                	srli	s1,s1,0x26
ffffffff84002dc0:	8885                	andi	s1,s1,1
ffffffff84002dc2:	c481                	beqz	s1,ffffffff84002dca <Arch_finaliseCap+0x66>
ffffffff84002dc4:	57fd                	li	a5,-1
ffffffff84002dc6:	179e                	slli	a5,a5,0x27
ffffffff84002dc8:	8e5d                	or	a2,a2,a5
ffffffff84002dca:	00995913          	srli	s2,s2,0x9
ffffffff84002dce:	01991693          	slli	a3,s2,0x19
ffffffff84002dd2:	82e5                	srli	a3,a3,0x19
ffffffff84002dd4:	02695913          	srli	s2,s2,0x26
ffffffff84002dd8:	00197913          	andi	s2,s2,1
ffffffff84002ddc:	00090563          	beqz	s2,ffffffff84002de6 <Arch_finaliseCap+0x82>
ffffffff84002de0:	57fd                	li	a5,-1
ffffffff84002de2:	179e                	slli	a5,a5,0x27
ffffffff84002de4:	8edd                	or	a3,a3,a5
ffffffff84002de6:	b71ff0ef          	jal	ra,ffffffff84002956 <unmapPage>
ffffffff84002dea:	b74d                	j	ffffffff84002d8c <Arch_finaliseCap+0x28>
ffffffff84002dec:	d2c5                	beqz	a3,ffffffff84002d8c <Arch_finaliseCap+0x28>
ffffffff84002dee:	0275d793          	srli	a5,a1,0x27
ffffffff84002df2:	8b85                	andi	a5,a5,1
ffffffff84002df4:	dfc1                	beqz	a5,ffffffff84002d8c <Arch_finaliseCap+0x28>
ffffffff84002df6:	03065993          	srli	s3,a2,0x30
ffffffff84002dfa:	854e                	mv	a0,s3
ffffffff84002dfc:	afaff0ef          	jal	ra,ffffffff840020f6 <findVSpaceForASID>
ffffffff84002e00:	e82a                	sd	a0,16(sp)
ffffffff84002e02:	ec2e                	sd	a1,24(sp)
ffffffff84002e04:	00995913          	srli	s2,s2,0x9
ffffffff84002e08:	01991613          	slli	a2,s2,0x19
ffffffff84002e0c:	8265                	srli	a2,a2,0x19
ffffffff84002e0e:	02695913          	srli	s2,s2,0x26
ffffffff84002e12:	00197913          	andi	s2,s2,1
ffffffff84002e16:	00090563          	beqz	s2,ffffffff84002e20 <Arch_finaliseCap+0xbc>
ffffffff84002e1a:	57fd                	li	a5,-1
ffffffff84002e1c:	179e                	slli	a5,a5,0x27
ffffffff84002e1e:	8e5d                	or	a2,a2,a5
ffffffff84002e20:	67c2                	ld	a5,16(sp)
ffffffff84002e22:	e781                	bnez	a5,ffffffff84002e2a <Arch_finaliseCap+0xc6>
ffffffff84002e24:	67e2                	ld	a5,24(sp)
ffffffff84002e26:	00c78f63          	beq	a5,a2,ffffffff84002e44 <Arch_finaliseCap+0xe0>
ffffffff84002e2a:	01949593          	slli	a1,s1,0x19
ffffffff84002e2e:	81e5                	srli	a1,a1,0x19
ffffffff84002e30:	9099                	srli	s1,s1,0x26
ffffffff84002e32:	8885                	andi	s1,s1,1
ffffffff84002e34:	c481                	beqz	s1,ffffffff84002e3c <Arch_finaliseCap+0xd8>
ffffffff84002e36:	57fd                	li	a5,-1
ffffffff84002e38:	179e                	slli	a5,a5,0x27
ffffffff84002e3a:	8ddd                	or	a1,a1,a5
ffffffff84002e3c:	854e                	mv	a0,s3
ffffffff84002e3e:	a6fff0ef          	jal	ra,ffffffff840028ac <unmapPageTable>
ffffffff84002e42:	b7a9                	j	ffffffff84002d8c <Arch_finaliseCap+0x28>
ffffffff84002e44:	85b2                	mv	a1,a2
ffffffff84002e46:	854e                	mv	a0,s3
ffffffff84002e48:	cc1ff0ef          	jal	ra,ffffffff84002b08 <deleteASID>
ffffffff84002e4c:	b781                	j	ffffffff84002d8c <Arch_finaliseCap+0x28>
ffffffff84002e4e:	de9d                	beqz	a3,ffffffff84002d8c <Arch_finaliseCap+0x28>
ffffffff84002e50:	02b5d513          	srli	a0,a1,0x2b
ffffffff84002e54:	1542                	slli	a0,a0,0x30
ffffffff84002e56:	9141                	srli	a0,a0,0x30
ffffffff84002e58:	00259493          	slli	s1,a1,0x2
ffffffff84002e5c:	f80005b7          	lui	a1,0xf8000
ffffffff84002e60:	81e5                	srli	a1,a1,0x19
ffffffff84002e62:	8de5                	and	a1,a1,s1
ffffffff84002e64:	9099                	srli	s1,s1,0x26
ffffffff84002e66:	8885                	andi	s1,s1,1
ffffffff84002e68:	c481                	beqz	s1,ffffffff84002e70 <Arch_finaliseCap+0x10c>
ffffffff84002e6a:	57fd                	li	a5,-1
ffffffff84002e6c:	179e                	slli	a5,a5,0x27
ffffffff84002e6e:	8ddd                	or	a1,a1,a5
ffffffff84002e70:	c5bff0ef          	jal	ra,ffffffff84002aca <deleteASIDPool>
ffffffff84002e74:	bf21                	j	ffffffff84002d8c <Arch_finaliseCap+0x28>

ffffffff84002e76 <Arch_sameRegionAs>:
ffffffff84002e76:	03b55793          	srli	a5,a0,0x3b
ffffffff84002e7a:	482d                	li	a6,11
ffffffff84002e7c:	15078663          	beq	a5,a6,ffffffff84002fc8 <Arch_sameRegionAs+0x152>
ffffffff84002e80:	872a                	mv	a4,a0
ffffffff84002e82:	04f86863          	bltu	a6,a5,ffffffff84002ed2 <Arch_sameRegionAs+0x5c>
ffffffff84002e86:	4805                	li	a6,1
ffffffff84002e88:	09078c63          	beq	a5,a6,ffffffff84002f20 <Arch_sameRegionAs+0xaa>
ffffffff84002e8c:	480d                	li	a6,3
ffffffff84002e8e:	05079063          	bne	a5,a6,ffffffff84002ece <Arch_sameRegionAs+0x58>
ffffffff84002e92:	926d                	srli	a2,a2,0x3b
ffffffff84002e94:	478d                	li	a5,3
ffffffff84002e96:	4501                	li	a0,0
ffffffff84002e98:	08f61a63          	bne	a2,a5,ffffffff84002f2c <Arch_sameRegionAs+0xb6>
ffffffff84002e9c:	81a5                	srli	a1,a1,0x9
ffffffff84002e9e:	01959513          	slli	a0,a1,0x19
ffffffff84002ea2:	01955793          	srli	a5,a0,0x19
ffffffff84002ea6:	9199                	srli	a1,a1,0x26
ffffffff84002ea8:	8985                	andi	a1,a1,1
ffffffff84002eaa:	c581                	beqz	a1,ffffffff84002eb2 <Arch_sameRegionAs+0x3c>
ffffffff84002eac:	577d                	li	a4,-1
ffffffff84002eae:	171e                	slli	a4,a4,0x27
ffffffff84002eb0:	8fd9                	or	a5,a5,a4
ffffffff84002eb2:	82a5                	srli	a3,a3,0x9
ffffffff84002eb4:	01969513          	slli	a0,a3,0x19
ffffffff84002eb8:	8165                	srli	a0,a0,0x19
ffffffff84002eba:	9299                	srli	a3,a3,0x26
ffffffff84002ebc:	8a85                	andi	a3,a3,1
ffffffff84002ebe:	c681                	beqz	a3,ffffffff84002ec6 <Arch_sameRegionAs+0x50>
ffffffff84002ec0:	577d                	li	a4,-1
ffffffff84002ec2:	171e                	slli	a4,a4,0x27
ffffffff84002ec4:	8d59                	or	a0,a0,a4
ffffffff84002ec6:	8d1d                	sub	a0,a0,a5
ffffffff84002ec8:	00153513          	seqz	a0,a0
ffffffff84002ecc:	8082                	ret
ffffffff84002ece:	4501                	li	a0,0
ffffffff84002ed0:	8082                	ret
ffffffff84002ed2:	46b5                	li	a3,13
ffffffff84002ed4:	04d79463          	bne	a5,a3,ffffffff84002f1c <Arch_sameRegionAs+0xa6>
ffffffff84002ed8:	03b65793          	srli	a5,a2,0x3b
ffffffff84002edc:	46b5                	li	a3,13
ffffffff84002ede:	4501                	li	a0,0
ffffffff84002ee0:	04d79663          	bne	a5,a3,ffffffff84002f2c <Arch_sameRegionAs+0xb6>
ffffffff84002ee4:	070a                	slli	a4,a4,0x2
ffffffff84002ee6:	f8000537          	lui	a0,0xf8000
ffffffff84002eea:	8165                	srli	a0,a0,0x19
ffffffff84002eec:	8d79                	and	a0,a0,a4
ffffffff84002eee:	9319                	srli	a4,a4,0x26
ffffffff84002ef0:	8b05                	andi	a4,a4,1
ffffffff84002ef2:	c701                	beqz	a4,ffffffff84002efa <Arch_sameRegionAs+0x84>
ffffffff84002ef4:	57fd                	li	a5,-1
ffffffff84002ef6:	179e                	slli	a5,a5,0x27
ffffffff84002ef8:	8d5d                	or	a0,a0,a5
ffffffff84002efa:	00261713          	slli	a4,a2,0x2
ffffffff84002efe:	f80007b7          	lui	a5,0xf8000
ffffffff84002f02:	83e5                	srli	a5,a5,0x19
ffffffff84002f04:	8ff9                	and	a5,a5,a4
ffffffff84002f06:	9319                	srli	a4,a4,0x26
ffffffff84002f08:	8b05                	andi	a4,a4,1
ffffffff84002f0a:	c701                	beqz	a4,ffffffff84002f12 <Arch_sameRegionAs+0x9c>
ffffffff84002f0c:	577d                	li	a4,-1
ffffffff84002f0e:	171e                	slli	a4,a4,0x27
ffffffff84002f10:	8fd9                	or	a5,a5,a4
ffffffff84002f12:	40a78533          	sub	a0,a5,a0
ffffffff84002f16:	00153513          	seqz	a0,a0
ffffffff84002f1a:	8082                	ret
ffffffff84002f1c:	4501                	li	a0,0
ffffffff84002f1e:	8082                	ret
ffffffff84002f20:	03b65793          	srli	a5,a2,0x3b
ffffffff84002f24:	4805                	li	a6,1
ffffffff84002f26:	4501                	li	a0,0
ffffffff84002f28:	01078363          	beq	a5,a6,ffffffff84002f2e <Arch_sameRegionAs+0xb8>
ffffffff84002f2c:	8082                	ret
ffffffff84002f2e:	7179                	addi	sp,sp,-48
ffffffff84002f30:	f406                	sd	ra,40(sp)
ffffffff84002f32:	81a5                	srli	a1,a1,0x9
ffffffff84002f34:	01959793          	slli	a5,a1,0x19
ffffffff84002f38:	83e5                	srli	a5,a5,0x19
ffffffff84002f3a:	9199                	srli	a1,a1,0x26
ffffffff84002f3c:	8985                	andi	a1,a1,1
ffffffff84002f3e:	c581                	beqz	a1,ffffffff84002f46 <Arch_sameRegionAs+0xd0>
ffffffff84002f40:	55fd                	li	a1,-1
ffffffff84002f42:	159e                	slli	a1,a1,0x27
ffffffff84002f44:	8fcd                	or	a5,a5,a1
ffffffff84002f46:	82a5                	srli	a3,a3,0x9
ffffffff84002f48:	01969593          	slli	a1,a3,0x19
ffffffff84002f4c:	81e5                	srli	a1,a1,0x19
ffffffff84002f4e:	9299                	srli	a3,a3,0x26
ffffffff84002f50:	8a85                	andi	a3,a3,1
ffffffff84002f52:	c681                	beqz	a3,ffffffff84002f5a <Arch_sameRegionAs+0xe4>
ffffffff84002f54:	56fd                	li	a3,-1
ffffffff84002f56:	169e                	slli	a3,a3,0x27
ffffffff84002f58:	8dd5                	or	a1,a1,a3
ffffffff84002f5a:	9365                	srli	a4,a4,0x39
ffffffff84002f5c:	8b0d                	andi	a4,a4,3
ffffffff84002f5e:	4685                	li	a3,1
ffffffff84002f60:	00d70863          	beq	a4,a3,ffffffff84002f70 <Arch_sameRegionAs+0xfa>
ffffffff84002f64:	4689                	li	a3,2
ffffffff84002f66:	00d70763          	beq	a4,a3,ffffffff84002f74 <Arch_sameRegionAs+0xfe>
ffffffff84002f6a:	c30d                	beqz	a4,ffffffff84002f8c <Arch_sameRegionAs+0x116>
ffffffff84002f6c:	af8ff0ef          	jal	ra,ffffffff84002264 <halt>
ffffffff84002f70:	4855                	li	a6,21
ffffffff84002f72:	a011                	j	ffffffff84002f76 <Arch_sameRegionAs+0x100>
ffffffff84002f74:	4879                	li	a6,30
ffffffff84002f76:	9265                	srli	a2,a2,0x39
ffffffff84002f78:	8a0d                	andi	a2,a2,3
ffffffff84002f7a:	4705                	li	a4,1
ffffffff84002f7c:	00e60a63          	beq	a2,a4,ffffffff84002f90 <Arch_sameRegionAs+0x11a>
ffffffff84002f80:	4709                	li	a4,2
ffffffff84002f82:	00e60963          	beq	a2,a4,ffffffff84002f94 <Arch_sameRegionAs+0x11e>
ffffffff84002f86:	ce1d                	beqz	a2,ffffffff84002fc4 <Arch_sameRegionAs+0x14e>
ffffffff84002f88:	adcff0ef          	jal	ra,ffffffff84002264 <halt>
ffffffff84002f8c:	4831                	li	a6,12
ffffffff84002f8e:	b7e5                	j	ffffffff84002f76 <Arch_sameRegionAs+0x100>
ffffffff84002f90:	4755                	li	a4,21
ffffffff84002f92:	a011                	j	ffffffff84002f96 <Arch_sameRegionAs+0x120>
ffffffff84002f94:	4779                	li	a4,30
ffffffff84002f96:	4501                	li	a0,0
ffffffff84002f98:	02f5e363          	bltu	a1,a5,ffffffff84002fbe <Arch_sameRegionAs+0x148>
ffffffff84002f9c:	4685                	li	a3,1
ffffffff84002f9e:	00e69733          	sll	a4,a3,a4
ffffffff84002fa2:	fff58613          	addi	a2,a1,-1 # fffffffff7ffffff <ki_end+0x73fdafff>
ffffffff84002fa6:	9732                	add	a4,a4,a2
ffffffff84002fa8:	010696b3          	sll	a3,a3,a6
ffffffff84002fac:	17fd                	addi	a5,a5,-1
ffffffff84002fae:	97b6                	add	a5,a5,a3
ffffffff84002fb0:	00e7e763          	bltu	a5,a4,ffffffff84002fbe <Arch_sameRegionAs+0x148>
ffffffff84002fb4:	00b73533          	sltu	a0,a4,a1
ffffffff84002fb8:	00154513          	xori	a0,a0,1
ffffffff84002fbc:	2501                	sext.w	a0,a0
ffffffff84002fbe:	70a2                	ld	ra,40(sp)
ffffffff84002fc0:	6145                	addi	sp,sp,48
ffffffff84002fc2:	8082                	ret
ffffffff84002fc4:	4731                	li	a4,12
ffffffff84002fc6:	bfc1                	j	ffffffff84002f96 <Arch_sameRegionAs+0x120>
ffffffff84002fc8:	03b65513          	srli	a0,a2,0x3b
ffffffff84002fcc:	1555                	addi	a0,a0,-11
ffffffff84002fce:	00153513          	seqz	a0,a0
ffffffff84002fd2:	8082                	ret

ffffffff84002fd4 <Arch_sameObjectAs>:
ffffffff84002fd4:	7179                	addi	sp,sp,-48
ffffffff84002fd6:	f406                	sd	ra,40(sp)
ffffffff84002fd8:	e82a                	sd	a0,16(sp)
ffffffff84002fda:	ec2e                	sd	a1,24(sp)
ffffffff84002fdc:	e032                	sd	a2,0(sp)
ffffffff84002fde:	e436                	sd	a3,8(sp)
ffffffff84002fe0:	03b55713          	srli	a4,a0,0x3b
ffffffff84002fe4:	4785                	li	a5,1
ffffffff84002fe6:	00f70b63          	beq	a4,a5,ffffffff84002ffc <Arch_sameObjectAs+0x28>
ffffffff84002fea:	6602                	ld	a2,0(sp)
ffffffff84002fec:	66a2                	ld	a3,8(sp)
ffffffff84002fee:	6542                	ld	a0,16(sp)
ffffffff84002ff0:	65e2                	ld	a1,24(sp)
ffffffff84002ff2:	e85ff0ef          	jal	ra,ffffffff84002e76 <Arch_sameRegionAs>
ffffffff84002ff6:	70a2                	ld	ra,40(sp)
ffffffff84002ff8:	6145                	addi	sp,sp,48
ffffffff84002ffa:	8082                	ret
ffffffff84002ffc:	8732                	mv	a4,a2
ffffffff84002ffe:	03b65693          	srli	a3,a2,0x3b
ffffffff84003002:	fef694e3          	bne	a3,a5,ffffffff84002fea <Arch_sameObjectAs+0x16>
ffffffff84003006:	0095d793          	srli	a5,a1,0x9
ffffffff8400300a:	01979613          	slli	a2,a5,0x19
ffffffff8400300e:	8265                	srli	a2,a2,0x19
ffffffff84003010:	9399                	srli	a5,a5,0x26
ffffffff84003012:	8b85                	andi	a5,a5,1
ffffffff84003014:	c785                	beqz	a5,ffffffff8400303c <Arch_sameObjectAs+0x68>
ffffffff84003016:	56fd                	li	a3,-1
ffffffff84003018:	02769793          	slli	a5,a3,0x27
ffffffff8400301c:	8e5d                	or	a2,a2,a5
ffffffff8400301e:	67a2                	ld	a5,8(sp)
ffffffff84003020:	83a5                	srli	a5,a5,0x9
ffffffff84003022:	82e5                	srli	a3,a3,0x19
ffffffff84003024:	8efd                	and	a3,a3,a5
ffffffff84003026:	9399                	srli	a5,a5,0x26
ffffffff84003028:	8b85                	andi	a5,a5,1
ffffffff8400302a:	c799                	beqz	a5,ffffffff84003038 <Arch_sameObjectAs+0x64>
ffffffff8400302c:	57fd                	li	a5,-1
ffffffff8400302e:	179e                	slli	a5,a5,0x27
ffffffff84003030:	8edd                	or	a3,a3,a5
ffffffff84003032:	4781                	li	a5,0
ffffffff84003034:	00c68d63          	beq	a3,a2,ffffffff8400304e <Arch_sameObjectAs+0x7a>
ffffffff84003038:	853e                	mv	a0,a5
ffffffff8400303a:	bf75                	j	ffffffff84002ff6 <Arch_sameObjectAs+0x22>
ffffffff8400303c:	67a2                	ld	a5,8(sp)
ffffffff8400303e:	83a5                	srli	a5,a5,0x9
ffffffff84003040:	01979693          	slli	a3,a5,0x19
ffffffff84003044:	82e5                	srli	a3,a3,0x19
ffffffff84003046:	9399                	srli	a5,a5,0x26
ffffffff84003048:	8b85                	andi	a5,a5,1
ffffffff8400304a:	f3ed                	bnez	a5,ffffffff8400302c <Arch_sameObjectAs+0x58>
ffffffff8400304c:	b7dd                	j	ffffffff84003032 <Arch_sameObjectAs+0x5e>
ffffffff8400304e:	03975613          	srli	a2,a4,0x39
ffffffff84003052:	8a0d                	andi	a2,a2,3
ffffffff84003054:	03955693          	srli	a3,a0,0x39
ffffffff84003058:	8a8d                	andi	a3,a3,3
ffffffff8400305a:	fcd61fe3          	bne	a2,a3,ffffffff84003038 <Arch_sameObjectAs+0x64>
ffffffff8400305e:	03655793          	srli	a5,a0,0x36
ffffffff84003062:	9359                	srli	a4,a4,0x36
ffffffff84003064:	00174713          	xori	a4,a4,1
ffffffff84003068:	8b85                	andi	a5,a5,1
ffffffff8400306a:	8b05                	andi	a4,a4,1
ffffffff8400306c:	8f99                	sub	a5,a5,a4
ffffffff8400306e:	00f037b3          	snez	a5,a5
ffffffff84003072:	b7d9                	j	ffffffff84003038 <Arch_sameObjectAs+0x64>

ffffffff84003074 <Arch_getObjectSize>:
ffffffff84003074:	4725                	li	a4,9
ffffffff84003076:	02e50663          	beq	a0,a4,ffffffff840030a2 <Arch_getObjectSize+0x2e>
ffffffff8400307a:	87aa                	mv	a5,a0
ffffffff8400307c:	00a76b63          	bltu	a4,a0,ffffffff84003092 <Arch_getObjectSize+0x1e>
ffffffff84003080:	471d                	li	a4,7
ffffffff84003082:	4579                	li	a0,30
ffffffff84003084:	00e78663          	beq	a5,a4,ffffffff84003090 <Arch_getObjectSize+0x1c>
ffffffff84003088:	4721                	li	a4,8
ffffffff8400308a:	4531                	li	a0,12
ffffffff8400308c:	00e79763          	bne	a5,a4,ffffffff8400309a <Arch_getObjectSize+0x26>
ffffffff84003090:	8082                	ret
ffffffff84003092:	4729                	li	a4,10
ffffffff84003094:	4531                	li	a0,12
ffffffff84003096:	fee78de3          	beq	a5,a4,ffffffff84003090 <Arch_getObjectSize+0x1c>
ffffffff8400309a:	1141                	addi	sp,sp,-16
ffffffff8400309c:	e406                	sd	ra,8(sp)
ffffffff8400309e:	9c6ff0ef          	jal	ra,ffffffff84002264 <halt>
ffffffff840030a2:	4555                	li	a0,21
ffffffff840030a4:	b7f5                	j	ffffffff84003090 <Arch_getObjectSize+0x1c>

ffffffff840030a6 <Arch_createObject>:
ffffffff840030a6:	1101                	addi	sp,sp,-32
ffffffff840030a8:	ec06                	sd	ra,24(sp)
ffffffff840030aa:	47a5                	li	a5,9
ffffffff840030ac:	04f50863          	beq	a0,a5,ffffffff840030fc <Arch_createObject+0x56>
ffffffff840030b0:	02a7e963          	bltu	a5,a0,ffffffff840030e2 <Arch_createObject+0x3c>
ffffffff840030b4:	479d                	li	a5,7
ffffffff840030b6:	06f50063          	beq	a0,a5,ffffffff84003116 <Arch_createObject+0x70>
ffffffff840030ba:	47a1                	li	a5,8
ffffffff840030bc:	06f51a63          	bne	a0,a5,ffffffff84003130 <Arch_createObject+0x8a>
ffffffff840030c0:	8a85                	andi	a3,a3,1
ffffffff840030c2:	16da                	slli	a3,a3,0x36
ffffffff840030c4:	47cd                	li	a5,19
ffffffff840030c6:	17de                	slli	a5,a5,0x37
ffffffff840030c8:	8edd                	or	a3,a3,a5
ffffffff840030ca:	e036                	sd	a3,0(sp)
ffffffff840030cc:	05a6                	slli	a1,a1,0x9
ffffffff840030ce:	fe0007b7          	lui	a5,0xfe000
ffffffff840030d2:	83c1                	srli	a5,a5,0x10
ffffffff840030d4:	8dfd                	and	a1,a1,a5
ffffffff840030d6:	e42e                	sd	a1,8(sp)
ffffffff840030d8:	6502                	ld	a0,0(sp)
ffffffff840030da:	65a2                	ld	a1,8(sp)
ffffffff840030dc:	60e2                	ld	ra,24(sp)
ffffffff840030de:	6105                	addi	sp,sp,32
ffffffff840030e0:	8082                	ret
ffffffff840030e2:	47a9                	li	a5,10
ffffffff840030e4:	04f51663          	bne	a0,a5,ffffffff84003130 <Arch_createObject+0x8a>
ffffffff840030e8:	478d                	li	a5,3
ffffffff840030ea:	17ee                	slli	a5,a5,0x3b
ffffffff840030ec:	e03e                	sd	a5,0(sp)
ffffffff840030ee:	05a6                	slli	a1,a1,0x9
ffffffff840030f0:	fe0007b7          	lui	a5,0xfe000
ffffffff840030f4:	83c1                	srli	a5,a5,0x10
ffffffff840030f6:	8dfd                	and	a1,a1,a5
ffffffff840030f8:	e42e                	sd	a1,8(sp)
ffffffff840030fa:	bff9                	j	ffffffff840030d8 <Arch_createObject+0x32>
ffffffff840030fc:	8a85                	andi	a3,a3,1
ffffffff840030fe:	16da                	slli	a3,a3,0x36
ffffffff84003100:	47dd                	li	a5,23
ffffffff84003102:	17de                	slli	a5,a5,0x37
ffffffff84003104:	8edd                	or	a3,a3,a5
ffffffff84003106:	e036                	sd	a3,0(sp)
ffffffff84003108:	05a6                	slli	a1,a1,0x9
ffffffff8400310a:	fe0007b7          	lui	a5,0xfe000
ffffffff8400310e:	83c1                	srli	a5,a5,0x10
ffffffff84003110:	8dfd                	and	a1,a1,a5
ffffffff84003112:	e42e                	sd	a1,8(sp)
ffffffff84003114:	b7d1                	j	ffffffff840030d8 <Arch_createObject+0x32>
ffffffff84003116:	8a85                	andi	a3,a3,1
ffffffff84003118:	16da                	slli	a3,a3,0x36
ffffffff8400311a:	47ed                	li	a5,27
ffffffff8400311c:	17de                	slli	a5,a5,0x37
ffffffff8400311e:	8edd                	or	a3,a3,a5
ffffffff84003120:	e036                	sd	a3,0(sp)
ffffffff84003122:	05a6                	slli	a1,a1,0x9
ffffffff84003124:	fe0007b7          	lui	a5,0xfe000
ffffffff84003128:	83c1                	srli	a5,a5,0x10
ffffffff8400312a:	8dfd                	and	a1,a1,a5
ffffffff8400312c:	e42e                	sd	a1,8(sp)
ffffffff8400312e:	b76d                	j	ffffffff840030d8 <Arch_createObject+0x32>
ffffffff84003130:	934ff0ef          	jal	ra,ffffffff84002264 <halt>

ffffffff84003134 <Arch_prepareThreadDelete>:
ffffffff84003134:	8082                	ret

ffffffff84003136 <Arch_isFrameType>:
ffffffff84003136:	1565                	addi	a0,a0,-7
ffffffff84003138:	00353513          	sltiu	a0,a0,3
ffffffff8400313c:	8082                	ret

ffffffff8400313e <Arch_decodeTransfer>:
ffffffff8400313e:	4501                	li	a0,0
ffffffff84003140:	8082                	ret

ffffffff84003142 <Arch_performTransfer>:
ffffffff84003142:	4501                	li	a0,0
ffffffff84003144:	8082                	ret

ffffffff84003146 <resolveAddressBits>:
ffffffff84003146:	1101                	addi	sp,sp,-32
ffffffff84003148:	ec22                	sd	s0,24(sp)
ffffffff8400314a:	e826                	sd	s1,16(sp)
ffffffff8400314c:	e02e                	sd	a1,0(sp)
ffffffff8400314e:	e432                	sd	a2,8(sp)
ffffffff84003150:	03b5d893          	srli	a7,a1,0x3b
ffffffff84003154:	47a9                	li	a5,10
ffffffff84003156:	08f89763          	bne	a7,a5,ffffffff840031e4 <resolveAddressBits+0x9e>
ffffffff8400315a:	883a                	mv	a6,a4
ffffffff8400315c:	5f7d                	li	t5,-1
ffffffff8400315e:	fc0002b7          	lui	t0,0xfc000
ffffffff84003162:	0192d293          	srli	t0,t0,0x19
ffffffff84003166:	4f85                	li	t6,1
ffffffff84003168:	1f9a                	slli	t6,t6,0x26
ffffffff8400316a:	027f1393          	slli	t2,t5,0x27
ffffffff8400316e:	4429                	li	s0,10
ffffffff84003170:	02f5d893          	srli	a7,a1,0x2f
ffffffff84003174:	03f8f893          	andi	a7,a7,63
ffffffff84003178:	0355d313          	srli	t1,a1,0x35
ffffffff8400317c:	03f37313          	andi	t1,t1,63
ffffffff84003180:	011304b3          	add	s1,t1,a7
ffffffff84003184:	0008079b          	sext.w	a5,a6
ffffffff84003188:	40680e3b          	subw	t3,a6,t1
ffffffff8400318c:	01c6de33          	srl	t3,a3,t3
ffffffff84003190:	006f1eb3          	sll	t4,t5,t1
ffffffff84003194:	fffece93          	not	t4,t4
ffffffff84003198:	01de7e33          	and	t3,t3,t4
ffffffff8400319c:	06686263          	bltu	a6,t1,ffffffff84003200 <resolveAddressBits+0xba>
ffffffff840031a0:	07c61063          	bne	a2,t3,ffffffff84003200 <resolveAddressBits+0xba>
ffffffff840031a4:	08986663          	bltu	a6,s1,ffffffff84003230 <resolveAddressBits+0xea>
ffffffff840031a8:	9f85                	subw	a5,a5,s1
ffffffff840031aa:	00f6d7b3          	srl	a5,a3,a5
ffffffff840031ae:	011f18b3          	sll	a7,t5,a7
ffffffff840031b2:	fff8c893          	not	a7,a7
ffffffff840031b6:	0117f7b3          	and	a5,a5,a7
ffffffff840031ba:	0796                	slli	a5,a5,0x5
ffffffff840031bc:	0586                	slli	a1,a1,0x1
ffffffff840031be:	0055f633          	and	a2,a1,t0
ffffffff840031c2:	01f5f5b3          	and	a1,a1,t6
ffffffff840031c6:	c199                	beqz	a1,ffffffff840031cc <resolveAddressBits+0x86>
ffffffff840031c8:	00766633          	or	a2,a2,t2
ffffffff840031cc:	97b2                	add	a5,a5,a2
ffffffff840031ce:	08981563          	bne	a6,s1,ffffffff84003258 <resolveAddressBits+0x112>
ffffffff840031d2:	00053023          	sd	zero,0(a0) # fffffffff8000000 <ki_end+0x73fdb000>
ffffffff840031d6:	e51c                	sd	a5,8(a0)
ffffffff840031d8:	00053823          	sd	zero,16(a0)
ffffffff840031dc:	6462                	ld	s0,24(sp)
ffffffff840031de:	64c2                	ld	s1,16(sp)
ffffffff840031e0:	6105                	addi	sp,sp,32
ffffffff840031e2:	8082                	ret
ffffffff840031e4:	0000a797          	auipc	a5,0xa
ffffffff840031e8:	e1c78793          	addi	a5,a5,-484 # ffffffff8400d000 <riscvKSASIDTable>
ffffffff840031ec:	4007b023          	sd	zero,1024(a5)
ffffffff840031f0:	4007b423          	sd	zero,1032(a5)
ffffffff840031f4:	4789                	li	a5,2
ffffffff840031f6:	e11c                	sd	a5,0(a0)
ffffffff840031f8:	00053423          	sd	zero,8(a0)
ffffffff840031fc:	e918                	sd	a4,16(a0)
ffffffff840031fe:	bff9                	j	ffffffff840031dc <resolveAddressBits+0x96>
ffffffff84003200:	0000a697          	auipc	a3,0xa
ffffffff84003204:	e0068693          	addi	a3,a3,-512 # ffffffff8400d000 <riscvKSASIDTable>
ffffffff84003208:	0826                	slli	a6,a6,0x9
ffffffff8400320a:	67c1                	lui	a5,0x10
ffffffff8400320c:	17fd                	addi	a5,a5,-1
ffffffff8400320e:	00f87833          	and	a6,a6,a5
ffffffff84003212:	030a                	slli	t1,t1,0x2
ffffffff84003214:	00686333          	or	t1,a6,t1
ffffffff84003218:	00336313          	ori	t1,t1,3
ffffffff8400321c:	4066b023          	sd	t1,1024(a3)
ffffffff84003220:	40c6b423          	sd	a2,1032(a3)
ffffffff84003224:	4789                	li	a5,2
ffffffff84003226:	e11c                	sd	a5,0(a0)
ffffffff84003228:	00053423          	sd	zero,8(a0)
ffffffff8400322c:	e918                	sd	a4,16(a0)
ffffffff8400322e:	b77d                	j	ffffffff840031dc <resolveAddressBits+0x96>
ffffffff84003230:	0000a797          	auipc	a5,0xa
ffffffff84003234:	dd078793          	addi	a5,a5,-560 # ffffffff8400d000 <riscvKSASIDTable>
ffffffff84003238:	04a6                	slli	s1,s1,0x9
ffffffff8400323a:	080a                	slli	a6,a6,0x2
ffffffff8400323c:	0104e833          	or	a6,s1,a6
ffffffff84003240:	00286813          	ori	a6,a6,2
ffffffff84003244:	4107b023          	sd	a6,1024(a5)
ffffffff84003248:	4007b423          	sd	zero,1032(a5)
ffffffff8400324c:	4789                	li	a5,2
ffffffff8400324e:	e11c                	sd	a5,0(a0)
ffffffff84003250:	00053423          	sd	zero,8(a0)
ffffffff84003254:	e918                	sd	a4,16(a0)
ffffffff84003256:	b759                	j	ffffffff840031dc <resolveAddressBits+0x96>
ffffffff84003258:	40980833          	sub	a6,a6,s1
ffffffff8400325c:	638c                	ld	a1,0(a5)
ffffffff8400325e:	6790                	ld	a2,8(a5)
ffffffff84003260:	03b5d893          	srli	a7,a1,0x3b
ffffffff84003264:	f08886e3          	beq	a7,s0,ffffffff84003170 <resolveAddressBits+0x2a>
ffffffff84003268:	00053023          	sd	zero,0(a0)
ffffffff8400326c:	e51c                	sd	a5,8(a0)
ffffffff8400326e:	01053823          	sd	a6,16(a0)
ffffffff84003272:	b7ad                	j	ffffffff840031dc <resolveAddressBits+0x96>

ffffffff84003274 <lookupSlot>:
ffffffff84003274:	715d                	addi	sp,sp,-80
ffffffff84003276:	e486                	sd	ra,72(sp)
ffffffff84003278:	86ae                	mv	a3,a1
ffffffff8400327a:	c0057513          	andi	a0,a0,-1024
ffffffff8400327e:	04000713          	li	a4,64
ffffffff84003282:	610c                	ld	a1,0(a0)
ffffffff84003284:	6510                	ld	a2,8(a0)
ffffffff84003286:	0028                	addi	a0,sp,8
ffffffff84003288:	ebfff0ef          	jal	ra,ffffffff84003146 <resolveAddressBits>
ffffffff8400328c:	6522                	ld	a0,8(sp)
ffffffff8400328e:	65c2                	ld	a1,16(sp)
ffffffff84003290:	60a6                	ld	ra,72(sp)
ffffffff84003292:	6161                	addi	sp,sp,80
ffffffff84003294:	8082                	ret

ffffffff84003296 <lookupCap>:
ffffffff84003296:	1101                	addi	sp,sp,-32
ffffffff84003298:	ec06                	sd	ra,24(sp)
ffffffff8400329a:	e822                	sd	s0,16(sp)
ffffffff8400329c:	842a                	mv	s0,a0
ffffffff8400329e:	852e                	mv	a0,a1
ffffffff840032a0:	85b2                	mv	a1,a2
ffffffff840032a2:	fd3ff0ef          	jal	ra,ffffffff84003274 <lookupSlot>
ffffffff840032a6:	e02a                	sd	a0,0(sp)
ffffffff840032a8:	e42e                	sd	a1,8(sp)
ffffffff840032aa:	ed09                	bnez	a0,ffffffff840032c4 <lookupCap+0x2e>
ffffffff840032ac:	67a2                	ld	a5,8(sp)
ffffffff840032ae:	6398                	ld	a4,0(a5)
ffffffff840032b0:	679c                	ld	a5,8(a5)
ffffffff840032b2:	00043023          	sd	zero,0(s0)
ffffffff840032b6:	e418                	sd	a4,8(s0)
ffffffff840032b8:	e81c                	sd	a5,16(s0)
ffffffff840032ba:	8522                	mv	a0,s0
ffffffff840032bc:	60e2                	ld	ra,24(sp)
ffffffff840032be:	6442                	ld	s0,16(sp)
ffffffff840032c0:	6105                	addi	sp,sp,32
ffffffff840032c2:	8082                	ret
ffffffff840032c4:	e008                	sd	a0,0(s0)
ffffffff840032c6:	00043423          	sd	zero,8(s0)
ffffffff840032ca:	00043823          	sd	zero,16(s0)
ffffffff840032ce:	b7f5                	j	ffffffff840032ba <lookupCap+0x24>

ffffffff840032d0 <lookupCapAndSlot>:
ffffffff840032d0:	1101                	addi	sp,sp,-32
ffffffff840032d2:	ec06                	sd	ra,24(sp)
ffffffff840032d4:	e822                	sd	s0,16(sp)
ffffffff840032d6:	842a                	mv	s0,a0
ffffffff840032d8:	852e                	mv	a0,a1
ffffffff840032da:	85b2                	mv	a1,a2
ffffffff840032dc:	f99ff0ef          	jal	ra,ffffffff84003274 <lookupSlot>
ffffffff840032e0:	e02a                	sd	a0,0(sp)
ffffffff840032e2:	e42e                	sd	a1,8(sp)
ffffffff840032e4:	ed09                	bnez	a0,ffffffff840032fe <lookupCapAndSlot+0x2e>
ffffffff840032e6:	6198                	ld	a4,0(a1)
ffffffff840032e8:	659c                	ld	a5,8(a1)
ffffffff840032ea:	00043023          	sd	zero,0(s0)
ffffffff840032ee:	e418                	sd	a4,8(s0)
ffffffff840032f0:	e81c                	sd	a5,16(s0)
ffffffff840032f2:	ec0c                	sd	a1,24(s0)
ffffffff840032f4:	8522                	mv	a0,s0
ffffffff840032f6:	60e2                	ld	ra,24(sp)
ffffffff840032f8:	6442                	ld	s0,16(sp)
ffffffff840032fa:	6105                	addi	sp,sp,32
ffffffff840032fc:	8082                	ret
ffffffff840032fe:	e008                	sd	a0,0(s0)
ffffffff84003300:	00043423          	sd	zero,8(s0)
ffffffff84003304:	00043823          	sd	zero,16(s0)
ffffffff84003308:	00043c23          	sd	zero,24(s0)
ffffffff8400330c:	b7e5                	j	ffffffff840032f4 <lookupCapAndSlot+0x24>

ffffffff8400330e <lookupSlotForCNodeOp>:
ffffffff8400330e:	715d                	addi	sp,sp,-80
ffffffff84003310:	e486                	sd	ra,72(sp)
ffffffff84003312:	e0a2                	sd	s0,64(sp)
ffffffff84003314:	842a                	mv	s0,a0
ffffffff84003316:	e02e                	sd	a1,0(sp)
ffffffff84003318:	e432                	sd	a2,8(sp)
ffffffff8400331a:	91ed                	srli	a1,a1,0x3b
ffffffff8400331c:	47a9                	li	a5,10
ffffffff8400331e:	02f59a63          	bne	a1,a5,ffffffff84003352 <lookupSlotForCNodeOp+0x44>
ffffffff84003322:	fff70793          	addi	a5,a4,-1
ffffffff84003326:	03f00613          	li	a2,63
ffffffff8400332a:	04f66563          	bltu	a2,a5,ffffffff84003374 <lookupSlotForCNodeOp+0x66>
ffffffff8400332e:	6582                	ld	a1,0(sp)
ffffffff84003330:	6622                	ld	a2,8(sp)
ffffffff84003332:	0828                	addi	a0,sp,24
ffffffff84003334:	e13ff0ef          	jal	ra,ffffffff84003146 <resolveAddressBits>
ffffffff84003338:	77a2                	ld	a5,40(sp)
ffffffff8400333a:	6762                	ld	a4,24(sp)
ffffffff8400333c:	ef31                	bnez	a4,ffffffff84003398 <lookupSlotForCNodeOp+0x8a>
ffffffff8400333e:	ebb5                	bnez	a5,ffffffff840033b2 <lookupSlotForCNodeOp+0xa4>
ffffffff84003340:	f802                	sd	zero,48(sp)
ffffffff84003342:	7782                	ld	a5,32(sp)
ffffffff84003344:	fc3e                	sd	a5,56(sp)
ffffffff84003346:	7542                	ld	a0,48(sp)
ffffffff84003348:	75e2                	ld	a1,56(sp)
ffffffff8400334a:	60a6                	ld	ra,72(sp)
ffffffff8400334c:	6406                	ld	s0,64(sp)
ffffffff8400334e:	6161                	addi	sp,sp,80
ffffffff84003350:	8082                	ret
ffffffff84003352:	0000a797          	auipc	a5,0xa
ffffffff84003356:	cae78793          	addi	a5,a5,-850 # ffffffff8400d000 <riscvKSASIDTable>
ffffffff8400335a:	4719                	li	a4,6
ffffffff8400335c:	44e7b023          	sd	a4,1088(a5)
ffffffff84003360:	42a7bc23          	sd	a0,1080(a5)
ffffffff84003364:	4007b023          	sd	zero,1024(a5)
ffffffff84003368:	4007b423          	sd	zero,1032(a5)
ffffffff8400336c:	478d                	li	a5,3
ffffffff8400336e:	f83e                	sd	a5,48(sp)
ffffffff84003370:	fc02                	sd	zero,56(sp)
ffffffff84003372:	bfd1                	j	ffffffff84003346 <lookupSlotForCNodeOp+0x38>
ffffffff84003374:	0000a797          	auipc	a5,0xa
ffffffff84003378:	c8c78793          	addi	a5,a5,-884 # ffffffff8400d000 <riscvKSASIDTable>
ffffffff8400337c:	4711                	li	a4,4
ffffffff8400337e:	44e7b023          	sd	a4,1088(a5)
ffffffff84003382:	4705                	li	a4,1
ffffffff84003384:	42e7b023          	sd	a4,1056(a5)
ffffffff84003388:	04000713          	li	a4,64
ffffffff8400338c:	42e7b423          	sd	a4,1064(a5)
ffffffff84003390:	478d                	li	a5,3
ffffffff84003392:	f83e                	sd	a5,48(sp)
ffffffff84003394:	fc02                	sd	zero,56(sp)
ffffffff84003396:	bf45                	j	ffffffff84003346 <lookupSlotForCNodeOp+0x38>
ffffffff84003398:	0000a797          	auipc	a5,0xa
ffffffff8400339c:	c6878793          	addi	a5,a5,-920 # ffffffff8400d000 <riscvKSASIDTable>
ffffffff840033a0:	4719                	li	a4,6
ffffffff840033a2:	44e7b023          	sd	a4,1088(a5)
ffffffff840033a6:	4287bc23          	sd	s0,1080(a5)
ffffffff840033aa:	478d                	li	a5,3
ffffffff840033ac:	f83e                	sd	a5,48(sp)
ffffffff840033ae:	fc02                	sd	zero,56(sp)
ffffffff840033b0:	bf59                	j	ffffffff84003346 <lookupSlotForCNodeOp+0x38>
ffffffff840033b2:	0000a717          	auipc	a4,0xa
ffffffff840033b6:	c4e70713          	addi	a4,a4,-946 # ffffffff8400d000 <riscvKSASIDTable>
ffffffff840033ba:	4699                	li	a3,6
ffffffff840033bc:	44d73023          	sd	a3,1088(a4)
ffffffff840033c0:	42873c23          	sd	s0,1080(a4)
ffffffff840033c4:	078a                	slli	a5,a5,0x2
ffffffff840033c6:	1fc7f793          	andi	a5,a5,508
ffffffff840033ca:	0027e793          	ori	a5,a5,2
ffffffff840033ce:	40f73023          	sd	a5,1024(a4)
ffffffff840033d2:	40073423          	sd	zero,1032(a4)
ffffffff840033d6:	478d                	li	a5,3
ffffffff840033d8:	f83e                	sd	a5,48(sp)
ffffffff840033da:	fc02                	sd	zero,56(sp)
ffffffff840033dc:	b7ad                	j	ffffffff84003346 <lookupSlotForCNodeOp+0x38>

ffffffff840033de <lookupSourceSlot>:
ffffffff840033de:	7179                	addi	sp,sp,-48
ffffffff840033e0:	f406                	sd	ra,40(sp)
ffffffff840033e2:	87ae                	mv	a5,a1
ffffffff840033e4:	8736                	mv	a4,a3
ffffffff840033e6:	86b2                	mv	a3,a2
ffffffff840033e8:	85aa                	mv	a1,a0
ffffffff840033ea:	863e                	mv	a2,a5
ffffffff840033ec:	4505                	li	a0,1
ffffffff840033ee:	f21ff0ef          	jal	ra,ffffffff8400330e <lookupSlotForCNodeOp>
ffffffff840033f2:	70a2                	ld	ra,40(sp)
ffffffff840033f4:	6145                	addi	sp,sp,48
ffffffff840033f6:	8082                	ret

ffffffff840033f8 <lookupTargetSlot>:
ffffffff840033f8:	7179                	addi	sp,sp,-48
ffffffff840033fa:	f406                	sd	ra,40(sp)
ffffffff840033fc:	87ae                	mv	a5,a1
ffffffff840033fe:	8736                	mv	a4,a3
ffffffff84003400:	86b2                	mv	a3,a2
ffffffff84003402:	85aa                	mv	a1,a0
ffffffff84003404:	863e                	mv	a2,a5
ffffffff84003406:	4501                	li	a0,0
ffffffff84003408:	f07ff0ef          	jal	ra,ffffffff8400330e <lookupSlotForCNodeOp>
ffffffff8400340c:	70a2                	ld	ra,40(sp)
ffffffff8400340e:	6145                	addi	sp,sp,48
ffffffff84003410:	8082                	ret

ffffffff84003412 <lookupPivotSlot>:
ffffffff84003412:	7179                	addi	sp,sp,-48
ffffffff84003414:	f406                	sd	ra,40(sp)
ffffffff84003416:	87ae                	mv	a5,a1
ffffffff84003418:	8736                	mv	a4,a3
ffffffff8400341a:	86b2                	mv	a3,a2
ffffffff8400341c:	85aa                	mv	a1,a0
ffffffff8400341e:	863e                	mv	a2,a5
ffffffff84003420:	4505                	li	a0,1
ffffffff84003422:	eedff0ef          	jal	ra,ffffffff8400330e <lookupSlotForCNodeOp>
ffffffff84003426:	70a2                	ld	ra,40(sp)
ffffffff84003428:	6145                	addi	sp,sp,48
ffffffff8400342a:	8082                	ret

ffffffff8400342c <refill_new>:
ffffffff8400342c:	e114                	sd	a3,0(a0)
ffffffff8400342e:	04053423          	sd	zero,72(a0)
ffffffff84003432:	04053823          	sd	zero,80(a0)
ffffffff84003436:	e12c                	sd	a1,64(a0)
ffffffff84003438:	05850713          	addi	a4,a0,88
ffffffff8400343c:	e710                	sd	a2,8(a4)
ffffffff8400343e:	0001c797          	auipc	a5,0x1c
ffffffff84003442:	3f27b783          	ld	a5,1010(a5) # ffffffff8401f830 <ksCurTime>
ffffffff84003446:	e31c                	sd	a5,0(a4)
ffffffff84003448:	611c                	ld	a5,0(a0)
ffffffff8400344a:	c391                	beqz	a5,ffffffff8400344e <refill_new+0x22>
ffffffff8400344c:	8082                	ret
ffffffff8400344e:	1101                	addi	sp,sp,-32
ffffffff84003450:	0001c597          	auipc	a1,0x1c
ffffffff84003454:	3e05b583          	ld	a1,992(a1) # ffffffff8401f830 <ksCurTime>
ffffffff84003458:	ec02                	sd	zero,24(sp)
ffffffff8400345a:	6930                	ld	a2,80(a0)
ffffffff8400345c:	6134                	ld	a3,64(a0)
ffffffff8400345e:	16fd                	addi	a3,a3,-1
ffffffff84003460:	00d60463          	beq	a2,a3,ffffffff84003468 <refill_new+0x3c>
ffffffff84003464:	00160793          	addi	a5,a2,1
ffffffff84003468:	e93c                	sd	a5,80(a0)
ffffffff8400346a:	0792                	slli	a5,a5,0x4
ffffffff8400346c:	97ba                	add	a5,a5,a4
ffffffff8400346e:	e38c                	sd	a1,0(a5)
ffffffff84003470:	6762                	ld	a4,24(sp)
ffffffff84003472:	e798                	sd	a4,8(a5)
ffffffff84003474:	6105                	addi	sp,sp,32
ffffffff84003476:	8082                	ret

ffffffff84003478 <refill_update_foo1>:
ffffffff84003478:	05850713          	addi	a4,a0,88
ffffffff8400347c:	653c                	ld	a5,72(a0)
ffffffff8400347e:	0792                	slli	a5,a5,0x4
ffffffff84003480:	97ba                	add	a5,a5,a4
ffffffff84003482:	6394                	ld	a3,0(a5)
ffffffff84003484:	ed34                	sd	a3,88(a0)
ffffffff84003486:	679c                	ld	a5,8(a5)
ffffffff84003488:	f13c                	sd	a5,96(a0)
ffffffff8400348a:	8082                	ret

ffffffff8400348c <refill_update_foo2>:
ffffffff8400348c:	653c                	ld	a5,72(a0)
ffffffff8400348e:	0792                	slli	a5,a5,0x4
ffffffff84003490:	953e                	add	a0,a0,a5
ffffffff84003492:	f12c                	sd	a1,96(a0)
ffffffff84003494:	8082                	ret

ffffffff84003496 <refill_update_foo3>:
ffffffff84003496:	611c                	ld	a5,0(a0)
ffffffff84003498:	c391                	beqz	a5,ffffffff8400349c <refill_update_foo3+0x6>
ffffffff8400349a:	8082                	ret
ffffffff8400349c:	1101                	addi	sp,sp,-32
ffffffff8400349e:	0001c617          	auipc	a2,0x1c
ffffffff840034a2:	39263603          	ld	a2,914(a2) # ffffffff8401f830 <ksCurTime>
ffffffff840034a6:	ec02                	sd	zero,24(sp)
ffffffff840034a8:	6934                	ld	a3,80(a0)
ffffffff840034aa:	6138                	ld	a4,64(a0)
ffffffff840034ac:	177d                	addi	a4,a4,-1
ffffffff840034ae:	00e68463          	beq	a3,a4,ffffffff840034b6 <refill_update_foo3+0x20>
ffffffff840034b2:	00168793          	addi	a5,a3,1
ffffffff840034b6:	e93c                	sd	a5,80(a0)
ffffffff840034b8:	0792                	slli	a5,a5,0x4
ffffffff840034ba:	953e                	add	a0,a0,a5
ffffffff840034bc:	ed30                	sd	a2,88(a0)
ffffffff840034be:	67e2                	ld	a5,24(sp)
ffffffff840034c0:	f13c                	sd	a5,96(a0)
ffffffff840034c2:	6105                	addi	sp,sp,32
ffffffff840034c4:	8082                	ret

ffffffff840034c6 <refill_update_foo4>:
ffffffff840034c6:	05850693          	addi	a3,a0,88
ffffffff840034ca:	6538                	ld	a4,72(a0)
ffffffff840034cc:	0712                	slli	a4,a4,0x4
ffffffff840034ce:	9736                	add	a4,a4,a3
ffffffff840034d0:	631c                	ld	a5,0(a4)
ffffffff840034d2:	95be                	add	a1,a1,a5
ffffffff840034d4:	671c                	ld	a5,8(a4)
ffffffff840034d6:	8e1d                	sub	a2,a2,a5
ffffffff840034d8:	05053803          	ld	a6,80(a0)
ffffffff840034dc:	6138                	ld	a4,64(a0)
ffffffff840034de:	177d                	addi	a4,a4,-1
ffffffff840034e0:	4781                	li	a5,0
ffffffff840034e2:	00e80463          	beq	a6,a4,ffffffff840034ea <refill_update_foo4+0x24>
ffffffff840034e6:	00180793          	addi	a5,a6,1 # fffffffffff00001 <ki_end+0x7bedb001>
ffffffff840034ea:	e93c                	sd	a5,80(a0)
ffffffff840034ec:	0792                	slli	a5,a5,0x4
ffffffff840034ee:	97b6                	add	a5,a5,a3
ffffffff840034f0:	e38c                	sd	a1,0(a5)
ffffffff840034f2:	e790                	sd	a2,8(a5)
ffffffff840034f4:	8082                	ret

ffffffff840034f6 <refill_update>:
ffffffff840034f6:	05850713          	addi	a4,a0,88
ffffffff840034fa:	653c                	ld	a5,72(a0)
ffffffff840034fc:	0792                	slli	a5,a5,0x4
ffffffff840034fe:	97ba                	add	a5,a5,a4
ffffffff84003500:	0007b803          	ld	a6,0(a5)
ffffffff84003504:	05053c23          	sd	a6,88(a0)
ffffffff84003508:	679c                	ld	a5,8(a5)
ffffffff8400350a:	e71c                	sd	a5,8(a4)
ffffffff8400350c:	04053423          	sd	zero,72(a0)
ffffffff84003510:	04053823          	sd	zero,80(a0)
ffffffff84003514:	e134                	sd	a3,64(a0)
ffffffff84003516:	e10c                	sd	a1,0(a0)
ffffffff84003518:	0001c797          	auipc	a5,0x1c
ffffffff8400351c:	3187b783          	ld	a5,792(a5) # ffffffff8401f830 <ksCurTime>
ffffffff84003520:	00a78693          	addi	a3,a5,10
ffffffff84003524:	05853803          	ld	a6,88(a0)
ffffffff84003528:	0106e363          	bltu	a3,a6,ffffffff8400352e <refill_update+0x38>
ffffffff8400352c:	ed3c                	sd	a5,88(a0)
ffffffff8400352e:	653c                	ld	a5,72(a0)
ffffffff84003530:	0792                	slli	a5,a5,0x4
ffffffff84003532:	97ba                	add	a5,a5,a4
ffffffff84003534:	6794                	ld	a3,8(a5)
ffffffff84003536:	02c6eb63          	bltu	a3,a2,ffffffff8400356c <refill_update+0x76>
ffffffff8400353a:	e790                	sd	a2,8(a5)
ffffffff8400353c:	611c                	ld	a5,0(a0)
ffffffff8400353e:	c391                	beqz	a5,ffffffff84003542 <refill_update+0x4c>
ffffffff84003540:	8082                	ret
ffffffff84003542:	1101                	addi	sp,sp,-32
ffffffff84003544:	0001c597          	auipc	a1,0x1c
ffffffff84003548:	2ec5b583          	ld	a1,748(a1) # ffffffff8401f830 <ksCurTime>
ffffffff8400354c:	ec02                	sd	zero,24(sp)
ffffffff8400354e:	6930                	ld	a2,80(a0)
ffffffff84003550:	6134                	ld	a3,64(a0)
ffffffff84003552:	16fd                	addi	a3,a3,-1
ffffffff84003554:	00d60463          	beq	a2,a3,ffffffff8400355c <refill_update+0x66>
ffffffff84003558:	00160793          	addi	a5,a2,1
ffffffff8400355c:	e93c                	sd	a5,80(a0)
ffffffff8400355e:	0792                	slli	a5,a5,0x4
ffffffff84003560:	973e                	add	a4,a4,a5
ffffffff84003562:	e30c                	sd	a1,0(a4)
ffffffff84003564:	67e2                	ld	a5,24(sp)
ffffffff84003566:	e71c                	sd	a5,8(a4)
ffffffff84003568:	6105                	addi	sp,sp,32
ffffffff8400356a:	8082                	ret
ffffffff8400356c:	639c                	ld	a5,0(a5)
ffffffff8400356e:	95be                	add	a1,a1,a5
ffffffff84003570:	8e15                	sub	a2,a2,a3
ffffffff84003572:	05053803          	ld	a6,80(a0)
ffffffff84003576:	6134                	ld	a3,64(a0)
ffffffff84003578:	16fd                	addi	a3,a3,-1
ffffffff8400357a:	4781                	li	a5,0
ffffffff8400357c:	00d80463          	beq	a6,a3,ffffffff84003584 <refill_update+0x8e>
ffffffff84003580:	00180793          	addi	a5,a6,1
ffffffff84003584:	e93c                	sd	a5,80(a0)
ffffffff84003586:	0792                	slli	a5,a5,0x4
ffffffff84003588:	973e                	add	a4,a4,a5
ffffffff8400358a:	e30c                	sd	a1,0(a4)
ffffffff8400358c:	e710                	sd	a2,8(a4)
ffffffff8400358e:	8082                	ret

ffffffff84003590 <refill_split_check>:
ffffffff84003590:	0001c717          	auipc	a4,0x1c
ffffffff84003594:	29873703          	ld	a4,664(a4) # ffffffff8401f828 <ksCurSC>
ffffffff84003598:	6730                	ld	a2,72(a4)
ffffffff8400359a:	05870813          	addi	a6,a4,88
ffffffff8400359e:	00461693          	slli	a3,a2,0x4
ffffffff840035a2:	96c2                	add	a3,a3,a6
ffffffff840035a4:	668c                	ld	a1,8(a3)
ffffffff840035a6:	8d89                	sub	a1,a1,a0
ffffffff840035a8:	0006b883          	ld	a7,0(a3)
ffffffff840035ac:	631c                	ld	a5,0(a4)
ffffffff840035ae:	98be                	add	a7,a7,a5
ffffffff840035b0:	6b3c                	ld	a5,80(a4)
ffffffff840035b2:	04c7f463          	bgeu	a5,a2,ffffffff840035fa <refill_split_check+0x6a>
ffffffff840035b6:	04073303          	ld	t1,64(a4)
ffffffff840035ba:	979a                	add	a5,a5,t1
ffffffff840035bc:	0785                	addi	a5,a5,1
ffffffff840035be:	8f91                	sub	a5,a5,a2
ffffffff840035c0:	04f30f63          	beq	t1,a5,ffffffff8400361e <refill_split_check+0x8e>
ffffffff840035c4:	47cd                	li	a5,19
ffffffff840035c6:	04b7fc63          	bgeu	a5,a1,ffffffff8400361e <refill_split_check+0x8e>
ffffffff840035ca:	e68c                	sd	a1,8(a3)
ffffffff840035cc:	47cd                	li	a5,19
ffffffff840035ce:	10a7e663          	bltu	a5,a0,ffffffff840036da <refill_split_check+0x14a>
ffffffff840035d2:	6b3c                	ld	a5,80(a4)
ffffffff840035d4:	6734                	ld	a3,72(a4)
ffffffff840035d6:	10f68263          	beq	a3,a5,ffffffff840036da <refill_split_check+0x14a>
ffffffff840035da:	0792                	slli	a5,a5,0x4
ffffffff840035dc:	97c2                	add	a5,a5,a6
ffffffff840035de:	6794                	ld	a3,8(a5)
ffffffff840035e0:	9536                	add	a0,a0,a3
ffffffff840035e2:	e788                	sd	a0,8(a5)
ffffffff840035e4:	6b3c                	ld	a5,80(a4)
ffffffff840035e6:	0792                	slli	a5,a5,0x4
ffffffff840035e8:	983e                	add	a6,a6,a5
ffffffff840035ea:	00083783          	ld	a5,0(a6)
ffffffff840035ee:	0117f363          	bgeu	a5,a7,ffffffff840035f4 <refill_split_check+0x64>
ffffffff840035f2:	87c6                	mv	a5,a7
ffffffff840035f4:	00f83023          	sd	a5,0(a6)
ffffffff840035f8:	8082                	ret
ffffffff840035fa:	00178e13          	addi	t3,a5,1
ffffffff840035fe:	40ce0e33          	sub	t3,t3,a2
ffffffff84003602:	04073303          	ld	t1,64(a4)
ffffffff84003606:	01c30a63          	beq	t1,t3,ffffffff8400361a <refill_split_check+0x8a>
ffffffff8400360a:	4e4d                	li	t3,19
ffffffff8400360c:	fabe6fe3          	bltu	t3,a1,ffffffff840035ca <refill_split_check+0x3a>
ffffffff84003610:	00c79763          	bne	a5,a2,ffffffff8400361e <refill_split_check+0x8e>
ffffffff84003614:	0116b023          	sd	a7,0(a3)
ffffffff84003618:	8082                	ret
ffffffff8400361a:	8372                	mv	t1,t3
ffffffff8400361c:	bfd5                	j	ffffffff84003610 <refill_split_check+0x80>
ffffffff8400361e:	137d                	addi	t1,t1,-1
ffffffff84003620:	4781                	li	a5,0
ffffffff84003622:	00660463          	beq	a2,t1,ffffffff8400362a <refill_split_check+0x9a>
ffffffff84003626:	00160793          	addi	a5,a2,1
ffffffff8400362a:	e73c                	sd	a5,72(a4)
ffffffff8400362c:	0792                	slli	a5,a5,0x4
ffffffff8400362e:	97c2                	add	a5,a5,a6
ffffffff84003630:	6794                	ld	a3,8(a5)
ffffffff84003632:	95b6                	add	a1,a1,a3
ffffffff84003634:	e78c                	sd	a1,8(a5)
ffffffff84003636:	47cd                	li	a5,19
ffffffff84003638:	02a7e463          	bltu	a5,a0,ffffffff84003660 <refill_split_check+0xd0>
ffffffff8400363c:	6b3c                	ld	a5,80(a4)
ffffffff8400363e:	6734                	ld	a3,72(a4)
ffffffff84003640:	02f68063          	beq	a3,a5,ffffffff84003660 <refill_split_check+0xd0>
ffffffff84003644:	0792                	slli	a5,a5,0x4
ffffffff84003646:	97c2                	add	a5,a5,a6
ffffffff84003648:	6794                	ld	a3,8(a5)
ffffffff8400364a:	9536                	add	a0,a0,a3
ffffffff8400364c:	e788                	sd	a0,8(a5)
ffffffff8400364e:	6b3c                	ld	a5,80(a4)
ffffffff84003650:	0792                	slli	a5,a5,0x4
ffffffff84003652:	97c2                	add	a5,a5,a6
ffffffff84003654:	6394                	ld	a3,0(a5)
ffffffff84003656:	0116f363          	bgeu	a3,a7,ffffffff8400365c <refill_split_check+0xcc>
ffffffff8400365a:	86c6                	mv	a3,a7
ffffffff8400365c:	e394                	sd	a3,0(a5)
ffffffff8400365e:	a819                	j	ffffffff84003674 <refill_split_check+0xe4>
ffffffff84003660:	6b34                	ld	a3,80(a4)
ffffffff84003662:	00469793          	slli	a5,a3,0x4
ffffffff84003666:	97c2                	add	a5,a5,a6
ffffffff84003668:	6390                	ld	a2,0(a5)
ffffffff8400366a:	01166863          	bltu	a2,a7,ffffffff8400367a <refill_split_check+0xea>
ffffffff8400366e:	6794                	ld	a3,8(a5)
ffffffff84003670:	9536                	add	a0,a0,a3
ffffffff84003672:	e788                	sd	a0,8(a5)
ffffffff84003674:	454d                	li	a0,19
ffffffff84003676:	4881                	li	a7,0
ffffffff84003678:	a089                	j	ffffffff840036ba <refill_split_check+0x12a>
ffffffff8400367a:	6330                	ld	a2,64(a4)
ffffffff8400367c:	167d                	addi	a2,a2,-1
ffffffff8400367e:	4781                	li	a5,0
ffffffff84003680:	00c68463          	beq	a3,a2,ffffffff84003688 <refill_split_check+0xf8>
ffffffff84003684:	00168793          	addi	a5,a3,1
ffffffff84003688:	eb3c                	sd	a5,80(a4)
ffffffff8400368a:	0792                	slli	a5,a5,0x4
ffffffff8400368c:	97c2                	add	a5,a5,a6
ffffffff8400368e:	0117b023          	sd	a7,0(a5)
ffffffff84003692:	e788                	sd	a0,8(a5)
ffffffff84003694:	b7c5                	j	ffffffff84003674 <refill_split_check+0xe4>
ffffffff84003696:	0785                	addi	a5,a5,1
ffffffff84003698:	8f95                	sub	a5,a5,a3
ffffffff8400369a:	6330                	ld	a2,64(a4)
ffffffff8400369c:	02f61e63          	bne	a2,a5,ffffffff840036d8 <refill_split_check+0x148>
ffffffff840036a0:	6330                	ld	a2,64(a4)
ffffffff840036a2:	167d                	addi	a2,a2,-1
ffffffff840036a4:	87c6                	mv	a5,a7
ffffffff840036a6:	00c68463          	beq	a3,a2,ffffffff840036ae <refill_split_check+0x11e>
ffffffff840036aa:	00168793          	addi	a5,a3,1
ffffffff840036ae:	e73c                	sd	a5,72(a4)
ffffffff840036b0:	0792                	slli	a5,a5,0x4
ffffffff840036b2:	97c2                	add	a5,a5,a6
ffffffff840036b4:	6794                	ld	a3,8(a5)
ffffffff840036b6:	96ae                	add	a3,a3,a1
ffffffff840036b8:	e794                	sd	a3,8(a5)
ffffffff840036ba:	6734                	ld	a3,72(a4)
ffffffff840036bc:	00469793          	slli	a5,a3,0x4
ffffffff840036c0:	97c2                	add	a5,a5,a6
ffffffff840036c2:	678c                	ld	a1,8(a5)
ffffffff840036c4:	fcb57ee3          	bgeu	a0,a1,ffffffff840036a0 <refill_split_check+0x110>
ffffffff840036c8:	6b3c                	ld	a5,80(a4)
ffffffff840036ca:	fcd7f6e3          	bgeu	a5,a3,ffffffff84003696 <refill_split_check+0x106>
ffffffff840036ce:	6330                	ld	a2,64(a4)
ffffffff840036d0:	97b2                	add	a5,a5,a2
ffffffff840036d2:	0785                	addi	a5,a5,1
ffffffff840036d4:	8f95                	sub	a5,a5,a3
ffffffff840036d6:	b7d1                	j	ffffffff8400369a <refill_split_check+0x10a>
ffffffff840036d8:	8082                	ret
ffffffff840036da:	6b34                	ld	a3,80(a4)
ffffffff840036dc:	00469793          	slli	a5,a3,0x4
ffffffff840036e0:	97c2                	add	a5,a5,a6
ffffffff840036e2:	6390                	ld	a2,0(a5)
ffffffff840036e4:	01166663          	bltu	a2,a7,ffffffff840036f0 <refill_split_check+0x160>
ffffffff840036e8:	6798                	ld	a4,8(a5)
ffffffff840036ea:	953a                	add	a0,a0,a4
ffffffff840036ec:	e788                	sd	a0,8(a5)
ffffffff840036ee:	8082                	ret
ffffffff840036f0:	6330                	ld	a2,64(a4)
ffffffff840036f2:	167d                	addi	a2,a2,-1
ffffffff840036f4:	4781                	li	a5,0
ffffffff840036f6:	00c68463          	beq	a3,a2,ffffffff840036fe <refill_split_check+0x16e>
ffffffff840036fa:	00168793          	addi	a5,a3,1
ffffffff840036fe:	eb3c                	sd	a5,80(a4)
ffffffff84003700:	0792                	slli	a5,a5,0x4
ffffffff84003702:	983e                	add	a6,a6,a5
ffffffff84003704:	01183023          	sd	a7,0(a6)
ffffffff84003708:	00a83423          	sd	a0,8(a6)
ffffffff8400370c:	8082                	ret

ffffffff8400370e <refill_budget_check>:
ffffffff8400370e:	1101                	addi	sp,sp,-32
ffffffff84003710:	ec06                	sd	ra,24(sp)
ffffffff84003712:	e822                	sd	s0,16(sp)
ffffffff84003714:	e426                	sd	s1,8(sp)
ffffffff84003716:	0001c417          	auipc	s0,0x1c
ffffffff8400371a:	11243403          	ld	s0,274(s0) # ffffffff8401f828 <ksCurSC>
ffffffff8400371e:	6434                	ld	a3,72(s0)
ffffffff84003720:	05840493          	addi	s1,s0,88
ffffffff84003724:	00469793          	slli	a5,a3,0x4
ffffffff84003728:	97a6                	add	a5,a5,s1
ffffffff8400372a:	6798                	ld	a4,8(a5)
ffffffff8400372c:	0ee56663          	bltu	a0,a4,ffffffff84003818 <refill_budget_check+0x10a>
ffffffff84003730:	4881                	li	a7,0
ffffffff84003732:	434d                	li	t1,19
ffffffff84003734:	a085                	j	ffffffff84003794 <refill_budget_check+0x86>
ffffffff84003736:	639c                	ld	a5,0(a5)
ffffffff84003738:	602c                	ld	a1,64(s0)
ffffffff8400373a:	15fd                	addi	a1,a1,-1
ffffffff8400373c:	8846                	mv	a6,a7
ffffffff8400373e:	00d58463          	beq	a1,a3,ffffffff84003746 <refill_budget_check+0x38>
ffffffff84003742:	00168813          	addi	a6,a3,1
ffffffff84003746:	05043423          	sd	a6,72(s0)
ffffffff8400374a:	6014                	ld	a3,0(s0)
ffffffff8400374c:	97b6                	add	a5,a5,a3
ffffffff8400374e:	02e36263          	bltu	t1,a4,ffffffff84003772 <refill_budget_check+0x64>
ffffffff84003752:	03060063          	beq	a2,a6,ffffffff84003772 <refill_budget_check+0x64>
ffffffff84003756:	0612                	slli	a2,a2,0x4
ffffffff84003758:	9626                	add	a2,a2,s1
ffffffff8400375a:	6614                	ld	a3,8(a2)
ffffffff8400375c:	9736                	add	a4,a4,a3
ffffffff8400375e:	e618                	sd	a4,8(a2)
ffffffff84003760:	6838                	ld	a4,80(s0)
ffffffff84003762:	0712                	slli	a4,a4,0x4
ffffffff84003764:	9726                	add	a4,a4,s1
ffffffff84003766:	6314                	ld	a3,0(a4)
ffffffff84003768:	00f6f363          	bgeu	a3,a5,ffffffff8400376e <refill_budget_check+0x60>
ffffffff8400376c:	86be                	mv	a3,a5
ffffffff8400376e:	e314                	sd	a3,0(a4)
ffffffff84003770:	a819                	j	ffffffff84003786 <refill_budget_check+0x78>
ffffffff84003772:	00461693          	slli	a3,a2,0x4
ffffffff84003776:	96a6                	add	a3,a3,s1
ffffffff84003778:	0006b803          	ld	a6,0(a3)
ffffffff8400377c:	02f86563          	bltu	a6,a5,ffffffff840037a6 <refill_budget_check+0x98>
ffffffff84003780:	669c                	ld	a5,8(a3)
ffffffff84003782:	973e                	add	a4,a4,a5
ffffffff84003784:	e698                	sd	a4,8(a3)
ffffffff84003786:	6434                	ld	a3,72(s0)
ffffffff84003788:	00469793          	slli	a5,a3,0x4
ffffffff8400378c:	97a6                	add	a5,a5,s1
ffffffff8400378e:	6798                	ld	a4,8(a5)
ffffffff84003790:	02e56663          	bltu	a0,a4,ffffffff840037bc <refill_budget_check+0xae>
ffffffff84003794:	8d19                	sub	a0,a0,a4
ffffffff84003796:	6830                	ld	a2,80(s0)
ffffffff84003798:	f8d61fe3          	bne	a2,a3,ffffffff84003736 <refill_budget_check+0x28>
ffffffff8400379c:	6398                	ld	a4,0(a5)
ffffffff8400379e:	6014                	ld	a3,0(s0)
ffffffff840037a0:	9736                	add	a4,a4,a3
ffffffff840037a2:	e398                	sd	a4,0(a5)
ffffffff840037a4:	b7cd                	j	ffffffff84003786 <refill_budget_check+0x78>
ffffffff840037a6:	86c6                	mv	a3,a7
ffffffff840037a8:	00b60463          	beq	a2,a1,ffffffff840037b0 <refill_budget_check+0xa2>
ffffffff840037ac:	00160693          	addi	a3,a2,1
ffffffff840037b0:	e834                	sd	a3,80(s0)
ffffffff840037b2:	0692                	slli	a3,a3,0x4
ffffffff840037b4:	96a6                	add	a3,a3,s1
ffffffff840037b6:	e29c                	sd	a5,0(a3)
ffffffff840037b8:	e698                	sd	a4,8(a3)
ffffffff840037ba:	b7f1                	j	ffffffff84003786 <refill_budget_check+0x78>
ffffffff840037bc:	cd05                	beqz	a0,ffffffff840037f4 <refill_budget_check+0xe6>
ffffffff840037be:	6398                	ld	a4,0(a5)
ffffffff840037c0:	972a                	add	a4,a4,a0
ffffffff840037c2:	e398                	sd	a4,0(a5)
ffffffff840037c4:	643c                	ld	a5,72(s0)
ffffffff840037c6:	6838                	ld	a4,80(s0)
ffffffff840037c8:	02e78663          	beq	a5,a4,ffffffff840037f4 <refill_budget_check+0xe6>
ffffffff840037cc:	00479713          	slli	a4,a5,0x4
ffffffff840037d0:	9726                	add	a4,a4,s1
ffffffff840037d2:	6310                	ld	a2,0(a4)
ffffffff840037d4:	670c                	ld	a1,8(a4)
ffffffff840037d6:	00b60833          	add	a6,a2,a1
ffffffff840037da:	6038                	ld	a4,64(s0)
ffffffff840037dc:	177d                	addi	a4,a4,-1
ffffffff840037de:	4681                	li	a3,0
ffffffff840037e0:	00e78463          	beq	a5,a4,ffffffff840037e8 <refill_budget_check+0xda>
ffffffff840037e4:	00178693          	addi	a3,a5,1
ffffffff840037e8:	00469793          	slli	a5,a3,0x4
ffffffff840037ec:	97a6                	add	a5,a5,s1
ffffffff840037ee:	6398                	ld	a4,0(a5)
ffffffff840037f0:	00e87b63          	bgeu	a6,a4,ffffffff84003806 <refill_budget_check+0xf8>
ffffffff840037f4:	643c                	ld	a5,72(s0)
ffffffff840037f6:	0792                	slli	a5,a5,0x4
ffffffff840037f8:	97a6                	add	a5,a5,s1
ffffffff840037fa:	6798                	ld	a4,8(a5)
ffffffff840037fc:	00e56e63          	bltu	a0,a4,ffffffff84003818 <refill_budget_check+0x10a>
ffffffff84003800:	45cd                	li	a1,19
ffffffff84003802:	4501                	li	a0,0
ffffffff84003804:	a0b9                	j	ffffffff84003852 <refill_budget_check+0x144>
ffffffff84003806:	e434                	sd	a3,72(s0)
ffffffff84003808:	6798                	ld	a4,8(a5)
ffffffff8400380a:	95ba                	add	a1,a1,a4
ffffffff8400380c:	e78c                	sd	a1,8(a5)
ffffffff8400380e:	643c                	ld	a5,72(s0)
ffffffff84003810:	0792                	slli	a5,a5,0x4
ffffffff84003812:	97a6                	add	a5,a5,s1
ffffffff84003814:	e390                	sd	a2,0(a5)
ffffffff84003816:	bff9                	j	ffffffff840037f4 <refill_budget_check+0xe6>
ffffffff84003818:	0001c717          	auipc	a4,0x1c
ffffffff8400381c:	01873703          	ld	a4,24(a4) # ffffffff8401f830 <ksCurTime>
ffffffff84003820:	0729                	addi	a4,a4,10
ffffffff84003822:	639c                	ld	a5,0(a5)
ffffffff84003824:	fcf76ee3          	bltu	a4,a5,ffffffff84003800 <refill_budget_check+0xf2>
ffffffff84003828:	d69ff0ef          	jal	ra,ffffffff84003590 <refill_split_check>
ffffffff8400382c:	bfd1                	j	ffffffff84003800 <refill_budget_check+0xf2>
ffffffff8400382e:	0785                	addi	a5,a5,1
ffffffff84003830:	8f99                	sub	a5,a5,a4
ffffffff84003832:	6034                	ld	a3,64(s0)
ffffffff84003834:	02f69e63          	bne	a3,a5,ffffffff84003870 <refill_budget_check+0x162>
ffffffff84003838:	6034                	ld	a3,64(s0)
ffffffff8400383a:	16fd                	addi	a3,a3,-1
ffffffff8400383c:	87aa                	mv	a5,a0
ffffffff8400383e:	00d70463          	beq	a4,a3,ffffffff84003846 <refill_budget_check+0x138>
ffffffff84003842:	00170793          	addi	a5,a4,1
ffffffff84003846:	e43c                	sd	a5,72(s0)
ffffffff84003848:	0792                	slli	a5,a5,0x4
ffffffff8400384a:	97a6                	add	a5,a5,s1
ffffffff8400384c:	6798                	ld	a4,8(a5)
ffffffff8400384e:	9732                	add	a4,a4,a2
ffffffff84003850:	e798                	sd	a4,8(a5)
ffffffff84003852:	6438                	ld	a4,72(s0)
ffffffff84003854:	00471793          	slli	a5,a4,0x4
ffffffff84003858:	97a6                	add	a5,a5,s1
ffffffff8400385a:	6790                	ld	a2,8(a5)
ffffffff8400385c:	fcc5fee3          	bgeu	a1,a2,ffffffff84003838 <refill_budget_check+0x12a>
ffffffff84003860:	683c                	ld	a5,80(s0)
ffffffff84003862:	fce7f6e3          	bgeu	a5,a4,ffffffff8400382e <refill_budget_check+0x120>
ffffffff84003866:	6034                	ld	a3,64(s0)
ffffffff84003868:	97b6                	add	a5,a5,a3
ffffffff8400386a:	0785                	addi	a5,a5,1
ffffffff8400386c:	8f99                	sub	a5,a5,a4
ffffffff8400386e:	b7d1                	j	ffffffff84003832 <refill_budget_check+0x124>
ffffffff84003870:	60e2                	ld	ra,24(sp)
ffffffff84003872:	6442                	ld	s0,16(sp)
ffffffff84003874:	64a2                	ld	s1,8(sp)
ffffffff84003876:	6105                	addi	sp,sp,32
ffffffff84003878:	8082                	ret

ffffffff8400387a <refill_unblock_check>:
ffffffff8400387a:	611c                	ld	a5,0(a0)
ffffffff8400387c:	cfa5                	beqz	a5,ffffffff840038f4 <refill_unblock_check+0x7a>
ffffffff8400387e:	05850613          	addi	a2,a0,88
ffffffff84003882:	653c                	ld	a5,72(a0)
ffffffff84003884:	0792                	slli	a5,a5,0x4
ffffffff84003886:	97b2                	add	a5,a5,a2
ffffffff84003888:	0001c717          	auipc	a4,0x1c
ffffffff8400388c:	fa873703          	ld	a4,-88(a4) # ffffffff8401f830 <ksCurTime>
ffffffff84003890:	00a70693          	addi	a3,a4,10
ffffffff84003894:	638c                	ld	a1,0(a5)
ffffffff84003896:	04b6ef63          	bltu	a3,a1,ffffffff840038f4 <refill_unblock_check+0x7a>
ffffffff8400389a:	e398                	sd	a4,0(a5)
ffffffff8400389c:	4785                	li	a5,1
ffffffff8400389e:	0001c717          	auipc	a4,0x1c
ffffffff840038a2:	f8f73d23          	sd	a5,-102(a4) # ffffffff8401f838 <ksReprogram>
ffffffff840038a6:	4301                	li	t1,0
ffffffff840038a8:	0001ce17          	auipc	t3,0x1c
ffffffff840038ac:	f88e0e13          	addi	t3,t3,-120 # ffffffff8401f830 <ksCurTime>
ffffffff840038b0:	a809                	j	ffffffff840038c2 <refill_unblock_check+0x48>
ffffffff840038b2:	e534                	sd	a3,72(a0)
ffffffff840038b4:	6798                	ld	a4,8(a5)
ffffffff840038b6:	9742                	add	a4,a4,a6
ffffffff840038b8:	e798                	sd	a4,8(a5)
ffffffff840038ba:	653c                	ld	a5,72(a0)
ffffffff840038bc:	0792                	slli	a5,a5,0x4
ffffffff840038be:	97b2                	add	a5,a5,a2
ffffffff840038c0:	e38c                	sd	a1,0(a5)
ffffffff840038c2:	653c                	ld	a5,72(a0)
ffffffff840038c4:	6138                	ld	a4,64(a0)
ffffffff840038c6:	177d                	addi	a4,a4,-1
ffffffff840038c8:	869a                	mv	a3,t1
ffffffff840038ca:	00e78463          	beq	a5,a4,ffffffff840038d2 <refill_unblock_check+0x58>
ffffffff840038ce:	00178693          	addi	a3,a5,1
ffffffff840038d2:	6938                	ld	a4,80(a0)
ffffffff840038d4:	02e78063          	beq	a5,a4,ffffffff840038f4 <refill_unblock_check+0x7a>
ffffffff840038d8:	0792                	slli	a5,a5,0x4
ffffffff840038da:	97b2                	add	a5,a5,a2
ffffffff840038dc:	0087b803          	ld	a6,8(a5)
ffffffff840038e0:	000e3583          	ld	a1,0(t3)
ffffffff840038e4:	00469793          	slli	a5,a3,0x4
ffffffff840038e8:	97b2                	add	a5,a5,a2
ffffffff840038ea:	00b808b3          	add	a7,a6,a1
ffffffff840038ee:	6398                	ld	a4,0(a5)
ffffffff840038f0:	fce8f1e3          	bgeu	a7,a4,ffffffff840038b2 <refill_unblock_check+0x38>
ffffffff840038f4:	8082                	ret

ffffffff840038f6 <doNBRecvFailedTransfer>:
ffffffff840038f6:	04053423          	sd	zero,72(a0)
ffffffff840038fa:	8082                	ret

ffffffff840038fc <switchToIdleThread>:
ffffffff840038fc:	1141                	addi	sp,sp,-16
ffffffff840038fe:	e406                	sd	ra,8(sp)
ffffffff84003900:	9b4ff0ef          	jal	ra,ffffffff84002ab4 <Arch_switchToIdleThread>
ffffffff84003904:	0001c797          	auipc	a5,0x1c
ffffffff84003908:	f4c7b783          	ld	a5,-180(a5) # ffffffff8401f850 <ksIdleThread>
ffffffff8400390c:	0001c717          	auipc	a4,0x1c
ffffffff84003910:	f4f73623          	sd	a5,-180(a4) # ffffffff8401f858 <ksCurThread>
ffffffff84003914:	60a2                	ld	ra,8(sp)
ffffffff84003916:	0141                	addi	sp,sp,16
ffffffff84003918:	8082                	ret

ffffffff8400391a <setMCPriority>:
ffffffff8400391a:	16b53023          	sd	a1,352(a0)
ffffffff8400391e:	8082                	ret

ffffffff84003920 <setNextInterrupt>:
ffffffff84003920:	0001c797          	auipc	a5,0x1c
ffffffff84003924:	f387b783          	ld	a5,-200(a5) # ffffffff8401f858 <ksCurThread>
ffffffff84003928:	1707b783          	ld	a5,368(a5)
ffffffff8400392c:	0001c517          	auipc	a0,0x1c
ffffffff84003930:	f0453503          	ld	a0,-252(a0) # ffffffff8401f830 <ksCurTime>
ffffffff84003934:	67b8                	ld	a4,72(a5)
ffffffff84003936:	0712                	slli	a4,a4,0x4
ffffffff84003938:	97ba                	add	a5,a5,a4
ffffffff8400393a:	73bc                	ld	a5,96(a5)
ffffffff8400393c:	97aa                	add	a5,a5,a0
ffffffff8400393e:	0001c717          	auipc	a4,0x1c
ffffffff84003942:	ed273703          	ld	a4,-302(a4) # ffffffff8401f810 <ksDomainTime>
ffffffff84003946:	953a                	add	a0,a0,a4
ffffffff84003948:	00a7f363          	bgeu	a5,a0,ffffffff8400394e <setNextInterrupt+0x2e>
ffffffff8400394c:	853e                	mv	a0,a5
ffffffff8400394e:	0001c797          	auipc	a5,0x1c
ffffffff84003952:	f127b783          	ld	a5,-238(a5) # ffffffff8401f860 <ksReleaseHead>
ffffffff84003956:	cb91                	beqz	a5,ffffffff8400396a <setNextInterrupt+0x4a>
ffffffff84003958:	1707b783          	ld	a5,368(a5)
ffffffff8400395c:	67b8                	ld	a4,72(a5)
ffffffff8400395e:	0712                	slli	a4,a4,0x4
ffffffff84003960:	97ba                	add	a5,a5,a4
ffffffff84003962:	6fbc                	ld	a5,88(a5)
ffffffff84003964:	00a7f363          	bgeu	a5,a0,ffffffff8400396a <setNextInterrupt+0x4a>
ffffffff84003968:	853e                	mv	a0,a5
ffffffff8400396a:	157d                	addi	a0,a0,-1
ffffffff8400396c:	4581                	li	a1,0
ffffffff8400396e:	4601                	li	a2,0
ffffffff84003970:	4881                	li	a7,0
ffffffff84003972:	00000073          	ecall
ffffffff84003976:	8082                	ret

ffffffff84003978 <cteMove>:
ffffffff84003978:	1141                	addi	sp,sp,-16
ffffffff8400397a:	e02a                	sd	a0,0(sp)
ffffffff8400397c:	e42e                	sd	a1,8(sp)
ffffffff8400397e:	6a18                	ld	a4,16(a2)
ffffffff84003980:	6e1c                	ld	a5,24(a2)
ffffffff84003982:	e288                	sd	a0,0(a3)
ffffffff84003984:	e68c                	sd	a1,8(a3)
ffffffff84003986:	00063023          	sd	zero,0(a2)
ffffffff8400398a:	00063423          	sd	zero,8(a2)
ffffffff8400398e:	ea98                	sd	a4,16(a3)
ffffffff84003990:	ee9c                	sd	a5,24(a3)
ffffffff84003992:	00063823          	sd	zero,16(a2)
ffffffff84003996:	00063c23          	sd	zero,24(a2)
ffffffff8400399a:	cf01                	beqz	a4,ffffffff840039b2 <cteMove+0x3a>
ffffffff8400399c:	6f10                	ld	a2,24(a4)
ffffffff8400399e:	55fd                	li	a1,-1
ffffffff840039a0:	159e                	slli	a1,a1,0x27
ffffffff840039a2:	058d                	addi	a1,a1,3
ffffffff840039a4:	8e6d                	and	a2,a2,a1
ffffffff840039a6:	f80005b7          	lui	a1,0xf8000
ffffffff840039aa:	81e5                	srli	a1,a1,0x19
ffffffff840039ac:	8df5                	and	a1,a1,a3
ffffffff840039ae:	8e4d                	or	a2,a2,a1
ffffffff840039b0:	ef10                	sd	a2,24(a4)
ffffffff840039b2:	f8000737          	lui	a4,0xf8000
ffffffff840039b6:	8365                	srli	a4,a4,0x19
ffffffff840039b8:	8f7d                	and	a4,a4,a5
ffffffff840039ba:	9399                	srli	a5,a5,0x26
ffffffff840039bc:	8b85                	andi	a5,a5,1
ffffffff840039be:	c799                	beqz	a5,ffffffff840039cc <cteMove+0x54>
ffffffff840039c0:	57fd                	li	a5,-1
ffffffff840039c2:	179e                	slli	a5,a5,0x27
ffffffff840039c4:	8f5d                	or	a4,a4,a5
ffffffff840039c6:	eb14                	sd	a3,16(a4)
ffffffff840039c8:	0141                	addi	sp,sp,16
ffffffff840039ca:	8082                	ret
ffffffff840039cc:	df75                	beqz	a4,ffffffff840039c8 <cteMove+0x50>
ffffffff840039ce:	bfe5                	j	ffffffff840039c6 <cteMove+0x4e>

ffffffff840039d0 <invokeCNodeMove>:
ffffffff840039d0:	1101                	addi	sp,sp,-32
ffffffff840039d2:	ec06                	sd	ra,24(sp)
ffffffff840039d4:	fa5ff0ef          	jal	ra,ffffffff84003978 <cteMove>
ffffffff840039d8:	4501                	li	a0,0
ffffffff840039da:	60e2                	ld	ra,24(sp)
ffffffff840039dc:	6105                	addi	sp,sp,32
ffffffff840039de:	8082                	ret

ffffffff840039e0 <cteSwap>:
ffffffff840039e0:	1101                	addi	sp,sp,-32
ffffffff840039e2:	e82a                	sd	a0,16(sp)
ffffffff840039e4:	ec2e                	sd	a1,24(sp)
ffffffff840039e6:	e036                	sd	a3,0(sp)
ffffffff840039e8:	e43a                	sd	a4,8(sp)
ffffffff840039ea:	e214                	sd	a3,0(a2)
ffffffff840039ec:	e618                	sd	a4,8(a2)
ffffffff840039ee:	e388                	sd	a0,0(a5)
ffffffff840039f0:	e78c                	sd	a1,8(a5)
ffffffff840039f2:	6a08                	ld	a0,16(a2)
ffffffff840039f4:	6e0c                	ld	a1,24(a2)
ffffffff840039f6:	cd01                	beqz	a0,ffffffff84003a0e <cteSwap+0x2e>
ffffffff840039f8:	6d18                	ld	a4,24(a0)
ffffffff840039fa:	56fd                	li	a3,-1
ffffffff840039fc:	169e                	slli	a3,a3,0x27
ffffffff840039fe:	068d                	addi	a3,a3,3
ffffffff84003a00:	8f75                	and	a4,a4,a3
ffffffff84003a02:	f80006b7          	lui	a3,0xf8000
ffffffff84003a06:	82e5                	srli	a3,a3,0x19
ffffffff84003a08:	8efd                	and	a3,a3,a5
ffffffff84003a0a:	8f55                	or	a4,a4,a3
ffffffff84003a0c:	ed18                	sd	a4,24(a0)
ffffffff84003a0e:	f8000737          	lui	a4,0xf8000
ffffffff84003a12:	8365                	srli	a4,a4,0x19
ffffffff84003a14:	8f6d                	and	a4,a4,a1
ffffffff84003a16:	0265d693          	srli	a3,a1,0x26
ffffffff84003a1a:	8a85                	andi	a3,a3,1
ffffffff84003a1c:	c6a1                	beqz	a3,ffffffff84003a64 <cteSwap+0x84>
ffffffff84003a1e:	56fd                	li	a3,-1
ffffffff84003a20:	169e                	slli	a3,a3,0x27
ffffffff84003a22:	8f55                	or	a4,a4,a3
ffffffff84003a24:	eb1c                	sd	a5,16(a4)
ffffffff84003a26:	6b94                	ld	a3,16(a5)
ffffffff84003a28:	6f98                	ld	a4,24(a5)
ffffffff84003a2a:	ea14                	sd	a3,16(a2)
ffffffff84003a2c:	ee18                	sd	a4,24(a2)
ffffffff84003a2e:	eb88                	sd	a0,16(a5)
ffffffff84003a30:	ef8c                	sd	a1,24(a5)
ffffffff84003a32:	ce81                	beqz	a3,ffffffff84003a4a <cteSwap+0x6a>
ffffffff84003a34:	6e9c                	ld	a5,24(a3)
ffffffff84003a36:	55fd                	li	a1,-1
ffffffff84003a38:	159e                	slli	a1,a1,0x27
ffffffff84003a3a:	058d                	addi	a1,a1,3
ffffffff84003a3c:	8fed                	and	a5,a5,a1
ffffffff84003a3e:	f80005b7          	lui	a1,0xf8000
ffffffff84003a42:	81e5                	srli	a1,a1,0x19
ffffffff84003a44:	8df1                	and	a1,a1,a2
ffffffff84003a46:	8fcd                	or	a5,a5,a1
ffffffff84003a48:	ee9c                	sd	a5,24(a3)
ffffffff84003a4a:	f80007b7          	lui	a5,0xf8000
ffffffff84003a4e:	83e5                	srli	a5,a5,0x19
ffffffff84003a50:	8ff9                	and	a5,a5,a4
ffffffff84003a52:	9319                	srli	a4,a4,0x26
ffffffff84003a54:	8b05                	andi	a4,a4,1
ffffffff84003a56:	cb09                	beqz	a4,ffffffff84003a68 <cteSwap+0x88>
ffffffff84003a58:	577d                	li	a4,-1
ffffffff84003a5a:	171e                	slli	a4,a4,0x27
ffffffff84003a5c:	8fd9                	or	a5,a5,a4
ffffffff84003a5e:	eb90                	sd	a2,16(a5)
ffffffff84003a60:	6105                	addi	sp,sp,32
ffffffff84003a62:	8082                	ret
ffffffff84003a64:	d369                	beqz	a4,ffffffff84003a26 <cteSwap+0x46>
ffffffff84003a66:	bf7d                	j	ffffffff84003a24 <cteSwap+0x44>
ffffffff84003a68:	dfe5                	beqz	a5,ffffffff84003a60 <cteSwap+0x80>
ffffffff84003a6a:	bfd5                	j	ffffffff84003a5e <cteSwap+0x7e>

ffffffff84003a6c <invokeCNodeRotate>:
ffffffff84003a6c:	7139                	addi	sp,sp,-64
ffffffff84003a6e:	fc06                	sd	ra,56(sp)
ffffffff84003a70:	f822                	sd	s0,48(sp)
ffffffff84003a72:	f426                	sd	s1,40(sp)
ffffffff84003a74:	e82a                	sd	a0,16(sp)
ffffffff84003a76:	ec2e                	sd	a1,24(sp)
ffffffff84003a78:	e032                	sd	a2,0(sp)
ffffffff84003a7a:	e436                	sd	a3,8(sp)
ffffffff84003a7c:	843a                	mv	s0,a4
ffffffff84003a7e:	84be                	mv	s1,a5
ffffffff84003a80:	03070463          	beq	a4,a6,ffffffff84003aa8 <invokeCNodeRotate+0x3c>
ffffffff84003a84:	86c2                	mv	a3,a6
ffffffff84003a86:	863e                	mv	a2,a5
ffffffff84003a88:	6502                	ld	a0,0(sp)
ffffffff84003a8a:	65a2                	ld	a1,8(sp)
ffffffff84003a8c:	eedff0ef          	jal	ra,ffffffff84003978 <cteMove>
ffffffff84003a90:	86a6                	mv	a3,s1
ffffffff84003a92:	8622                	mv	a2,s0
ffffffff84003a94:	6542                	ld	a0,16(sp)
ffffffff84003a96:	65e2                	ld	a1,24(sp)
ffffffff84003a98:	ee1ff0ef          	jal	ra,ffffffff84003978 <cteMove>
ffffffff84003a9c:	4501                	li	a0,0
ffffffff84003a9e:	70e2                	ld	ra,56(sp)
ffffffff84003aa0:	7442                	ld	s0,48(sp)
ffffffff84003aa2:	74a2                	ld	s1,40(sp)
ffffffff84003aa4:	6121                	addi	sp,sp,64
ffffffff84003aa6:	8082                	ret
ffffffff84003aa8:	86b2                	mv	a3,a2
ffffffff84003aaa:	6722                	ld	a4,8(sp)
ffffffff84003aac:	8622                	mv	a2,s0
ffffffff84003aae:	f33ff0ef          	jal	ra,ffffffff840039e0 <cteSwap>
ffffffff84003ab2:	b7ed                	j	ffffffff84003a9c <invokeCNodeRotate+0x30>

ffffffff84003ab4 <capSwapForDelete>:
ffffffff84003ab4:	00b50f63          	beq	a0,a1,ffffffff84003ad2 <capSwapForDelete+0x1e>
ffffffff84003ab8:	7179                	addi	sp,sp,-48
ffffffff84003aba:	f406                	sd	ra,40(sp)
ffffffff84003abc:	862a                	mv	a2,a0
ffffffff84003abe:	87ae                	mv	a5,a1
ffffffff84003ac0:	6194                	ld	a3,0(a1)
ffffffff84003ac2:	6598                	ld	a4,8(a1)
ffffffff84003ac4:	6108                	ld	a0,0(a0)
ffffffff84003ac6:	660c                	ld	a1,8(a2)
ffffffff84003ac8:	f19ff0ef          	jal	ra,ffffffff840039e0 <cteSwap>
ffffffff84003acc:	70a2                	ld	ra,40(sp)
ffffffff84003ace:	6145                	addi	sp,sp,48
ffffffff84003ad0:	8082                	ret
ffffffff84003ad2:	8082                	ret

ffffffff84003ad4 <insertNewCap>:
ffffffff84003ad4:	1141                	addi	sp,sp,-16
ffffffff84003ad6:	e032                	sd	a2,0(sp)
ffffffff84003ad8:	e436                	sd	a3,8(sp)
ffffffff84003ada:	6d18                	ld	a4,24(a0)
ffffffff84003adc:	f80007b7          	lui	a5,0xf8000
ffffffff84003ae0:	83e5                	srli	a5,a5,0x19
ffffffff84003ae2:	8ff9                	and	a5,a5,a4
ffffffff84003ae4:	9319                	srli	a4,a4,0x26
ffffffff84003ae6:	8b05                	andi	a4,a4,1
ffffffff84003ae8:	cb0d                	beqz	a4,ffffffff84003b1a <insertNewCap+0x46>
ffffffff84003aea:	577d                	li	a4,-1
ffffffff84003aec:	171e                	slli	a4,a4,0x27
ffffffff84003aee:	8f5d                	or	a4,a4,a5
ffffffff84003af0:	e190                	sd	a2,0(a1)
ffffffff84003af2:	66a2                	ld	a3,8(sp)
ffffffff84003af4:	e594                	sd	a3,8(a1)
ffffffff84003af6:	e988                	sd	a0,16(a1)
ffffffff84003af8:	0037e793          	ori	a5,a5,3
ffffffff84003afc:	ed9c                	sd	a5,24(a1)
ffffffff84003afe:	eb0c                	sd	a1,16(a4)
ffffffff84003b00:	6d1c                	ld	a5,24(a0)
ffffffff84003b02:	577d                	li	a4,-1
ffffffff84003b04:	171e                	slli	a4,a4,0x27
ffffffff84003b06:	070d                	addi	a4,a4,3
ffffffff84003b08:	8ff9                	and	a5,a5,a4
ffffffff84003b0a:	f8000737          	lui	a4,0xf8000
ffffffff84003b0e:	8365                	srli	a4,a4,0x19
ffffffff84003b10:	8df9                	and	a1,a1,a4
ffffffff84003b12:	8ddd                	or	a1,a1,a5
ffffffff84003b14:	ed0c                	sd	a1,24(a0)
ffffffff84003b16:	0141                	addi	sp,sp,16
ffffffff84003b18:	8082                	ret
ffffffff84003b1a:	6702                	ld	a4,0(sp)
ffffffff84003b1c:	e198                	sd	a4,0(a1)
ffffffff84003b1e:	6722                	ld	a4,8(sp)
ffffffff84003b20:	e598                	sd	a4,8(a1)
ffffffff84003b22:	e988                	sd	a0,16(a1)
ffffffff84003b24:	0037e713          	ori	a4,a5,3
ffffffff84003b28:	ed98                	sd	a4,24(a1)
ffffffff84003b2a:	dbf9                	beqz	a5,ffffffff84003b00 <insertNewCap+0x2c>
ffffffff84003b2c:	873e                	mv	a4,a5
ffffffff84003b2e:	bfc1                	j	ffffffff84003afe <insertNewCap+0x2a>

ffffffff84003b30 <ensureEmptySlot>:
ffffffff84003b30:	6108                	ld	a0,0(a0)
ffffffff84003b32:	916d                	srli	a0,a0,0x3b
ffffffff84003b34:	e111                	bnez	a0,ffffffff84003b38 <ensureEmptySlot+0x8>
ffffffff84003b36:	8082                	ret
ffffffff84003b38:	47a1                	li	a5,8
ffffffff84003b3a:	0000a717          	auipc	a4,0xa
ffffffff84003b3e:	90f73323          	sd	a5,-1786(a4) # ffffffff8400d440 <current_syscall_error+0x30>
ffffffff84003b42:	450d                	li	a0,3
ffffffff84003b44:	bfcd                	j	ffffffff84003b36 <ensureEmptySlot+0x6>

ffffffff84003b46 <getReceiveSlots>:
ffffffff84003b46:	c9b1                	beqz	a1,ffffffff84003b9a <getReceiveSlots+0x54>
ffffffff84003b48:	711d                	addi	sp,sp,-96
ffffffff84003b4a:	ec86                	sd	ra,88(sp)
ffffffff84003b4c:	e8a2                	sd	s0,80(sp)
ffffffff84003b4e:	e4a6                	sd	s1,72(sp)
ffffffff84003b50:	3f05b403          	ld	s0,1008(a1) # fffffffff80003f0 <ki_end+0x73fdb3f0>
ffffffff84003b54:	3f85b483          	ld	s1,1016(a1)
ffffffff84003b58:	3e85b603          	ld	a2,1000(a1)
ffffffff84003b5c:	85aa                	mv	a1,a0
ffffffff84003b5e:	1028                	addi	a0,sp,40
ffffffff84003b60:	f36ff0ef          	jal	ra,ffffffff84003296 <lookupCap>
ffffffff84003b64:	77a2                	ld	a5,40(sp)
ffffffff84003b66:	4501                	li	a0,0
ffffffff84003b68:	e785                	bnez	a5,ffffffff84003b90 <getReceiveSlots+0x4a>
ffffffff84003b6a:	7542                	ld	a0,48(sp)
ffffffff84003b6c:	e42a                	sd	a0,8(sp)
ffffffff84003b6e:	75e2                	ld	a1,56(sp)
ffffffff84003b70:	e82e                	sd	a1,16(sp)
ffffffff84003b72:	86a6                	mv	a3,s1
ffffffff84003b74:	8622                	mv	a2,s0
ffffffff84003b76:	883ff0ef          	jal	ra,ffffffff840033f8 <lookupTargetSlot>
ffffffff84003b7a:	ec2a                	sd	a0,24(sp)
ffffffff84003b7c:	f02e                	sd	a1,32(sp)
ffffffff84003b7e:	e105                	bnez	a0,ffffffff84003b9e <getReceiveSlots+0x58>
ffffffff84003b80:	619c                	ld	a5,0(a1)
ffffffff84003b82:	93ed                	srli	a5,a5,0x3b
ffffffff84003b84:	0017b793          	seqz	a5,a5
ffffffff84003b88:	40f007b3          	neg	a5,a5
ffffffff84003b8c:	00f5f533          	and	a0,a1,a5
ffffffff84003b90:	60e6                	ld	ra,88(sp)
ffffffff84003b92:	6446                	ld	s0,80(sp)
ffffffff84003b94:	64a6                	ld	s1,72(sp)
ffffffff84003b96:	6125                	addi	sp,sp,96
ffffffff84003b98:	8082                	ret
ffffffff84003b9a:	852e                	mv	a0,a1
ffffffff84003b9c:	8082                	ret
ffffffff84003b9e:	4501                	li	a0,0
ffffffff84003ba0:	bfc5                	j	ffffffff84003b90 <getReceiveSlots+0x4a>

ffffffff84003ba2 <loadCapTransfer>:
ffffffff84003ba2:	3f05b683          	ld	a3,1008(a1)
ffffffff84003ba6:	3f85b703          	ld	a4,1016(a1)
ffffffff84003baa:	3e85b603          	ld	a2,1000(a1)
ffffffff84003bae:	e110                	sd	a2,0(a0)
ffffffff84003bb0:	e514                	sd	a3,8(a0)
ffffffff84003bb2:	e918                	sd	a4,16(a0)
ffffffff84003bb4:	8082                	ret

ffffffff84003bb6 <replyFromKernel_success_empty>:
ffffffff84003bb6:	04053423          	sd	zero,72(a0)
ffffffff84003bba:	04053823          	sd	zero,80(a0)
ffffffff84003bbe:	8082                	ret

ffffffff84003bc0 <invokeIRQHandler_AckIRQ>:
ffffffff84003bc0:	2501                	sext.w	a0,a0
ffffffff84003bc2:	c02027b7          	lui	a5,0xc0202
ffffffff84003bc6:	c3c8                	sw	a0,4(a5)
ffffffff84003bc8:	8082                	ret

ffffffff84003bca <isIRQActive>:
ffffffff84003bca:	00351793          	slli	a5,a0,0x3
ffffffff84003bce:	00009517          	auipc	a0,0x9
ffffffff84003bd2:	43250513          	addi	a0,a0,1074 # ffffffff8400d000 <riscvKSASIDTable>
ffffffff84003bd6:	953e                	add	a0,a0,a5
ffffffff84003bd8:	45853503          	ld	a0,1112(a0)
ffffffff84003bdc:	00a03533          	snez	a0,a0
ffffffff84003be0:	8082                	ret

ffffffff84003be2 <setIRQState>:
ffffffff84003be2:	00359713          	slli	a4,a1,0x3
ffffffff84003be6:	00009797          	auipc	a5,0x9
ffffffff84003bea:	41a78793          	addi	a5,a5,1050 # ffffffff8400d000 <riscvKSASIDTable>
ffffffff84003bee:	97ba                	add	a5,a5,a4
ffffffff84003bf0:	44a7bc23          	sd	a0,1112(a5)
ffffffff84003bf4:	03600793          	li	a5,54
ffffffff84003bf8:	00f59d63          	bne	a1,a5,ffffffff84003c12 <setIRQState+0x30>
ffffffff84003bfc:	e511                	bnez	a0,ffffffff84003c08 <setIRQState+0x26>
ffffffff84003bfe:	02000793          	li	a5,32
ffffffff84003c02:	1047b7f3          	csrrc	a5,sie,a5
ffffffff84003c06:	8082                	ret
ffffffff84003c08:	02000793          	li	a5,32
ffffffff84003c0c:	1047a7f3          	csrrs	a5,sie,a5
ffffffff84003c10:	8082                	ret
ffffffff84003c12:	01f5f693          	andi	a3,a1,31
ffffffff84003c16:	8195                	srli	a1,a1,0x5
ffffffff84003c18:	058a                	slli	a1,a1,0x2
ffffffff84003c1a:	c0002737          	lui	a4,0xc0002
ffffffff84003c1e:	10070713          	addi	a4,a4,256 # ffffffffc0002100 <ki_end+0x3bfdd100>
ffffffff84003c22:	95ba                	add	a1,a1,a4
ffffffff84003c24:	419c                	lw	a5,0(a1)
ffffffff84003c26:	0007871b          	sext.w	a4,a5
ffffffff84003c2a:	e911                	bnez	a0,ffffffff84003c3e <setIRQState+0x5c>
ffffffff84003c2c:	4785                	li	a5,1
ffffffff84003c2e:	00d797b3          	sll	a5,a5,a3
ffffffff84003c32:	fff7c793          	not	a5,a5
ffffffff84003c36:	8ff9                	and	a5,a5,a4
ffffffff84003c38:	2781                	sext.w	a5,a5
ffffffff84003c3a:	c19c                	sw	a5,0(a1)
ffffffff84003c3c:	8082                	ret
ffffffff84003c3e:	4785                	li	a5,1
ffffffff84003c40:	00d797b3          	sll	a5,a5,a3
ffffffff84003c44:	8fd9                	or	a5,a5,a4
ffffffff84003c46:	2781                	sext.w	a5,a5
ffffffff84003c48:	bfcd                	j	ffffffff84003c3a <setIRQState+0x58>

ffffffff84003c4a <deletedIRQHandler>:
ffffffff84003c4a:	1141                	addi	sp,sp,-16
ffffffff84003c4c:	e406                	sd	ra,8(sp)
ffffffff84003c4e:	85aa                	mv	a1,a0
ffffffff84003c50:	4501                	li	a0,0
ffffffff84003c52:	f91ff0ef          	jal	ra,ffffffff84003be2 <setIRQState>
ffffffff84003c56:	60a2                	ld	ra,8(sp)
ffffffff84003c58:	0141                	addi	sp,sp,16
ffffffff84003c5a:	8082                	ret

ffffffff84003c5c <emptySlot>:
ffffffff84003c5c:	1101                	addi	sp,sp,-32
ffffffff84003c5e:	ec06                	sd	ra,24(sp)
ffffffff84003c60:	e02e                	sd	a1,0(sp)
ffffffff84003c62:	e432                	sd	a2,8(sp)
ffffffff84003c64:	611c                	ld	a5,0(a0)
ffffffff84003c66:	93ed                	srli	a5,a5,0x3b
ffffffff84003c68:	c3b9                	beqz	a5,ffffffff84003cae <emptySlot+0x52>
ffffffff84003c6a:	6910                	ld	a2,16(a0)
ffffffff84003c6c:	6d18                	ld	a4,24(a0)
ffffffff84003c6e:	f80007b7          	lui	a5,0xf8000
ffffffff84003c72:	83e5                	srli	a5,a5,0x19
ffffffff84003c74:	8ff9                	and	a5,a5,a4
ffffffff84003c76:	02675693          	srli	a3,a4,0x26
ffffffff84003c7a:	8a85                	andi	a3,a3,1
ffffffff84003c7c:	ce85                	beqz	a3,ffffffff84003cb4 <emptySlot+0x58>
ffffffff84003c7e:	56fd                	li	a3,-1
ffffffff84003c80:	169e                	slli	a3,a3,0x27
ffffffff84003c82:	8fd5                	or	a5,a5,a3
ffffffff84003c84:	ea0d                	bnez	a2,ffffffff84003cb6 <emptySlot+0x5a>
ffffffff84003c86:	eb90                	sd	a2,16(a5)
ffffffff84003c88:	6f94                	ld	a3,24(a5)
ffffffff84003c8a:	8f55                	or	a4,a4,a3
ffffffff84003c8c:	8b05                	andi	a4,a4,1
ffffffff84003c8e:	9af9                	andi	a3,a3,-2
ffffffff84003c90:	8f55                	or	a4,a4,a3
ffffffff84003c92:	ef98                	sd	a4,24(a5)
ffffffff84003c94:	00053023          	sd	zero,0(a0)
ffffffff84003c98:	00053423          	sd	zero,8(a0)
ffffffff84003c9c:	00053823          	sd	zero,16(a0)
ffffffff84003ca0:	00053c23          	sd	zero,24(a0)
ffffffff84003ca4:	6782                	ld	a5,0(sp)
ffffffff84003ca6:	93ed                	srli	a5,a5,0x3b
ffffffff84003ca8:	4741                	li	a4,16
ffffffff84003caa:	02e78363          	beq	a5,a4,ffffffff84003cd0 <emptySlot+0x74>
ffffffff84003cae:	60e2                	ld	ra,24(sp)
ffffffff84003cb0:	6105                	addi	sp,sp,32
ffffffff84003cb2:	8082                	ret
ffffffff84003cb4:	ce01                	beqz	a2,ffffffff84003ccc <emptySlot+0x70>
ffffffff84003cb6:	6e14                	ld	a3,24(a2)
ffffffff84003cb8:	55fd                	li	a1,-1
ffffffff84003cba:	159e                	slli	a1,a1,0x27
ffffffff84003cbc:	058d                	addi	a1,a1,3
ffffffff84003cbe:	8eed                	and	a3,a3,a1
ffffffff84003cc0:	f80005b7          	lui	a1,0xf8000
ffffffff84003cc4:	81e5                	srli	a1,a1,0x19
ffffffff84003cc6:	8dfd                	and	a1,a1,a5
ffffffff84003cc8:	8ecd                	or	a3,a3,a1
ffffffff84003cca:	ee14                	sd	a3,24(a2)
ffffffff84003ccc:	d7e1                	beqz	a5,ffffffff84003c94 <emptySlot+0x38>
ffffffff84003cce:	bf65                	j	ffffffff84003c86 <emptySlot+0x2a>
ffffffff84003cd0:	6522                	ld	a0,8(sp)
ffffffff84003cd2:	1552                	slli	a0,a0,0x34
ffffffff84003cd4:	9151                	srli	a0,a0,0x34
ffffffff84003cd6:	f75ff0ef          	jal	ra,ffffffff84003c4a <deletedIRQHandler>
ffffffff84003cda:	bfd1                	j	ffffffff84003cae <emptySlot+0x52>

ffffffff84003cdc <unbindMaybeNotification>:
ffffffff84003cdc:	6d18                	ld	a4,24(a0)
ffffffff84003cde:	01971793          	slli	a5,a4,0x19
ffffffff84003ce2:	83e5                	srli	a5,a5,0x19
ffffffff84003ce4:	02675693          	srli	a3,a4,0x26
ffffffff84003ce8:	8a85                	andi	a3,a3,1
ffffffff84003cea:	ca91                	beqz	a3,ffffffff84003cfe <unbindMaybeNotification+0x22>
ffffffff84003cec:	56fd                	li	a3,-1
ffffffff84003cee:	169e                	slli	a3,a3,0x27
ffffffff84003cf0:	8fd5                	or	a5,a5,a3
ffffffff84003cf2:	931d                	srli	a4,a4,0x27
ffffffff84003cf4:	171e                	slli	a4,a4,0x27
ffffffff84003cf6:	ed18                	sd	a4,24(a0)
ffffffff84003cf8:	1207b823          	sd	zero,304(a5) # fffffffff8000130 <ki_end+0x73fdb130>
ffffffff84003cfc:	8082                	ret
ffffffff84003cfe:	dffd                	beqz	a5,ffffffff84003cfc <unbindMaybeNotification+0x20>
ffffffff84003d00:	bfcd                	j	ffffffff84003cf2 <unbindMaybeNotification+0x16>

ffffffff84003d02 <unbindNotification>:
ffffffff84003d02:	13053703          	ld	a4,304(a0)
ffffffff84003d06:	c719                	beqz	a4,ffffffff84003d14 <unbindNotification+0x12>
ffffffff84003d08:	6f1c                	ld	a5,24(a4)
ffffffff84003d0a:	939d                	srli	a5,a5,0x27
ffffffff84003d0c:	179e                	slli	a5,a5,0x27
ffffffff84003d0e:	ef1c                	sd	a5,24(a4)
ffffffff84003d10:	12053823          	sd	zero,304(a0)
ffffffff84003d14:	8082                	ret

ffffffff84003d16 <bindNotification>:
ffffffff84003d16:	6d98                	ld	a4,24(a1)
ffffffff84003d18:	57fd                	li	a5,-1
ffffffff84003d1a:	02779693          	slli	a3,a5,0x27
ffffffff84003d1e:	8f75                	and	a4,a4,a3
ffffffff84003d20:	83e5                	srli	a5,a5,0x19
ffffffff84003d22:	8fe9                	and	a5,a5,a0
ffffffff84003d24:	8fd9                	or	a5,a5,a4
ffffffff84003d26:	ed9c                	sd	a5,24(a1)
ffffffff84003d28:	12b53823          	sd	a1,304(a0)
ffffffff84003d2c:	8082                	ret

ffffffff84003d2e <getObjectSize>:
ffffffff84003d2e:	1141                	addi	sp,sp,-16
ffffffff84003d30:	e406                	sd	ra,8(sp)
ffffffff84003d32:	4799                	li	a5,6
ffffffff84003d34:	00a7ef63          	bltu	a5,a0,ffffffff84003d52 <getObjectSize+0x24>
ffffffff84003d38:	4799                	li	a5,6
ffffffff84003d3a:	02a7ec63          	bltu	a5,a0,ffffffff84003d72 <getObjectSize+0x44>
ffffffff84003d3e:	050a                	slli	a0,a0,0x2
ffffffff84003d40:	00008717          	auipc	a4,0x8
ffffffff84003d44:	c3070713          	addi	a4,a4,-976 # ffffffff8400b970 <msgRegisters+0x48>
ffffffff84003d48:	00e507b3          	add	a5,a0,a4
ffffffff84003d4c:	439c                	lw	a5,0(a5)
ffffffff84003d4e:	97ba                	add	a5,a5,a4
ffffffff84003d50:	8782                	jr	a5
ffffffff84003d52:	b22ff0ef          	jal	ra,ffffffff84003074 <Arch_getObjectSize>
ffffffff84003d56:	60a2                	ld	ra,8(sp)
ffffffff84003d58:	0141                	addi	sp,sp,16
ffffffff84003d5a:	8082                	ret
ffffffff84003d5c:	4511                	li	a0,4
ffffffff84003d5e:	bfe5                	j	ffffffff84003d56 <getObjectSize+0x28>
ffffffff84003d60:	00558513          	addi	a0,a1,5 # fffffffff8000005 <ki_end+0x73fdb005>
ffffffff84003d64:	bfcd                	j	ffffffff84003d56 <getObjectSize+0x28>
ffffffff84003d66:	852e                	mv	a0,a1
ffffffff84003d68:	b7fd                	j	ffffffff84003d56 <getObjectSize+0x28>
ffffffff84003d6a:	852e                	mv	a0,a1
ffffffff84003d6c:	b7ed                	j	ffffffff84003d56 <getObjectSize+0x28>
ffffffff84003d6e:	4515                	li	a0,5
ffffffff84003d70:	b7dd                	j	ffffffff84003d56 <getObjectSize+0x28>
ffffffff84003d72:	cf2fe0ef          	jal	ra,ffffffff84002264 <halt>
ffffffff84003d76:	4529                	li	a0,10
ffffffff84003d78:	bff9                	j	ffffffff84003d56 <getObjectSize+0x28>
ffffffff84003d7a:	4519                	li	a0,6
ffffffff84003d7c:	bfe9                	j	ffffffff84003d56 <getObjectSize+0x28>

ffffffff84003d7e <hasCancelSendRights>:
ffffffff84003d7e:	1141                	addi	sp,sp,-16
ffffffff84003d80:	03b55713          	srli	a4,a0,0x3b
ffffffff84003d84:	4791                	li	a5,4
ffffffff84003d86:	00f70563          	beq	a4,a5,ffffffff84003d90 <hasCancelSendRights+0x12>
ffffffff84003d8a:	4501                	li	a0,0
ffffffff84003d8c:	0141                	addi	sp,sp,16
ffffffff84003d8e:	8082                	ret
ffffffff84003d90:	470d                	li	a4,3
ffffffff84003d92:	175e                	slli	a4,a4,0x37
ffffffff84003d94:	00e576b3          	and	a3,a0,a4
ffffffff84003d98:	4781                	li	a5,0
ffffffff84003d9a:	00e68463          	beq	a3,a4,ffffffff84003da2 <hasCancelSendRights+0x24>
ffffffff84003d9e:	853e                	mv	a0,a5
ffffffff84003da0:	b7f5                	j	ffffffff84003d8c <hasCancelSendRights+0xe>
ffffffff84003da2:	478d                	li	a5,3
ffffffff84003da4:	17e6                	slli	a5,a5,0x39
ffffffff84003da6:	8d7d                	and	a0,a0,a5
ffffffff84003da8:	8d1d                	sub	a0,a0,a5
ffffffff84003daa:	00153793          	seqz	a5,a0
ffffffff84003dae:	bfc5                	j	ffffffff84003d9e <hasCancelSendRights+0x20>

ffffffff84003db0 <updateCapData>:
ffffffff84003db0:	1101                	addi	sp,sp,-32
ffffffff84003db2:	03b65793          	srli	a5,a2,0x3b
ffffffff84003db6:	0017f713          	andi	a4,a5,1
ffffffff84003dba:	ef09                	bnez	a4,ffffffff84003dd4 <updateCapData+0x24>
ffffffff84003dbc:	4719                	li	a4,6
ffffffff84003dbe:	02e78963          	beq	a5,a4,ffffffff84003df0 <updateCapData+0x40>
ffffffff84003dc2:	4729                	li	a4,10
ffffffff84003dc4:	02e78e63          	beq	a5,a4,ffffffff84003e00 <updateCapData+0x50>
ffffffff84003dc8:	4711                	li	a4,4
ffffffff84003dca:	00e78b63          	beq	a5,a4,ffffffff84003de0 <updateCapData+0x30>
ffffffff84003dce:	e832                	sd	a2,16(sp)
ffffffff84003dd0:	ec36                	sd	a3,24(sp)
ffffffff84003dd2:	a019                	j	ffffffff84003dd8 <updateCapData+0x28>
ffffffff84003dd4:	e832                	sd	a2,16(sp)
ffffffff84003dd6:	ec36                	sd	a3,24(sp)
ffffffff84003dd8:	6542                	ld	a0,16(sp)
ffffffff84003dda:	65e2                	ld	a1,24(sp)
ffffffff84003ddc:	6105                	addi	sp,sp,32
ffffffff84003dde:	8082                	ret
ffffffff84003de0:	8ec9                	or	a3,a3,a0
ffffffff84003de2:	e681                	bnez	a3,ffffffff84003dea <updateCapData+0x3a>
ffffffff84003de4:	e832                	sd	a2,16(sp)
ffffffff84003de6:	ec2e                	sd	a1,24(sp)
ffffffff84003de8:	bfc5                	j	ffffffff84003dd8 <updateCapData+0x28>
ffffffff84003dea:	e802                	sd	zero,16(sp)
ffffffff84003dec:	ec02                	sd	zero,24(sp)
ffffffff84003dee:	b7ed                	j	ffffffff84003dd8 <updateCapData+0x28>
ffffffff84003df0:	8ec9                	or	a3,a3,a0
ffffffff84003df2:	e681                	bnez	a3,ffffffff84003dfa <updateCapData+0x4a>
ffffffff84003df4:	e832                	sd	a2,16(sp)
ffffffff84003df6:	ec2e                	sd	a1,24(sp)
ffffffff84003df8:	b7c5                	j	ffffffff84003dd8 <updateCapData+0x28>
ffffffff84003dfa:	e802                	sd	zero,16(sp)
ffffffff84003dfc:	ec02                	sd	zero,24(sp)
ffffffff84003dfe:	bfe9                	j	ffffffff84003dd8 <updateCapData+0x28>
ffffffff84003e00:	03f5f713          	andi	a4,a1,63
ffffffff84003e04:	02f65793          	srli	a5,a2,0x2f
ffffffff84003e08:	03f7f793          	andi	a5,a5,63
ffffffff84003e0c:	97ba                	add	a5,a5,a4
ffffffff84003e0e:	04000693          	li	a3,64
ffffffff84003e12:	00f6f563          	bgeu	a3,a5,ffffffff84003e1c <updateCapData+0x6c>
ffffffff84003e16:	e802                	sd	zero,16(sp)
ffffffff84003e18:	ec02                	sd	zero,24(sp)
ffffffff84003e1a:	bf7d                	j	ffffffff84003dd8 <updateCapData+0x28>
ffffffff84003e1c:	fc100793          	li	a5,-63
ffffffff84003e20:	17d6                	slli	a5,a5,0x35
ffffffff84003e22:	17fd                	addi	a5,a5,-1
ffffffff84003e24:	8e7d                	and	a2,a2,a5
ffffffff84003e26:	03571793          	slli	a5,a4,0x35
ffffffff84003e2a:	8e5d                	or	a2,a2,a5
ffffffff84003e2c:	e832                	sd	a2,16(sp)
ffffffff84003e2e:	57fd                	li	a5,-1
ffffffff84003e30:	00e797b3          	sll	a5,a5,a4
ffffffff84003e34:	fff7c793          	not	a5,a5
ffffffff84003e38:	8199                	srli	a1,a1,0x6
ffffffff84003e3a:	8dfd                	and	a1,a1,a5
ffffffff84003e3c:	ec2e                	sd	a1,24(sp)
ffffffff84003e3e:	bf69                	j	ffffffff84003dd8 <updateCapData+0x28>

ffffffff84003e40 <maskCapRights>:
ffffffff84003e40:	7179                	addi	sp,sp,-48
ffffffff84003e42:	f406                	sd	ra,40(sp)
ffffffff84003e44:	e02e                	sd	a1,0(sp)
ffffffff84003e46:	e432                	sd	a2,8(sp)
ffffffff84003e48:	03b5d793          	srli	a5,a1,0x3b
ffffffff84003e4c:	0017f713          	andi	a4,a5,1
ffffffff84003e50:	ef11                	bnez	a4,ffffffff84003e6c <maskCapRights+0x2c>
ffffffff84003e52:	6722                	ld	a4,8(sp)
ffffffff84003e54:	46e1                	li	a3,24
ffffffff84003e56:	0ef6ea63          	bltu	a3,a5,ffffffff84003f4a <maskCapRights+0x10a>
ffffffff84003e5a:	078a                	slli	a5,a5,0x2
ffffffff84003e5c:	00008697          	auipc	a3,0x8
ffffffff84003e60:	b3068693          	addi	a3,a3,-1232 # ffffffff8400b98c <msgRegisters+0x64>
ffffffff84003e64:	97b6                	add	a5,a5,a3
ffffffff84003e66:	439c                	lw	a5,0(a5)
ffffffff84003e68:	97b6                	add	a5,a5,a3
ffffffff84003e6a:	8782                	jr	a5
ffffffff84003e6c:	eaffe0ef          	jal	ra,ffffffff84002d1a <Arch_maskCapRights>
ffffffff84003e70:	e82a                	sd	a0,16(sp)
ffffffff84003e72:	ec2e                	sd	a1,24(sp)
ffffffff84003e74:	6542                	ld	a0,16(sp)
ffffffff84003e76:	65e2                	ld	a1,24(sp)
ffffffff84003e78:	70a2                	ld	ra,40(sp)
ffffffff84003e7a:	6145                	addi	sp,sp,48
ffffffff84003e7c:	8082                	ret
ffffffff84003e7e:	e82e                	sd	a1,16(sp)
ffffffff84003e80:	ec3a                	sd	a4,24(sp)
ffffffff84003e82:	bfcd                	j	ffffffff84003e74 <maskCapRights+0x34>
ffffffff84003e84:	0375d793          	srli	a5,a1,0x37
ffffffff84003e88:	8fe9                	and	a5,a5,a0
ffffffff84003e8a:	4685                	li	a3,1
ffffffff84003e8c:	8ff5                	and	a5,a5,a3
ffffffff84003e8e:	17de                	slli	a5,a5,0x37
ffffffff84003e90:	567d                	li	a2,-1
ffffffff84003e92:	03761813          	slli	a6,a2,0x37
ffffffff84003e96:	187d                	addi	a6,a6,-1
ffffffff84003e98:	0105f833          	and	a6,a1,a6
ffffffff84003e9c:	0107e7b3          	or	a5,a5,a6
ffffffff84003ea0:	03861813          	slli	a6,a2,0x38
ffffffff84003ea4:	187d                	addi	a6,a6,-1
ffffffff84003ea6:	0107f7b3          	and	a5,a5,a6
ffffffff84003eaa:	00155813          	srli	a6,a0,0x1
ffffffff84003eae:	0385d893          	srli	a7,a1,0x38
ffffffff84003eb2:	01187833          	and	a6,a6,a7
ffffffff84003eb6:	0106f833          	and	a6,a3,a6
ffffffff84003eba:	1862                	slli	a6,a6,0x38
ffffffff84003ebc:	0107e7b3          	or	a5,a5,a6
ffffffff84003ec0:	03961813          	slli	a6,a2,0x39
ffffffff84003ec4:	187d                	addi	a6,a6,-1
ffffffff84003ec6:	0107f7b3          	and	a5,a5,a6
ffffffff84003eca:	00255813          	srli	a6,a0,0x2
ffffffff84003ece:	0395d893          	srli	a7,a1,0x39
ffffffff84003ed2:	01187833          	and	a6,a6,a7
ffffffff84003ed6:	0106f833          	and	a6,a3,a6
ffffffff84003eda:	1866                	slli	a6,a6,0x39
ffffffff84003edc:	0107e7b3          	or	a5,a5,a6
ffffffff84003ee0:	166a                	slli	a2,a2,0x3a
ffffffff84003ee2:	167d                	addi	a2,a2,-1
ffffffff84003ee4:	8ff1                	and	a5,a5,a2
ffffffff84003ee6:	810d                	srli	a0,a0,0x3
ffffffff84003ee8:	91e9                	srli	a1,a1,0x3a
ffffffff84003eea:	8de9                	and	a1,a1,a0
ffffffff84003eec:	8eed                	and	a3,a3,a1
ffffffff84003eee:	16ea                	slli	a3,a3,0x3a
ffffffff84003ef0:	8fd5                	or	a5,a5,a3
ffffffff84003ef2:	e83e                	sd	a5,16(sp)
ffffffff84003ef4:	ec3a                	sd	a4,24(sp)
ffffffff84003ef6:	bfbd                	j	ffffffff84003e74 <maskCapRights+0x34>
ffffffff84003ef8:	0395d793          	srli	a5,a1,0x39
ffffffff84003efc:	8fe9                	and	a5,a5,a0
ffffffff84003efe:	4685                	li	a3,1
ffffffff84003f00:	8ff5                	and	a5,a5,a3
ffffffff84003f02:	17e6                	slli	a5,a5,0x39
ffffffff84003f04:	567d                	li	a2,-1
ffffffff84003f06:	03961813          	slli	a6,a2,0x39
ffffffff84003f0a:	187d                	addi	a6,a6,-1
ffffffff84003f0c:	0105f833          	and	a6,a1,a6
ffffffff84003f10:	0107e7b3          	or	a5,a5,a6
ffffffff84003f14:	166a                	slli	a2,a2,0x3a
ffffffff84003f16:	167d                	addi	a2,a2,-1
ffffffff84003f18:	8ff1                	and	a5,a5,a2
ffffffff84003f1a:	8105                	srli	a0,a0,0x1
ffffffff84003f1c:	91e9                	srli	a1,a1,0x3a
ffffffff84003f1e:	8de9                	and	a1,a1,a0
ffffffff84003f20:	8eed                	and	a3,a3,a1
ffffffff84003f22:	16ea                	slli	a3,a3,0x3a
ffffffff84003f24:	8fd5                	or	a5,a5,a3
ffffffff84003f26:	e83e                	sd	a5,16(sp)
ffffffff84003f28:	ec3a                	sd	a4,24(sp)
ffffffff84003f2a:	b7a9                	j	ffffffff84003e74 <maskCapRights+0x34>
ffffffff84003f2c:	00255793          	srli	a5,a0,0x2
ffffffff84003f30:	03a5d513          	srli	a0,a1,0x3a
ffffffff84003f34:	8fe9                	and	a5,a5,a0
ffffffff84003f36:	8b85                	andi	a5,a5,1
ffffffff84003f38:	17ea                	slli	a5,a5,0x3a
ffffffff84003f3a:	56fd                	li	a3,-1
ffffffff84003f3c:	16ea                	slli	a3,a3,0x3a
ffffffff84003f3e:	16fd                	addi	a3,a3,-1
ffffffff84003f40:	8df5                	and	a1,a1,a3
ffffffff84003f42:	8ddd                	or	a1,a1,a5
ffffffff84003f44:	e82e                	sd	a1,16(sp)
ffffffff84003f46:	ec3a                	sd	a4,24(sp)
ffffffff84003f48:	b735                	j	ffffffff84003e74 <maskCapRights+0x34>
ffffffff84003f4a:	b1afe0ef          	jal	ra,ffffffff84002264 <halt>

ffffffff84003f4e <cap_get_capSizeBits>:
ffffffff84003f4e:	87aa                	mv	a5,a0
ffffffff84003f50:	03b55613          	srli	a2,a0,0x3b
ffffffff84003f54:	4761                	li	a4,24
ffffffff84003f56:	06c76263          	bltu	a4,a2,ffffffff84003fba <cap_get_capSizeBits+0x6c>
ffffffff84003f5a:	00261693          	slli	a3,a2,0x2
ffffffff84003f5e:	00008517          	auipc	a0,0x8
ffffffff84003f62:	a9250513          	addi	a0,a0,-1390 # ffffffff8400b9f0 <msgRegisters+0xc8>
ffffffff84003f66:	96aa                	add	a3,a3,a0
ffffffff84003f68:	4298                	lw	a4,0(a3)
ffffffff84003f6a:	972a                	add	a4,a4,a0
ffffffff84003f6c:	8702                	jr	a4
ffffffff84003f6e:	4519                	li	a0,6
ffffffff84003f70:	8082                	ret
ffffffff84003f72:	03f5f513          	andi	a0,a1,63
ffffffff84003f76:	8082                	ret
ffffffff84003f78:	02f7d513          	srli	a0,a5,0x2f
ffffffff84003f7c:	03f57513          	andi	a0,a0,63
ffffffff84003f80:	0515                	addi	a0,a0,5
ffffffff84003f82:	8082                	ret
ffffffff84003f84:	4529                	li	a0,10
ffffffff84003f86:	8082                	ret
ffffffff84003f88:	07f7f713          	andi	a4,a5,127
ffffffff84003f8c:	04000693          	li	a3,64
ffffffff84003f90:	06d70863          	beq	a4,a3,ffffffff84004000 <cap_get_capSizeBits+0xb2>
ffffffff84003f94:	03f7f513          	andi	a0,a5,63
ffffffff84003f98:	0515                	addi	a0,a0,5
ffffffff84003f9a:	8082                	ret
ffffffff84003f9c:	4501                	li	a0,0
ffffffff84003f9e:	8082                	ret
ffffffff84003fa0:	4501                	li	a0,0
ffffffff84003fa2:	8082                	ret
ffffffff84003fa4:	4515                	li	a0,5
ffffffff84003fa6:	8082                	ret
ffffffff84003fa8:	4501                	li	a0,0
ffffffff84003faa:	8082                	ret
ffffffff84003fac:	4501                	li	a0,0
ffffffff84003fae:	8082                	ret
ffffffff84003fb0:	00a5d513          	srli	a0,a1,0xa
ffffffff84003fb4:	03f57513          	andi	a0,a0,63
ffffffff84003fb8:	8082                	ret
ffffffff84003fba:	470d                	li	a4,3
ffffffff84003fbc:	02e60663          	beq	a2,a4,ffffffff84003fe8 <cap_get_capSizeBits+0x9a>
ffffffff84003fc0:	4735                	li	a4,13
ffffffff84003fc2:	02e60563          	beq	a2,a4,ffffffff84003fec <cap_get_capSizeBits+0x9e>
ffffffff84003fc6:	4705                	li	a4,1
ffffffff84003fc8:	4501                	li	a0,0
ffffffff84003fca:	00e60363          	beq	a2,a4,ffffffff84003fd0 <cap_get_capSizeBits+0x82>
ffffffff84003fce:	8082                	ret
ffffffff84003fd0:	93e5                	srli	a5,a5,0x39
ffffffff84003fd2:	8b8d                	andi	a5,a5,3
ffffffff84003fd4:	00e78e63          	beq	a5,a4,ffffffff84003ff0 <cap_get_capSizeBits+0xa2>
ffffffff84003fd8:	4709                	li	a4,2
ffffffff84003fda:	00e78d63          	beq	a5,a4,ffffffff84003ff4 <cap_get_capSizeBits+0xa6>
ffffffff84003fde:	cf89                	beqz	a5,ffffffff84003ff8 <cap_get_capSizeBits+0xaa>
ffffffff84003fe0:	1101                	addi	sp,sp,-32
ffffffff84003fe2:	ec06                	sd	ra,24(sp)
ffffffff84003fe4:	a80fe0ef          	jal	ra,ffffffff84002264 <halt>
ffffffff84003fe8:	4531                	li	a0,12
ffffffff84003fea:	8082                	ret
ffffffff84003fec:	4531                	li	a0,12
ffffffff84003fee:	8082                	ret
ffffffff84003ff0:	4555                	li	a0,21
ffffffff84003ff2:	8082                	ret
ffffffff84003ff4:	4579                	li	a0,30
ffffffff84003ff6:	8082                	ret
ffffffff84003ff8:	4531                	li	a0,12
ffffffff84003ffa:	8082                	ret
ffffffff84003ffc:	4511                	li	a0,4
ffffffff84003ffe:	8082                	ret
ffffffff84004000:	4529                	li	a0,10
ffffffff84004002:	b7f1                	j	ffffffff84003fce <cap_get_capSizeBits+0x80>

ffffffff84004004 <cap_get_capIsPhysical>:
ffffffff84004004:	1141                	addi	sp,sp,-16
ffffffff84004006:	916d                	srli	a0,a0,0x3b
ffffffff84004008:	47e1                	li	a5,24
ffffffff8400400a:	00a7ee63          	bltu	a5,a0,ffffffff84004026 <cap_get_capIsPhysical+0x22>
ffffffff8400400e:	00251713          	slli	a4,a0,0x2
ffffffff84004012:	00008697          	auipc	a3,0x8
ffffffff84004016:	a4268693          	addi	a3,a3,-1470 # ffffffff8400ba54 <msgRegisters+0x12c>
ffffffff8400401a:	9736                	add	a4,a4,a3
ffffffff8400401c:	431c                	lw	a5,0(a4)
ffffffff8400401e:	97b6                	add	a5,a5,a3
ffffffff84004020:	8782                	jr	a5
ffffffff84004022:	4501                	li	a0,0
ffffffff84004024:	a005                	j	ffffffff84004044 <cap_get_capIsPhysical+0x40>
ffffffff84004026:	47b5                	li	a5,13
ffffffff84004028:	00a7eb63          	bltu	a5,a0,ffffffff8400403e <cap_get_capIsPhysical+0x3a>
ffffffff8400402c:	4785                	li	a5,1
ffffffff8400402e:	00a79533          	sll	a0,a5,a0
ffffffff84004032:	6789                	lui	a5,0x2
ffffffff84004034:	07a9                	addi	a5,a5,10
ffffffff84004036:	8d7d                	and	a0,a0,a5
ffffffff84004038:	00a03533          	snez	a0,a0
ffffffff8400403c:	a021                	j	ffffffff84004044 <cap_get_capIsPhysical+0x40>
ffffffff8400403e:	4501                	li	a0,0
ffffffff84004040:	a011                	j	ffffffff84004044 <cap_get_capIsPhysical+0x40>
ffffffff84004042:	4505                	li	a0,1
ffffffff84004044:	0141                	addi	sp,sp,16
ffffffff84004046:	8082                	ret

ffffffff84004048 <cap_get_capPtr>:
ffffffff84004048:	1141                	addi	sp,sp,-16
ffffffff8400404a:	03b55793          	srli	a5,a0,0x3b
ffffffff8400404e:	4761                	li	a4,24
ffffffff84004050:	0cf76663          	bltu	a4,a5,ffffffff8400411c <cap_get_capPtr+0xd4>
ffffffff84004054:	00279693          	slli	a3,a5,0x2
ffffffff84004058:	00008617          	auipc	a2,0x8
ffffffff8400405c:	a6060613          	addi	a2,a2,-1440 # ffffffff8400bab8 <msgRegisters+0x190>
ffffffff84004060:	96b2                	add	a3,a3,a2
ffffffff84004062:	4298                	lw	a4,0(a3)
ffffffff84004064:	9732                	add	a4,a4,a2
ffffffff84004066:	8702                	jr	a4
ffffffff84004068:	01951713          	slli	a4,a0,0x19
ffffffff8400406c:	8365                	srli	a4,a4,0x19
ffffffff8400406e:	02655793          	srli	a5,a0,0x26
ffffffff84004072:	8b85                	andi	a5,a5,1
ffffffff84004074:	c781                	beqz	a5,ffffffff8400407c <cap_get_capPtr+0x34>
ffffffff84004076:	57fd                	li	a5,-1
ffffffff84004078:	179e                	slli	a5,a5,0x27
ffffffff8400407a:	8f5d                	or	a4,a4,a5
ffffffff8400407c:	853a                	mv	a0,a4
ffffffff8400407e:	a8ed                	j	ffffffff84004178 <cap_get_capPtr+0x130>
ffffffff84004080:	01951713          	slli	a4,a0,0x19
ffffffff84004084:	8365                	srli	a4,a4,0x19
ffffffff84004086:	02655793          	srli	a5,a0,0x26
ffffffff8400408a:	8b85                	andi	a5,a5,1
ffffffff8400408c:	c781                	beqz	a5,ffffffff84004094 <cap_get_capPtr+0x4c>
ffffffff8400408e:	57fd                	li	a5,-1
ffffffff84004090:	179e                	slli	a5,a5,0x27
ffffffff84004092:	8f5d                	or	a4,a4,a5
ffffffff84004094:	853a                	mv	a0,a4
ffffffff84004096:	a0cd                	j	ffffffff84004178 <cap_get_capPtr+0x130>
ffffffff84004098:	01951713          	slli	a4,a0,0x19
ffffffff8400409c:	8365                	srli	a4,a4,0x19
ffffffff8400409e:	02655793          	srli	a5,a0,0x26
ffffffff840040a2:	8b85                	andi	a5,a5,1
ffffffff840040a4:	c781                	beqz	a5,ffffffff840040ac <cap_get_capPtr+0x64>
ffffffff840040a6:	57fd                	li	a5,-1
ffffffff840040a8:	179e                	slli	a5,a5,0x27
ffffffff840040aa:	8f5d                	or	a4,a4,a5
ffffffff840040ac:	853a                	mv	a0,a4
ffffffff840040ae:	a0e9                	j	ffffffff84004178 <cap_get_capPtr+0x130>
ffffffff840040b0:	00151793          	slli	a5,a0,0x1
ffffffff840040b4:	fc000537          	lui	a0,0xfc000
ffffffff840040b8:	8165                	srli	a0,a0,0x19
ffffffff840040ba:	8d7d                	and	a0,a0,a5
ffffffff840040bc:	9399                	srli	a5,a5,0x26
ffffffff840040be:	8b85                	andi	a5,a5,1
ffffffff840040c0:	cfc5                	beqz	a5,ffffffff84004178 <cap_get_capPtr+0x130>
ffffffff840040c2:	57fd                	li	a5,-1
ffffffff840040c4:	179e                	slli	a5,a5,0x27
ffffffff840040c6:	8d5d                	or	a0,a0,a5
ffffffff840040c8:	a845                	j	ffffffff84004178 <cap_get_capPtr+0x130>
ffffffff840040ca:	01951793          	slli	a5,a0,0x19
ffffffff840040ce:	83e5                	srli	a5,a5,0x19
ffffffff840040d0:	9119                	srli	a0,a0,0x26
ffffffff840040d2:	8905                	andi	a0,a0,1
ffffffff840040d4:	c501                	beqz	a0,ffffffff840040dc <cap_get_capPtr+0x94>
ffffffff840040d6:	577d                	li	a4,-1
ffffffff840040d8:	171e                	slli	a4,a4,0x27
ffffffff840040da:	8fd9                	or	a5,a5,a4
ffffffff840040dc:	c007f513          	andi	a0,a5,-1024
ffffffff840040e0:	a861                	j	ffffffff84004178 <cap_get_capPtr+0x130>
ffffffff840040e2:	07f57793          	andi	a5,a0,127
ffffffff840040e6:	04000713          	li	a4,64
ffffffff840040ea:	00e78a63          	beq	a5,a4,ffffffff840040fe <cap_get_capPtr+0xb6>
ffffffff840040ee:	03f57513          	andi	a0,a0,63
ffffffff840040f2:	2505                	addiw	a0,a0,1
ffffffff840040f4:	57fd                	li	a5,-1
ffffffff840040f6:	00a79533          	sll	a0,a5,a0
ffffffff840040fa:	8d6d                	and	a0,a0,a1
ffffffff840040fc:	a8b5                	j	ffffffff84004178 <cap_get_capPtr+0x130>
ffffffff840040fe:	4511                	li	a0,4
ffffffff84004100:	bfcd                	j	ffffffff840040f2 <cap_get_capPtr+0xaa>
ffffffff84004102:	852e                	mv	a0,a1
ffffffff84004104:	a895                	j	ffffffff84004178 <cap_get_capPtr+0x130>
ffffffff84004106:	81c1                	srli	a1,a1,0x10
ffffffff84004108:	01959513          	slli	a0,a1,0x19
ffffffff8400410c:	8165                	srli	a0,a0,0x19
ffffffff8400410e:	9199                	srli	a1,a1,0x26
ffffffff84004110:	8985                	andi	a1,a1,1
ffffffff84004112:	c1bd                	beqz	a1,ffffffff84004178 <cap_get_capPtr+0x130>
ffffffff84004114:	57fd                	li	a5,-1
ffffffff84004116:	179e                	slli	a5,a5,0x27
ffffffff84004118:	8d5d                	or	a0,a0,a5
ffffffff8400411a:	a8b9                	j	ffffffff84004178 <cap_get_capPtr+0x130>
ffffffff8400411c:	470d                	li	a4,3
ffffffff8400411e:	02e78463          	beq	a5,a4,ffffffff84004146 <cap_get_capPtr+0xfe>
ffffffff84004122:	4735                	li	a4,13
ffffffff84004124:	02e78c63          	beq	a5,a4,ffffffff8400415c <cap_get_capPtr+0x114>
ffffffff84004128:	4705                	li	a4,1
ffffffff8400412a:	4501                	li	a0,0
ffffffff8400412c:	04e79663          	bne	a5,a4,ffffffff84004178 <cap_get_capPtr+0x130>
ffffffff84004130:	81a5                	srli	a1,a1,0x9
ffffffff84004132:	01959513          	slli	a0,a1,0x19
ffffffff84004136:	8165                	srli	a0,a0,0x19
ffffffff84004138:	9199                	srli	a1,a1,0x26
ffffffff8400413a:	8985                	andi	a1,a1,1
ffffffff8400413c:	cd95                	beqz	a1,ffffffff84004178 <cap_get_capPtr+0x130>
ffffffff8400413e:	57fd                	li	a5,-1
ffffffff84004140:	179e                	slli	a5,a5,0x27
ffffffff84004142:	8d5d                	or	a0,a0,a5
ffffffff84004144:	a815                	j	ffffffff84004178 <cap_get_capPtr+0x130>
ffffffff84004146:	81a5                	srli	a1,a1,0x9
ffffffff84004148:	01959513          	slli	a0,a1,0x19
ffffffff8400414c:	8165                	srli	a0,a0,0x19
ffffffff8400414e:	9199                	srli	a1,a1,0x26
ffffffff84004150:	8985                	andi	a1,a1,1
ffffffff84004152:	c19d                	beqz	a1,ffffffff84004178 <cap_get_capPtr+0x130>
ffffffff84004154:	57fd                	li	a5,-1
ffffffff84004156:	179e                	slli	a5,a5,0x27
ffffffff84004158:	8d5d                	or	a0,a0,a5
ffffffff8400415a:	a839                	j	ffffffff84004178 <cap_get_capPtr+0x130>
ffffffff8400415c:	00251793          	slli	a5,a0,0x2
ffffffff84004160:	f8000537          	lui	a0,0xf8000
ffffffff84004164:	8165                	srli	a0,a0,0x19
ffffffff84004166:	8d7d                	and	a0,a0,a5
ffffffff84004168:	9399                	srli	a5,a5,0x26
ffffffff8400416a:	8b85                	andi	a5,a5,1
ffffffff8400416c:	c791                	beqz	a5,ffffffff84004178 <cap_get_capPtr+0x130>
ffffffff8400416e:	57fd                	li	a5,-1
ffffffff84004170:	179e                	slli	a5,a5,0x27
ffffffff84004172:	8d5d                	or	a0,a0,a5
ffffffff84004174:	a011                	j	ffffffff84004178 <cap_get_capPtr+0x130>
ffffffff84004176:	4501                	li	a0,0
ffffffff84004178:	0141                	addi	sp,sp,16
ffffffff8400417a:	8082                	ret

ffffffff8400417c <sameRegionAs>:
ffffffff8400417c:	7139                	addi	sp,sp,-64
ffffffff8400417e:	fc06                	sd	ra,56(sp)
ffffffff84004180:	f822                	sd	s0,48(sp)
ffffffff84004182:	f426                	sd	s1,40(sp)
ffffffff84004184:	f04a                	sd	s2,32(sp)
ffffffff84004186:	e82a                	sd	a0,16(sp)
ffffffff84004188:	ec2e                	sd	a1,24(sp)
ffffffff8400418a:	e032                	sd	a2,0(sp)
ffffffff8400418c:	e436                	sd	a3,8(sp)
ffffffff8400418e:	03b55793          	srli	a5,a0,0x3b
ffffffff84004192:	4761                	li	a4,24
ffffffff84004194:	26f76863          	bltu	a4,a5,ffffffff84004404 <sameRegionAs+0x288>
ffffffff84004198:	84ae                	mv	s1,a1
ffffffff8400419a:	842a                	mv	s0,a0
ffffffff8400419c:	00279593          	slli	a1,a5,0x2
ffffffff840041a0:	00008817          	auipc	a6,0x8
ffffffff840041a4:	97c80813          	addi	a6,a6,-1668 # ffffffff8400bb1c <msgRegisters+0x1f4>
ffffffff840041a8:	95c2                	add	a1,a1,a6
ffffffff840041aa:	4198                	lw	a4,0(a1)
ffffffff840041ac:	9742                	add	a4,a4,a6
ffffffff840041ae:	8702                	jr	a4
ffffffff840041b0:	6502                	ld	a0,0(sp)
ffffffff840041b2:	65a2                	ld	a1,8(sp)
ffffffff840041b4:	e51ff0ef          	jal	ra,ffffffff84004004 <cap_get_capIsPhysical>
ffffffff840041b8:	1a050163          	beqz	a0,ffffffff8400435a <sameRegionAs+0x1de>
ffffffff840041bc:	01941913          	slli	s2,s0,0x19
ffffffff840041c0:	01995913          	srli	s2,s2,0x19
ffffffff840041c4:	9019                	srli	s0,s0,0x26
ffffffff840041c6:	8805                	andi	s0,s0,1
ffffffff840041c8:	c409                	beqz	s0,ffffffff840041d2 <sameRegionAs+0x56>
ffffffff840041ca:	57fd                	li	a5,-1
ffffffff840041cc:	179e                	slli	a5,a5,0x27
ffffffff840041ce:	00f96933          	or	s2,s2,a5
ffffffff840041d2:	6502                	ld	a0,0(sp)
ffffffff840041d4:	65a2                	ld	a1,8(sp)
ffffffff840041d6:	e73ff0ef          	jal	ra,ffffffff84004048 <cap_get_capPtr>
ffffffff840041da:	842a                	mv	s0,a0
ffffffff840041dc:	6502                	ld	a0,0(sp)
ffffffff840041de:	65a2                	ld	a1,8(sp)
ffffffff840041e0:	d6fff0ef          	jal	ra,ffffffff84003f4e <cap_get_capSizeBits>
ffffffff840041e4:	87aa                	mv	a5,a0
ffffffff840041e6:	4501                	li	a0,0
ffffffff840041e8:	17246963          	bltu	s0,s2,ffffffff8400435a <sameRegionAs+0x1de>
ffffffff840041ec:	4705                	li	a4,1
ffffffff840041ee:	00f717b3          	sll	a5,a4,a5
ffffffff840041f2:	fff40693          	addi	a3,s0,-1
ffffffff840041f6:	97b6                	add	a5,a5,a3
ffffffff840041f8:	00971733          	sll	a4,a4,s1
ffffffff840041fc:	177d                	addi	a4,a4,-1
ffffffff840041fe:	993a                	add	s2,s2,a4
ffffffff84004200:	14f96d63          	bltu	s2,a5,ffffffff8400435a <sameRegionAs+0x1de>
ffffffff84004204:	0087b533          	sltu	a0,a5,s0
ffffffff84004208:	00154513          	xori	a0,a0,1
ffffffff8400420c:	2501                	sext.w	a0,a0
ffffffff8400420e:	a2b1                	j	ffffffff8400435a <sameRegionAs+0x1de>
ffffffff84004210:	03b65793          	srli	a5,a2,0x3b
ffffffff84004214:	4711                	li	a4,4
ffffffff84004216:	4501                	li	a0,0
ffffffff84004218:	14e79163          	bne	a5,a4,ffffffff8400435a <sameRegionAs+0x1de>
ffffffff8400421c:	01941793          	slli	a5,s0,0x19
ffffffff84004220:	0197d713          	srli	a4,a5,0x19
ffffffff84004224:	9019                	srli	s0,s0,0x26
ffffffff84004226:	8805                	andi	s0,s0,1
ffffffff84004228:	c401                	beqz	s0,ffffffff84004230 <sameRegionAs+0xb4>
ffffffff8400422a:	57fd                	li	a5,-1
ffffffff8400422c:	179e                	slli	a5,a5,0x27
ffffffff8400422e:	8f5d                	or	a4,a4,a5
ffffffff84004230:	01961793          	slli	a5,a2,0x19
ffffffff84004234:	83e5                	srli	a5,a5,0x19
ffffffff84004236:	02665513          	srli	a0,a2,0x26
ffffffff8400423a:	00157613          	andi	a2,a0,1
ffffffff8400423e:	c601                	beqz	a2,ffffffff84004246 <sameRegionAs+0xca>
ffffffff84004240:	56fd                	li	a3,-1
ffffffff84004242:	169e                	slli	a3,a3,0x27
ffffffff84004244:	8fd5                	or	a5,a5,a3
ffffffff84004246:	8f99                	sub	a5,a5,a4
ffffffff84004248:	0017b513          	seqz	a0,a5
ffffffff8400424c:	a239                	j	ffffffff8400435a <sameRegionAs+0x1de>
ffffffff8400424e:	03b65793          	srli	a5,a2,0x3b
ffffffff84004252:	4719                	li	a4,6
ffffffff84004254:	4501                	li	a0,0
ffffffff84004256:	10e79263          	bne	a5,a4,ffffffff8400435a <sameRegionAs+0x1de>
ffffffff8400425a:	01941793          	slli	a5,s0,0x19
ffffffff8400425e:	0197d713          	srli	a4,a5,0x19
ffffffff84004262:	9019                	srli	s0,s0,0x26
ffffffff84004264:	8805                	andi	s0,s0,1
ffffffff84004266:	c401                	beqz	s0,ffffffff8400426e <sameRegionAs+0xf2>
ffffffff84004268:	57fd                	li	a5,-1
ffffffff8400426a:	179e                	slli	a5,a5,0x27
ffffffff8400426c:	8f5d                	or	a4,a4,a5
ffffffff8400426e:	01961793          	slli	a5,a2,0x19
ffffffff84004272:	83e5                	srli	a5,a5,0x19
ffffffff84004274:	02665513          	srli	a0,a2,0x26
ffffffff84004278:	00157613          	andi	a2,a0,1
ffffffff8400427c:	c601                	beqz	a2,ffffffff84004284 <sameRegionAs+0x108>
ffffffff8400427e:	56fd                	li	a3,-1
ffffffff84004280:	169e                	slli	a3,a3,0x27
ffffffff84004282:	8fd5                	or	a5,a5,a3
ffffffff84004284:	8f99                	sub	a5,a5,a4
ffffffff84004286:	0017b513          	seqz	a0,a5
ffffffff8400428a:	a8c1                	j	ffffffff8400435a <sameRegionAs+0x1de>
ffffffff8400428c:	03b65793          	srli	a5,a2,0x3b
ffffffff84004290:	4729                	li	a4,10
ffffffff84004292:	4501                	li	a0,0
ffffffff84004294:	0ce79363          	bne	a5,a4,ffffffff8400435a <sameRegionAs+0x1de>
ffffffff84004298:	00141793          	slli	a5,s0,0x1
ffffffff8400429c:	fc000737          	lui	a4,0xfc000
ffffffff840042a0:	8365                	srli	a4,a4,0x19
ffffffff840042a2:	8f7d                	and	a4,a4,a5
ffffffff840042a4:	9399                	srli	a5,a5,0x26
ffffffff840042a6:	8b85                	andi	a5,a5,1
ffffffff840042a8:	c78d                	beqz	a5,ffffffff840042d2 <sameRegionAs+0x156>
ffffffff840042aa:	57fd                	li	a5,-1
ffffffff840042ac:	179e                	slli	a5,a5,0x27
ffffffff840042ae:	8f5d                	or	a4,a4,a5
ffffffff840042b0:	00161793          	slli	a5,a2,0x1
ffffffff840042b4:	fc0006b7          	lui	a3,0xfc000
ffffffff840042b8:	82e5                	srli	a3,a3,0x19
ffffffff840042ba:	8efd                	and	a3,a3,a5
ffffffff840042bc:	9399                	srli	a5,a5,0x26
ffffffff840042be:	8b85                	andi	a5,a5,1
ffffffff840042c0:	c799                	beqz	a5,ffffffff840042ce <sameRegionAs+0x152>
ffffffff840042c2:	57fd                	li	a5,-1
ffffffff840042c4:	179e                	slli	a5,a5,0x27
ffffffff840042c6:	8edd                	or	a3,a3,a5
ffffffff840042c8:	4781                	li	a5,0
ffffffff840042ca:	00d70e63          	beq	a4,a3,ffffffff840042e6 <sameRegionAs+0x16a>
ffffffff840042ce:	853e                	mv	a0,a5
ffffffff840042d0:	a069                	j	ffffffff8400435a <sameRegionAs+0x1de>
ffffffff840042d2:	00161793          	slli	a5,a2,0x1
ffffffff840042d6:	fc0006b7          	lui	a3,0xfc000
ffffffff840042da:	82e5                	srli	a3,a3,0x19
ffffffff840042dc:	8efd                	and	a3,a3,a5
ffffffff840042de:	9399                	srli	a5,a5,0x26
ffffffff840042e0:	8b85                	andi	a5,a5,1
ffffffff840042e2:	f3e5                	bnez	a5,ffffffff840042c2 <sameRegionAs+0x146>
ffffffff840042e4:	b7d5                	j	ffffffff840042c8 <sameRegionAs+0x14c>
ffffffff840042e6:	02f65793          	srli	a5,a2,0x2f
ffffffff840042ea:	03f7f793          	andi	a5,a5,63
ffffffff840042ee:	02f45713          	srli	a4,s0,0x2f
ffffffff840042f2:	03f77713          	andi	a4,a4,63
ffffffff840042f6:	8f99                	sub	a5,a5,a4
ffffffff840042f8:	0017b793          	seqz	a5,a5
ffffffff840042fc:	bfc9                	j	ffffffff840042ce <sameRegionAs+0x152>
ffffffff840042fe:	03b65793          	srli	a5,a2,0x3b
ffffffff84004302:	4731                	li	a4,12
ffffffff84004304:	4501                	li	a0,0
ffffffff84004306:	04e79a63          	bne	a5,a4,ffffffff8400435a <sameRegionAs+0x1de>
ffffffff8400430a:	01941793          	slli	a5,s0,0x19
ffffffff8400430e:	0197d713          	srli	a4,a5,0x19
ffffffff84004312:	9019                	srli	s0,s0,0x26
ffffffff84004314:	8805                	andi	s0,s0,1
ffffffff84004316:	c401                	beqz	s0,ffffffff8400431e <sameRegionAs+0x1a2>
ffffffff84004318:	57fd                	li	a5,-1
ffffffff8400431a:	179e                	slli	a5,a5,0x27
ffffffff8400431c:	8f5d                	or	a4,a4,a5
ffffffff8400431e:	01961793          	slli	a5,a2,0x19
ffffffff84004322:	83e5                	srli	a5,a5,0x19
ffffffff84004324:	02665513          	srli	a0,a2,0x26
ffffffff84004328:	00157613          	andi	a2,a0,1
ffffffff8400432c:	c601                	beqz	a2,ffffffff84004334 <sameRegionAs+0x1b8>
ffffffff8400432e:	56fd                	li	a3,-1
ffffffff84004330:	169e                	slli	a3,a3,0x27
ffffffff84004332:	8fd5                	or	a5,a5,a3
ffffffff84004334:	8f99                	sub	a5,a5,a4
ffffffff84004336:	0017b513          	seqz	a0,a5
ffffffff8400433a:	a005                	j	ffffffff8400435a <sameRegionAs+0x1de>
ffffffff8400433c:	926d                	srli	a2,a2,0x3b
ffffffff8400433e:	4721                	li	a4,8
ffffffff84004340:	4501                	li	a0,0
ffffffff84004342:	00e61c63          	bne	a2,a4,ffffffff8400435a <sameRegionAs+0x1de>
ffffffff84004346:	40d48533          	sub	a0,s1,a3
ffffffff8400434a:	00153513          	seqz	a0,a0
ffffffff8400434e:	a031                	j	ffffffff8400435a <sameRegionAs+0x1de>
ffffffff84004350:	03b65513          	srli	a0,a2,0x3b
ffffffff84004354:	1531                	addi	a0,a0,-20
ffffffff84004356:	00153513          	seqz	a0,a0
ffffffff8400435a:	70e2                	ld	ra,56(sp)
ffffffff8400435c:	7442                	ld	s0,48(sp)
ffffffff8400435e:	74a2                	ld	s1,40(sp)
ffffffff84004360:	7902                	ld	s2,32(sp)
ffffffff84004362:	6121                	addi	sp,sp,64
ffffffff84004364:	8082                	ret
ffffffff84004366:	03b65513          	srli	a0,a2,0x3b
ffffffff8400436a:	1549                	addi	a0,a0,-14
ffffffff8400436c:	9975                	andi	a0,a0,-3
ffffffff8400436e:	00153513          	seqz	a0,a0
ffffffff84004372:	b7e5                	j	ffffffff8400435a <sameRegionAs+0x1de>
ffffffff84004374:	926d                	srli	a2,a2,0x3b
ffffffff84004376:	4741                	li	a4,16
ffffffff84004378:	4501                	li	a0,0
ffffffff8400437a:	fee610e3          	bne	a2,a4,ffffffff8400435a <sameRegionAs+0x1de>
ffffffff8400437e:	6505                	lui	a0,0x1
ffffffff84004380:	157d                	addi	a0,a0,-1
ffffffff84004382:	00a6f7b3          	and	a5,a3,a0
ffffffff84004386:	8d65                	and	a0,a0,s1
ffffffff84004388:	40a78533          	sub	a0,a5,a0
ffffffff8400438c:	00153513          	seqz	a0,a0
ffffffff84004390:	b7e9                	j	ffffffff8400435a <sameRegionAs+0x1de>
ffffffff84004392:	926d                	srli	a2,a2,0x3b
ffffffff84004394:	4759                	li	a4,22
ffffffff84004396:	4501                	li	a0,0
ffffffff84004398:	fce611e3          	bne	a2,a4,ffffffff8400435a <sameRegionAs+0x1de>
ffffffff8400439c:	0104d793          	srli	a5,s1,0x10
ffffffff840043a0:	01979613          	slli	a2,a5,0x19
ffffffff840043a4:	8265                	srli	a2,a2,0x19
ffffffff840043a6:	9399                	srli	a5,a5,0x26
ffffffff840043a8:	8b85                	andi	a5,a5,1
ffffffff840043aa:	cf95                	beqz	a5,ffffffff840043e6 <sameRegionAs+0x26a>
ffffffff840043ac:	57fd                	li	a5,-1
ffffffff840043ae:	02779713          	slli	a4,a5,0x27
ffffffff840043b2:	8e59                	or	a2,a2,a4
ffffffff840043b4:	0106d713          	srli	a4,a3,0x10
ffffffff840043b8:	83e5                	srli	a5,a5,0x19
ffffffff840043ba:	8ff9                	and	a5,a5,a4
ffffffff840043bc:	9319                	srli	a4,a4,0x26
ffffffff840043be:	8b05                	andi	a4,a4,1
ffffffff840043c0:	df49                	beqz	a4,ffffffff8400435a <sameRegionAs+0x1de>
ffffffff840043c2:	577d                	li	a4,-1
ffffffff840043c4:	171e                	slli	a4,a4,0x27
ffffffff840043c6:	8fd9                	or	a5,a5,a4
ffffffff840043c8:	4501                	li	a0,0
ffffffff840043ca:	f8c798e3          	bne	a5,a2,ffffffff8400435a <sameRegionAs+0x1de>
ffffffff840043ce:	00a6d513          	srli	a0,a3,0xa
ffffffff840043d2:	03f57513          	andi	a0,a0,63
ffffffff840043d6:	00a4d793          	srli	a5,s1,0xa
ffffffff840043da:	03f7f793          	andi	a5,a5,63
ffffffff840043de:	8d1d                	sub	a0,a0,a5
ffffffff840043e0:	00153513          	seqz	a0,a0
ffffffff840043e4:	bf9d                	j	ffffffff8400435a <sameRegionAs+0x1de>
ffffffff840043e6:	0106d713          	srli	a4,a3,0x10
ffffffff840043ea:	01971793          	slli	a5,a4,0x19
ffffffff840043ee:	83e5                	srli	a5,a5,0x19
ffffffff840043f0:	9319                	srli	a4,a4,0x26
ffffffff840043f2:	8b05                	andi	a4,a4,1
ffffffff840043f4:	f779                	bnez	a4,ffffffff840043c2 <sameRegionAs+0x246>
ffffffff840043f6:	bfc9                	j	ffffffff840043c8 <sameRegionAs+0x24c>
ffffffff840043f8:	03b65513          	srli	a0,a2,0x3b
ffffffff840043fc:	1521                	addi	a0,a0,-24
ffffffff840043fe:	00153513          	seqz	a0,a0
ffffffff84004402:	bfa1                	j	ffffffff8400435a <sameRegionAs+0x1de>
ffffffff84004404:	0017f513          	andi	a0,a5,1
ffffffff84004408:	d929                	beqz	a0,ffffffff8400435a <sameRegionAs+0x1de>
ffffffff8400440a:	03b65513          	srli	a0,a2,0x3b
ffffffff8400440e:	8905                	andi	a0,a0,1
ffffffff84004410:	d529                	beqz	a0,ffffffff8400435a <sameRegionAs+0x1de>
ffffffff84004412:	6602                	ld	a2,0(sp)
ffffffff84004414:	66a2                	ld	a3,8(sp)
ffffffff84004416:	6542                	ld	a0,16(sp)
ffffffff84004418:	65e2                	ld	a1,24(sp)
ffffffff8400441a:	a5dfe0ef          	jal	ra,ffffffff84002e76 <Arch_sameRegionAs>
ffffffff8400441e:	bf35                	j	ffffffff8400435a <sameRegionAs+0x1de>

ffffffff84004420 <isMDBParentOf>:
ffffffff84004420:	1101                	addi	sp,sp,-32
ffffffff84004422:	ec06                	sd	ra,24(sp)
ffffffff84004424:	e822                	sd	s0,16(sp)
ffffffff84004426:	e426                	sd	s1,8(sp)
ffffffff84004428:	e04a                	sd	s2,0(sp)
ffffffff8400442a:	6d00                	ld	s0,24(a0)
ffffffff8400442c:	8005                	srli	s0,s0,0x1
ffffffff8400442e:	8805                	andi	s0,s0,1
ffffffff84004430:	cc29                	beqz	s0,ffffffff8400448a <isMDBParentOf+0x6a>
ffffffff84004432:	84aa                	mv	s1,a0
ffffffff84004434:	892e                	mv	s2,a1
ffffffff84004436:	6190                	ld	a2,0(a1)
ffffffff84004438:	6594                	ld	a3,8(a1)
ffffffff8400443a:	6108                	ld	a0,0(a0)
ffffffff8400443c:	648c                	ld	a1,8(s1)
ffffffff8400443e:	d3fff0ef          	jal	ra,ffffffff8400417c <sameRegionAs>
ffffffff84004442:	c139                	beqz	a0,ffffffff84004488 <isMDBParentOf+0x68>
ffffffff84004444:	609c                	ld	a5,0(s1)
ffffffff84004446:	93ed                	srli	a5,a5,0x3b
ffffffff84004448:	4711                	li	a4,4
ffffffff8400444a:	02e78263          	beq	a5,a4,ffffffff8400446e <isMDBParentOf+0x4e>
ffffffff8400444e:	4719                	li	a4,6
ffffffff84004450:	02e79d63          	bne	a5,a4,ffffffff8400448a <isMDBParentOf+0x6a>
ffffffff84004454:	649c                	ld	a5,8(s1)
ffffffff84004456:	cb95                	beqz	a5,ffffffff8400448a <isMDBParentOf+0x6a>
ffffffff84004458:	00893703          	ld	a4,8(s2)
ffffffff8400445c:	4401                	li	s0,0
ffffffff8400445e:	02e79663          	bne	a5,a4,ffffffff8400448a <isMDBParentOf+0x6a>
ffffffff84004462:	01893403          	ld	s0,24(s2)
ffffffff84004466:	00144413          	xori	s0,s0,1
ffffffff8400446a:	8805                	andi	s0,s0,1
ffffffff8400446c:	a839                	j	ffffffff8400448a <isMDBParentOf+0x6a>
ffffffff8400446e:	649c                	ld	a5,8(s1)
ffffffff84004470:	cf89                	beqz	a5,ffffffff8400448a <isMDBParentOf+0x6a>
ffffffff84004472:	00893703          	ld	a4,8(s2)
ffffffff84004476:	4401                	li	s0,0
ffffffff84004478:	00f71963          	bne	a4,a5,ffffffff8400448a <isMDBParentOf+0x6a>
ffffffff8400447c:	01893403          	ld	s0,24(s2)
ffffffff84004480:	00144413          	xori	s0,s0,1
ffffffff84004484:	8805                	andi	s0,s0,1
ffffffff84004486:	a011                	j	ffffffff8400448a <isMDBParentOf+0x6a>
ffffffff84004488:	842a                	mv	s0,a0
ffffffff8400448a:	8522                	mv	a0,s0
ffffffff8400448c:	60e2                	ld	ra,24(sp)
ffffffff8400448e:	6442                	ld	s0,16(sp)
ffffffff84004490:	64a2                	ld	s1,8(sp)
ffffffff84004492:	6902                	ld	s2,0(sp)
ffffffff84004494:	6105                	addi	sp,sp,32
ffffffff84004496:	8082                	ret

ffffffff84004498 <ensureNoChildren>:
ffffffff84004498:	6d1c                	ld	a5,24(a0)
ffffffff8400449a:	f80005b7          	lui	a1,0xf8000
ffffffff8400449e:	81e5                	srli	a1,a1,0x19
ffffffff840044a0:	8dfd                	and	a1,a1,a5
ffffffff840044a2:	9399                	srli	a5,a5,0x26
ffffffff840044a4:	8b85                	andi	a5,a5,1
ffffffff840044a6:	cf91                	beqz	a5,ffffffff840044c2 <ensureNoChildren+0x2a>
ffffffff840044a8:	57fd                	li	a5,-1
ffffffff840044aa:	179e                	slli	a5,a5,0x27
ffffffff840044ac:	8ddd                	or	a1,a1,a5
ffffffff840044ae:	1141                	addi	sp,sp,-16
ffffffff840044b0:	e406                	sd	ra,8(sp)
ffffffff840044b2:	f6fff0ef          	jal	ra,ffffffff84004420 <isMDBParentOf>
ffffffff840044b6:	85aa                	mv	a1,a0
ffffffff840044b8:	e901                	bnez	a0,ffffffff840044c8 <ensureNoChildren+0x30>
ffffffff840044ba:	852e                	mv	a0,a1
ffffffff840044bc:	60a2                	ld	ra,8(sp)
ffffffff840044be:	0141                	addi	sp,sp,16
ffffffff840044c0:	8082                	ret
ffffffff840044c2:	f5f5                	bnez	a1,ffffffff840044ae <ensureNoChildren+0x16>
ffffffff840044c4:	852e                	mv	a0,a1
ffffffff840044c6:	8082                	ret
ffffffff840044c8:	47a5                	li	a5,9
ffffffff840044ca:	00009717          	auipc	a4,0x9
ffffffff840044ce:	f6f73b23          	sd	a5,-138(a4) # ffffffff8400d440 <current_syscall_error+0x30>
ffffffff840044d2:	458d                	li	a1,3
ffffffff840044d4:	b7dd                	j	ffffffff840044ba <ensureNoChildren+0x22>

ffffffff840044d6 <deriveCap>:
ffffffff840044d6:	7139                	addi	sp,sp,-64
ffffffff840044d8:	fc06                	sd	ra,56(sp)
ffffffff840044da:	f822                	sd	s0,48(sp)
ffffffff840044dc:	f426                	sd	s1,40(sp)
ffffffff840044de:	f04a                	sd	s2,32(sp)
ffffffff840044e0:	ec4e                	sd	s3,24(sp)
ffffffff840044e2:	842a                	mv	s0,a0
ffffffff840044e4:	e032                	sd	a2,0(sp)
ffffffff840044e6:	e436                	sd	a3,8(sp)
ffffffff840044e8:	84b2                	mv	s1,a2
ffffffff840044ea:	03b65793          	srli	a5,a2,0x3b
ffffffff840044ee:	0017f913          	andi	s2,a5,1
ffffffff840044f2:	02091763          	bnez	s2,ffffffff84004520 <deriveCap+0x4a>
ffffffff840044f6:	69a2                	ld	s3,8(sp)
ffffffff840044f8:	ff278713          	addi	a4,a5,-14 # 1ff2 <KERNEL_OFFSET-0xfffffffeffffe00e>
ffffffff840044fc:	9b6d                	andi	a4,a4,-5
ffffffff840044fe:	cb15                	beqz	a4,ffffffff84004532 <deriveCap+0x5c>
ffffffff84004500:	4709                	li	a4,2
ffffffff84004502:	02e78263          	beq	a5,a4,ffffffff84004526 <deriveCap+0x50>
ffffffff84004506:	01243023          	sd	s2,0(s0)
ffffffff8400450a:	e404                	sd	s1,8(s0)
ffffffff8400450c:	01343823          	sd	s3,16(s0)
ffffffff84004510:	8522                	mv	a0,s0
ffffffff84004512:	70e2                	ld	ra,56(sp)
ffffffff84004514:	7442                	ld	s0,48(sp)
ffffffff84004516:	74a2                	ld	s1,40(sp)
ffffffff84004518:	7902                	ld	s2,32(sp)
ffffffff8400451a:	69e2                	ld	s3,24(sp)
ffffffff8400451c:	6121                	addi	sp,sp,64
ffffffff8400451e:	8082                	ret
ffffffff84004520:	f8cfe0ef          	jal	ra,ffffffff84002cac <Arch_deriveCap>
ffffffff84004524:	b7f5                	j	ffffffff84004510 <deriveCap+0x3a>
ffffffff84004526:	852e                	mv	a0,a1
ffffffff84004528:	f71ff0ef          	jal	ra,ffffffff84004498 <ensureNoChildren>
ffffffff8400452c:	e519                	bnez	a0,ffffffff8400453a <deriveCap+0x64>
ffffffff8400452e:	892a                	mv	s2,a0
ffffffff84004530:	bfd9                	j	ffffffff84004506 <deriveCap+0x30>
ffffffff84004532:	89ba                	mv	s3,a4
ffffffff84004534:	84ba                	mv	s1,a4
ffffffff84004536:	893a                	mv	s2,a4
ffffffff84004538:	b7f9                	j	ffffffff84004506 <deriveCap+0x30>
ffffffff8400453a:	89ca                	mv	s3,s2
ffffffff8400453c:	84ca                	mv	s1,s2
ffffffff8400453e:	892a                	mv	s2,a0
ffffffff84004540:	b7d9                	j	ffffffff84004506 <deriveCap+0x30>

ffffffff84004542 <sameObjectAs>:
ffffffff84004542:	7179                	addi	sp,sp,-48
ffffffff84004544:	f406                	sd	ra,40(sp)
ffffffff84004546:	e82a                	sd	a0,16(sp)
ffffffff84004548:	ec2e                	sd	a1,24(sp)
ffffffff8400454a:	e032                	sd	a2,0(sp)
ffffffff8400454c:	e436                	sd	a3,8(sp)
ffffffff8400454e:	916d                	srli	a0,a0,0x3b
ffffffff84004550:	4789                	li	a5,2
ffffffff84004552:	04f50263          	beq	a0,a5,ffffffff84004596 <sameObjectAs+0x54>
ffffffff84004556:	4739                	li	a4,14
ffffffff84004558:	02e50163          	beq	a0,a4,ffffffff8400457a <sameObjectAs+0x38>
ffffffff8400455c:	8905                	andi	a0,a0,1
ffffffff8400455e:	c509                	beqz	a0,ffffffff84004568 <sameObjectAs+0x26>
ffffffff84004560:	03b65793          	srli	a5,a2,0x3b
ffffffff84004564:	8b85                	andi	a5,a5,1
ffffffff84004566:	e38d                	bnez	a5,ffffffff84004588 <sameObjectAs+0x46>
ffffffff84004568:	6602                	ld	a2,0(sp)
ffffffff8400456a:	66a2                	ld	a3,8(sp)
ffffffff8400456c:	6542                	ld	a0,16(sp)
ffffffff8400456e:	65e2                	ld	a1,24(sp)
ffffffff84004570:	c0dff0ef          	jal	ra,ffffffff8400417c <sameRegionAs>
ffffffff84004574:	70a2                	ld	ra,40(sp)
ffffffff84004576:	6145                	addi	sp,sp,48
ffffffff84004578:	8082                	ret
ffffffff8400457a:	03b65793          	srli	a5,a2,0x3b
ffffffff8400457e:	4741                	li	a4,16
ffffffff84004580:	4501                	li	a0,0
ffffffff84004582:	fee793e3          	bne	a5,a4,ffffffff84004568 <sameObjectAs+0x26>
ffffffff84004586:	b7fd                	j	ffffffff84004574 <sameObjectAs+0x32>
ffffffff84004588:	6602                	ld	a2,0(sp)
ffffffff8400458a:	66a2                	ld	a3,8(sp)
ffffffff8400458c:	6542                	ld	a0,16(sp)
ffffffff8400458e:	65e2                	ld	a1,24(sp)
ffffffff84004590:	a45fe0ef          	jal	ra,ffffffff84002fd4 <Arch_sameObjectAs>
ffffffff84004594:	b7c5                	j	ffffffff84004574 <sameObjectAs+0x32>
ffffffff84004596:	4501                	li	a0,0
ffffffff84004598:	bff1                	j	ffffffff84004574 <sameObjectAs+0x32>

ffffffff8400459a <isFinalCapability>:
ffffffff8400459a:	1101                	addi	sp,sp,-32
ffffffff8400459c:	ec06                	sd	ra,24(sp)
ffffffff8400459e:	e822                	sd	s0,16(sp)
ffffffff840045a0:	e426                	sd	s1,8(sp)
ffffffff840045a2:	842a                	mv	s0,a0
ffffffff840045a4:	691c                	ld	a5,16(a0)
ffffffff840045a6:	6d04                	ld	s1,24(a0)
ffffffff840045a8:	cb91                	beqz	a5,ffffffff840045bc <isFinalCapability+0x22>
ffffffff840045aa:	6110                	ld	a2,0(a0)
ffffffff840045ac:	6514                	ld	a3,8(a0)
ffffffff840045ae:	6388                	ld	a0,0(a5)
ffffffff840045b0:	678c                	ld	a1,8(a5)
ffffffff840045b2:	f91ff0ef          	jal	ra,ffffffff84004542 <sameObjectAs>
ffffffff840045b6:	87aa                	mv	a5,a0
ffffffff840045b8:	4501                	li	a0,0
ffffffff840045ba:	e795                	bnez	a5,ffffffff840045e6 <isFinalCapability+0x4c>
ffffffff840045bc:	f80007b7          	lui	a5,0xf8000
ffffffff840045c0:	83e5                	srli	a5,a5,0x19
ffffffff840045c2:	8fe5                	and	a5,a5,s1
ffffffff840045c4:	9099                	srli	s1,s1,0x26
ffffffff840045c6:	8885                	andi	s1,s1,1
ffffffff840045c8:	cc89                	beqz	s1,ffffffff840045e2 <isFinalCapability+0x48>
ffffffff840045ca:	577d                	li	a4,-1
ffffffff840045cc:	171e                	slli	a4,a4,0x27
ffffffff840045ce:	8fd9                	or	a5,a5,a4
ffffffff840045d0:	6390                	ld	a2,0(a5)
ffffffff840045d2:	6794                	ld	a3,8(a5)
ffffffff840045d4:	6008                	ld	a0,0(s0)
ffffffff840045d6:	640c                	ld	a1,8(s0)
ffffffff840045d8:	f6bff0ef          	jal	ra,ffffffff84004542 <sameObjectAs>
ffffffff840045dc:	00153513          	seqz	a0,a0
ffffffff840045e0:	a019                	j	ffffffff840045e6 <isFinalCapability+0x4c>
ffffffff840045e2:	4505                	li	a0,1
ffffffff840045e4:	f7f5                	bnez	a5,ffffffff840045d0 <isFinalCapability+0x36>
ffffffff840045e6:	60e2                	ld	ra,24(sp)
ffffffff840045e8:	6442                	ld	s0,16(sp)
ffffffff840045ea:	64a2                	ld	s1,8(sp)
ffffffff840045ec:	6105                	addi	sp,sp,32
ffffffff840045ee:	8082                	ret

ffffffff840045f0 <slotCapLongRunningDelete>:
ffffffff840045f0:	1141                	addi	sp,sp,-16
ffffffff840045f2:	e406                	sd	ra,8(sp)
ffffffff840045f4:	e022                	sd	s0,0(sp)
ffffffff840045f6:	6100                	ld	s0,0(a0)
ffffffff840045f8:	906d                	srli	s0,s0,0x3b
ffffffff840045fa:	cc19                	beqz	s0,ffffffff84004618 <slotCapLongRunningDelete+0x28>
ffffffff840045fc:	f9fff0ef          	jal	ra,ffffffff8400459a <isFinalCapability>
ffffffff84004600:	c10d                	beqz	a0,ffffffff84004622 <slotCapLongRunningDelete+0x32>
ffffffff84004602:	1459                	addi	s0,s0,-10
ffffffff84004604:	47a1                	li	a5,8
ffffffff84004606:	0287e063          	bltu	a5,s0,ffffffff84004626 <slotCapLongRunningDelete+0x36>
ffffffff8400460a:	4785                	li	a5,1
ffffffff8400460c:	00879433          	sll	s0,a5,s0
ffffffff84004610:	10547413          	andi	s0,s0,261
ffffffff84004614:	00803433          	snez	s0,s0
ffffffff84004618:	8522                	mv	a0,s0
ffffffff8400461a:	60a2                	ld	ra,8(sp)
ffffffff8400461c:	6402                	ld	s0,0(sp)
ffffffff8400461e:	0141                	addi	sp,sp,16
ffffffff84004620:	8082                	ret
ffffffff84004622:	842a                	mv	s0,a0
ffffffff84004624:	bfd5                	j	ffffffff84004618 <slotCapLongRunningDelete+0x28>
ffffffff84004626:	4401                	li	s0,0
ffffffff84004628:	bfc5                	j	ffffffff84004618 <slotCapLongRunningDelete+0x28>

ffffffff8400462a <isCapRevocable>:
ffffffff8400462a:	1101                	addi	sp,sp,-32
ffffffff8400462c:	ec2e                	sd	a1,24(sp)
ffffffff8400462e:	e032                	sd	a2,0(sp)
ffffffff84004630:	e436                	sd	a3,8(sp)
ffffffff84004632:	03b55793          	srli	a5,a0,0x3b
ffffffff84004636:	0017f513          	andi	a0,a5,1
ffffffff8400463a:	e121                	bnez	a0,ffffffff8400467a <isCapRevocable+0x50>
ffffffff8400463c:	8636                	mv	a2,a3
ffffffff8400463e:	4699                	li	a3,6
ffffffff84004640:	02d78863          	beq	a5,a3,ffffffff84004670 <isCapRevocable+0x46>
ffffffff84004644:	00f6ed63          	bltu	a3,a5,ffffffff8400465e <isCapRevocable+0x34>
ffffffff84004648:	4689                	li	a3,2
ffffffff8400464a:	02d78b63          	beq	a5,a3,ffffffff84004680 <isCapRevocable+0x56>
ffffffff8400464e:	4691                	li	a3,4
ffffffff84004650:	02d79663          	bne	a5,a3,ffffffff8400467c <isCapRevocable+0x52>
ffffffff84004654:	40c58533          	sub	a0,a1,a2
ffffffff84004658:	00a03533          	snez	a0,a0
ffffffff8400465c:	a005                	j	ffffffff8400467c <isCapRevocable+0x52>
ffffffff8400465e:	4741                	li	a4,16
ffffffff84004660:	00e79e63          	bne	a5,a4,ffffffff8400467c <isCapRevocable+0x52>
ffffffff84004664:	6502                	ld	a0,0(sp)
ffffffff84004666:	916d                	srli	a0,a0,0x3b
ffffffff84004668:	1549                	addi	a0,a0,-14
ffffffff8400466a:	00153513          	seqz	a0,a0
ffffffff8400466e:	a039                	j	ffffffff8400467c <isCapRevocable+0x52>
ffffffff84004670:	40c58533          	sub	a0,a1,a2
ffffffff84004674:	00a03533          	snez	a0,a0
ffffffff84004678:	a011                	j	ffffffff8400467c <isCapRevocable+0x52>
ffffffff8400467a:	4501                	li	a0,0
ffffffff8400467c:	6105                	addi	sp,sp,32
ffffffff8400467e:	8082                	ret
ffffffff84004680:	4505                	li	a0,1
ffffffff84004682:	bfed                	j	ffffffff8400467c <isCapRevocable+0x52>

ffffffff84004684 <cteInsert>:
ffffffff84004684:	715d                	addi	sp,sp,-80
ffffffff84004686:	e486                	sd	ra,72(sp)
ffffffff84004688:	e0a2                	sd	s0,64(sp)
ffffffff8400468a:	fc26                	sd	s1,56(sp)
ffffffff8400468c:	f84a                	sd	s2,48(sp)
ffffffff8400468e:	f44e                	sd	s3,40(sp)
ffffffff84004690:	f052                	sd	s4,32(sp)
ffffffff84004692:	e02a                	sd	a0,0(sp)
ffffffff84004694:	e42e                	sd	a1,8(sp)
ffffffff84004696:	8432                	mv	s0,a2
ffffffff84004698:	84b6                	mv	s1,a3
ffffffff8400469a:	01863903          	ld	s2,24(a2)
ffffffff8400469e:	00063983          	ld	s3,0(a2)
ffffffff840046a2:	00863a03          	ld	s4,8(a2)
ffffffff840046a6:	864e                	mv	a2,s3
ffffffff840046a8:	86d2                	mv	a3,s4
ffffffff840046aa:	f81ff0ef          	jal	ra,ffffffff8400462a <isCapRevocable>
ffffffff840046ae:	00151793          	slli	a5,a0,0x1
ffffffff840046b2:	8b89                	andi	a5,a5,2
ffffffff840046b4:	ffc97913          	andi	s2,s2,-4
ffffffff840046b8:	00f96933          	or	s2,s2,a5
ffffffff840046bc:	8905                	andi	a0,a0,1
ffffffff840046be:	00a96533          	or	a0,s2,a0
ffffffff840046c2:	03b9d713          	srli	a4,s3,0x3b
ffffffff840046c6:	4789                	li	a5,2
ffffffff840046c8:	04f70463          	beq	a4,a5,ffffffff84004710 <cteInsert+0x8c>
ffffffff840046cc:	6782                	ld	a5,0(sp)
ffffffff840046ce:	e09c                	sd	a5,0(s1)
ffffffff840046d0:	67a2                	ld	a5,8(sp)
ffffffff840046d2:	e49c                	sd	a5,8(s1)
ffffffff840046d4:	e880                	sd	s0,16(s1)
ffffffff840046d6:	ec88                	sd	a0,24(s1)
ffffffff840046d8:	6c18                	ld	a4,24(s0)
ffffffff840046da:	57fd                	li	a5,-1
ffffffff840046dc:	179e                	slli	a5,a5,0x27
ffffffff840046de:	078d                	addi	a5,a5,3
ffffffff840046e0:	8f7d                	and	a4,a4,a5
ffffffff840046e2:	f80007b7          	lui	a5,0xf8000
ffffffff840046e6:	83e5                	srli	a5,a5,0x19
ffffffff840046e8:	00f4f6b3          	and	a3,s1,a5
ffffffff840046ec:	8f55                	or	a4,a4,a3
ffffffff840046ee:	ec18                	sd	a4,24(s0)
ffffffff840046f0:	8fe9                	and	a5,a5,a0
ffffffff840046f2:	9119                	srli	a0,a0,0x26
ffffffff840046f4:	8905                	andi	a0,a0,1
ffffffff840046f6:	c541                	beqz	a0,ffffffff8400477e <cteInsert+0xfa>
ffffffff840046f8:	577d                	li	a4,-1
ffffffff840046fa:	171e                	slli	a4,a4,0x27
ffffffff840046fc:	8fd9                	or	a5,a5,a4
ffffffff840046fe:	eb84                	sd	s1,16(a5)
ffffffff84004700:	60a6                	ld	ra,72(sp)
ffffffff84004702:	6406                	ld	s0,64(sp)
ffffffff84004704:	74e2                	ld	s1,56(sp)
ffffffff84004706:	7942                	ld	s2,48(sp)
ffffffff84004708:	79a2                	ld	s3,40(sp)
ffffffff8400470a:	7a02                	ld	s4,32(sp)
ffffffff8400470c:	6161                	addi	sp,sp,80
ffffffff8400470e:	8082                	ret
ffffffff84004710:	6782                	ld	a5,0(sp)
ffffffff84004712:	03b7d693          	srli	a3,a5,0x3b
ffffffff84004716:	4709                	li	a4,2
ffffffff84004718:	fae69ae3          	bne	a3,a4,ffffffff840046cc <cteInsert+0x48>
ffffffff8400471c:	01999693          	slli	a3,s3,0x19
ffffffff84004720:	82e5                	srli	a3,a3,0x19
ffffffff84004722:	0269d993          	srli	s3,s3,0x26
ffffffff84004726:	0019f993          	andi	s3,s3,1
ffffffff8400472a:	04098363          	beqz	s3,ffffffff84004770 <cteInsert+0xec>
ffffffff8400472e:	577d                	li	a4,-1
ffffffff84004730:	02771613          	slli	a2,a4,0x27
ffffffff84004734:	8ed1                	or	a3,a3,a2
ffffffff84004736:	8365                	srli	a4,a4,0x19
ffffffff84004738:	8f7d                	and	a4,a4,a5
ffffffff8400473a:	9399                	srli	a5,a5,0x26
ffffffff8400473c:	8b85                	andi	a5,a5,1
ffffffff8400473e:	d7d9                	beqz	a5,ffffffff840046cc <cteInsert+0x48>
ffffffff84004740:	57fd                	li	a5,-1
ffffffff84004742:	179e                	slli	a5,a5,0x27
ffffffff84004744:	8f5d                	or	a4,a4,a5
ffffffff84004746:	f8d713e3          	bne	a4,a3,ffffffff840046cc <cteInsert+0x48>
ffffffff8400474a:	03fa7a13          	andi	s4,s4,63
ffffffff8400474e:	67a2                	ld	a5,8(sp)
ffffffff84004750:	03f7f793          	andi	a5,a5,63
ffffffff84004754:	f7479ce3          	bne	a5,s4,ffffffff840046cc <cteInsert+0x48>
ffffffff84004758:	3a71                	addiw	s4,s4,-4
ffffffff8400475a:	020007b7          	lui	a5,0x2000
ffffffff8400475e:	01479a33          	sll	s4,a5,s4
ffffffff84004762:	641c                	ld	a5,8(s0)
ffffffff84004764:	179e                	slli	a5,a5,0x27
ffffffff84004766:	939d                	srli	a5,a5,0x27
ffffffff84004768:	00fa67b3          	or	a5,s4,a5
ffffffff8400476c:	e41c                	sd	a5,8(s0)
ffffffff8400476e:	bfb9                	j	ffffffff840046cc <cteInsert+0x48>
ffffffff84004770:	01979713          	slli	a4,a5,0x19
ffffffff84004774:	8365                	srli	a4,a4,0x19
ffffffff84004776:	9399                	srli	a5,a5,0x26
ffffffff84004778:	8b85                	andi	a5,a5,1
ffffffff8400477a:	f3f9                	bnez	a5,ffffffff84004740 <cteInsert+0xbc>
ffffffff8400477c:	b7e9                	j	ffffffff84004746 <cteInsert+0xc2>
ffffffff8400477e:	d3c9                	beqz	a5,ffffffff84004700 <cteInsert+0x7c>
ffffffff84004780:	bfbd                	j	ffffffff840046fe <cteInsert+0x7a>

ffffffff84004782 <invokeCNodeInsert>:
ffffffff84004782:	1101                	addi	sp,sp,-32
ffffffff84004784:	ec06                	sd	ra,24(sp)
ffffffff84004786:	effff0ef          	jal	ra,ffffffff84004684 <cteInsert>
ffffffff8400478a:	4501                	li	a0,0
ffffffff8400478c:	60e2                	ld	ra,24(sp)
ffffffff8400478e:	6105                	addi	sp,sp,32
ffffffff84004790:	8082                	ret

ffffffff84004792 <invokeIRQControl>:
ffffffff84004792:	7179                	addi	sp,sp,-48
ffffffff84004794:	f406                	sd	ra,40(sp)
ffffffff84004796:	f022                	sd	s0,32(sp)
ffffffff84004798:	ec26                	sd	s1,24(sp)
ffffffff8400479a:	e84a                	sd	s2,16(sp)
ffffffff8400479c:	842a                	mv	s0,a0
ffffffff8400479e:	892e                	mv	s2,a1
ffffffff840047a0:	84b2                	mv	s1,a2
ffffffff840047a2:	85aa                	mv	a1,a0
ffffffff840047a4:	4505                	li	a0,1
ffffffff840047a6:	c3cff0ef          	jal	ra,ffffffff84003be2 <setIRQState>
ffffffff840047aa:	1452                	slli	s0,s0,0x34
ffffffff840047ac:	86ca                	mv	a3,s2
ffffffff840047ae:	8626                	mv	a2,s1
ffffffff840047b0:	557d                	li	a0,-1
ffffffff840047b2:	157e                	slli	a0,a0,0x3f
ffffffff840047b4:	03445593          	srli	a1,s0,0x34
ffffffff840047b8:	ecdff0ef          	jal	ra,ffffffff84004684 <cteInsert>
ffffffff840047bc:	4501                	li	a0,0
ffffffff840047be:	70a2                	ld	ra,40(sp)
ffffffff840047c0:	7402                	ld	s0,32(sp)
ffffffff840047c2:	64e2                	ld	s1,24(sp)
ffffffff840047c4:	6942                	ld	s2,16(sp)
ffffffff840047c6:	6145                	addi	sp,sp,48
ffffffff840047c8:	8082                	ret

ffffffff840047ca <schedContext_bindNtfn>:
ffffffff840047ca:	7198                	ld	a4,32(a1)
ffffffff840047cc:	57fd                	li	a5,-1
ffffffff840047ce:	02779693          	slli	a3,a5,0x27
ffffffff840047d2:	8f75                	and	a4,a4,a3
ffffffff840047d4:	83e5                	srli	a5,a5,0x19
ffffffff840047d6:	8fe9                	and	a5,a5,a0
ffffffff840047d8:	8fd9                	or	a5,a5,a4
ffffffff840047da:	f19c                	sd	a5,32(a1)
ffffffff840047dc:	f50c                	sd	a1,40(a0)
ffffffff840047de:	8082                	ret

ffffffff840047e0 <schedContext_unbindNtfn>:
ffffffff840047e0:	c909                	beqz	a0,ffffffff840047f2 <schedContext_unbindNtfn+0x12>
ffffffff840047e2:	7518                	ld	a4,40(a0)
ffffffff840047e4:	c719                	beqz	a4,ffffffff840047f2 <schedContext_unbindNtfn+0x12>
ffffffff840047e6:	731c                	ld	a5,32(a4)
ffffffff840047e8:	939d                	srli	a5,a5,0x27
ffffffff840047ea:	179e                	slli	a5,a5,0x27
ffffffff840047ec:	f31c                	sd	a5,32(a4)
ffffffff840047ee:	02053423          	sd	zero,40(a0) # 1028 <KERNEL_OFFSET-0xfffffffeffffefd8>
ffffffff840047f2:	8082                	ret

ffffffff840047f4 <schedContext_updateConsumed>:
ffffffff840047f4:	87aa                	mv	a5,a0
ffffffff840047f6:	6508                	ld	a0,8(a0)
ffffffff840047f8:	0007b423          	sd	zero,8(a5) # 2000008 <KERNEL_OFFSET-0xfffffffefdfffff8>
ffffffff840047fc:	8082                	ret

ffffffff840047fe <setMRs_fault>:
ffffffff840047fe:	1141                	addi	sp,sp,-16
ffffffff84004800:	e406                	sd	ra,8(sp)
ffffffff84004802:	e022                	sd	s0,0(sp)
ffffffff84004804:	842e                	mv	s0,a1
ffffffff84004806:	13853783          	ld	a5,312(a0)
ffffffff8400480a:	00f7f693          	andi	a3,a5,15
ffffffff8400480e:	470d                	li	a4,3
ffffffff84004810:	0ae68563          	beq	a3,a4,ffffffff840048ba <setMRs_fault+0xbc>
ffffffff84004814:	85b2                	mv	a1,a2
ffffffff84004816:	8bb1                	andi	a5,a5,12
ffffffff84004818:	efa1                	bnez	a5,ffffffff84004870 <setMRs_fault+0x72>
ffffffff8400481a:	4785                	li	a5,1
ffffffff8400481c:	06f68a63          	beq	a3,a5,ffffffff84004890 <setMRs_fault+0x92>
ffffffff84004820:	4789                	li	a5,2
ffffffff84004822:	0af69e63          	bne	a3,a5,ffffffff840048de <setMRs_fault+0xe0>
ffffffff84004826:	10853783          	ld	a5,264(a0)
ffffffff8400482a:	ec3c                	sd	a5,88(s0)
ffffffff8400482c:	651c                	ld	a5,8(a0)
ffffffff8400482e:	f03c                	sd	a5,96(s0)
ffffffff84004830:	611c                	ld	a5,0(a0)
ffffffff84004832:	f43c                	sd	a5,104(s0)
ffffffff84004834:	653c                	ld	a5,72(a0)
ffffffff84004836:	f83c                	sd	a5,112(s0)
ffffffff84004838:	4791                	li	a5,4
ffffffff8400483a:	c61d                	beqz	a2,ffffffff84004868 <setMRs_fault+0x6a>
ffffffff8400483c:	00007697          	auipc	a3,0x7
ffffffff84004840:	53c68693          	addi	a3,a3,1340 # ffffffff8400bd78 <fault_messages>
ffffffff84004844:	02860713          	addi	a4,a2,40
ffffffff84004848:	05860613          	addi	a2,a2,88
ffffffff8400484c:	0046c783          	lbu	a5,4(a3)
ffffffff84004850:	078e                	slli	a5,a5,0x3
ffffffff84004852:	97aa                	add	a5,a5,a0
ffffffff84004854:	639c                	ld	a5,0(a5)
ffffffff84004856:	e31c                	sd	a5,0(a4)
ffffffff84004858:	0685                	addi	a3,a3,1
ffffffff8400485a:	0721                	addi	a4,a4,8
ffffffff8400485c:	fee618e3          	bne	a2,a4,ffffffff8400484c <setMRs_fault+0x4e>
ffffffff84004860:	14053783          	ld	a5,320(a0)
ffffffff84004864:	edbc                	sd	a5,88(a1)
ffffffff84004866:	47ad                	li	a5,11
ffffffff84004868:	02079513          	slli	a0,a5,0x20
ffffffff8400486c:	9101                	srli	a0,a0,0x20
ffffffff8400486e:	a0a5                	j	ffffffff840048d6 <setMRs_fault+0xd8>
ffffffff84004870:	4795                	li	a5,5
ffffffff84004872:	06f69663          	bne	a3,a5,ffffffff840048de <setMRs_fault+0xe0>
ffffffff84004876:	14053783          	ld	a5,320(a0)
ffffffff8400487a:	ec3c                	sd	a5,88(s0)
ffffffff8400487c:	17053783          	ld	a5,368(a0)
ffffffff84004880:	4505                	li	a0,1
ffffffff84004882:	cbb1                	beqz	a5,ffffffff840048d6 <setMRs_fault+0xd8>
ffffffff84004884:	853e                	mv	a0,a5
ffffffff84004886:	f6fff0ef          	jal	ra,ffffffff840047f4 <schedContext_updateConsumed>
ffffffff8400488a:	f028                	sd	a0,96(s0)
ffffffff8400488c:	4509                	li	a0,2
ffffffff8400488e:	a0a1                	j	ffffffff840048d6 <setMRs_fault+0xd8>
ffffffff84004890:	10853783          	ld	a5,264(a0)
ffffffff84004894:	ec3c                	sd	a5,88(s0)
ffffffff84004896:	14053783          	ld	a5,320(a0)
ffffffff8400489a:	f03c                	sd	a5,96(s0)
ffffffff8400489c:	13853783          	ld	a5,312(a0)
ffffffff840048a0:	93fd                	srli	a5,a5,0x3f
ffffffff840048a2:	f43c                	sd	a5,104(s0)
ffffffff840048a4:	470d                	li	a4,3
ffffffff840048a6:	14853603          	ld	a2,328(a0)
ffffffff840048aa:	15053683          	ld	a3,336(a0)
ffffffff840048ae:	8522                	mv	a0,s0
ffffffff840048b0:	9c1fd0ef          	jal	ra,ffffffff84002270 <setMRs_lookup_failure>
ffffffff840048b4:	1502                	slli	a0,a0,0x20
ffffffff840048b6:	9101                	srli	a0,a0,0x20
ffffffff840048b8:	a839                	j	ffffffff840048d6 <setMRs_fault+0xd8>
ffffffff840048ba:	10853783          	ld	a5,264(a0)
ffffffff840048be:	edbc                	sd	a5,88(a1)
ffffffff840048c0:	651c                	ld	a5,8(a0)
ffffffff840048c2:	f1bc                	sd	a5,96(a1)
ffffffff840048c4:	13c56783          	lwu	a5,316(a0)
ffffffff840048c8:	f5bc                	sd	a5,104(a1)
ffffffff840048ca:	13853783          	ld	a5,312(a0)
ffffffff840048ce:	0047d79b          	srliw	a5,a5,0x4
ffffffff840048d2:	f9bc                	sd	a5,112(a1)
ffffffff840048d4:	4511                	li	a0,4
ffffffff840048d6:	60a2                	ld	ra,8(sp)
ffffffff840048d8:	6402                	ld	s0,0(sp)
ffffffff840048da:	0141                	addi	sp,sp,16
ffffffff840048dc:	8082                	ret
ffffffff840048de:	862e                	mv	a2,a1
ffffffff840048e0:	85a2                	mv	a1,s0
ffffffff840048e2:	c2bfd0ef          	jal	ra,ffffffff8400250c <Arch_setMRs_fault>
ffffffff840048e6:	bfc5                	j	ffffffff840048d6 <setMRs_fault+0xd8>

ffffffff840048e8 <doFaultTransfer>:
ffffffff840048e8:	1101                	addi	sp,sp,-32
ffffffff840048ea:	ec06                	sd	ra,24(sp)
ffffffff840048ec:	e822                	sd	s0,16(sp)
ffffffff840048ee:	e426                	sd	s1,8(sp)
ffffffff840048f0:	e04a                	sd	s2,0(sp)
ffffffff840048f2:	892a                	mv	s2,a0
ffffffff840048f4:	84ae                	mv	s1,a1
ffffffff840048f6:	8432                	mv	s0,a2
ffffffff840048f8:	8636                	mv	a2,a3
ffffffff840048fa:	85a2                	mv	a1,s0
ffffffff840048fc:	8526                	mv	a0,s1
ffffffff840048fe:	f01ff0ef          	jal	ra,ffffffff840047fe <setMRs_fault>
ffffffff84004902:	1384b783          	ld	a5,312(s1)
ffffffff84004906:	07b2                	slli	a5,a5,0xc
ffffffff84004908:	673d                	lui	a4,0xf
ffffffff8400490a:	8ff9                	and	a5,a5,a4
ffffffff8400490c:	07f57513          	andi	a0,a0,127
ffffffff84004910:	8fc9                	or	a5,a5,a0
ffffffff84004912:	e83c                	sd	a5,80(s0)
ffffffff84004914:	05243423          	sd	s2,72(s0)
ffffffff84004918:	60e2                	ld	ra,24(sp)
ffffffff8400491a:	6442                	ld	s0,16(sp)
ffffffff8400491c:	64a2                	ld	s1,8(sp)
ffffffff8400491e:	6902                	ld	s2,0(sp)
ffffffff84004920:	6105                	addi	sp,sp,32
ffffffff84004922:	8082                	ret

ffffffff84004924 <schedContext_cancelYieldTo>:
ffffffff84004924:	c901                	beqz	a0,ffffffff84004934 <schedContext_cancelYieldTo+0x10>
ffffffff84004926:	17853783          	ld	a5,376(a0)
ffffffff8400492a:	c789                	beqz	a5,ffffffff84004934 <schedContext_cancelYieldTo+0x10>
ffffffff8400492c:	0207bc23          	sd	zero,56(a5)
ffffffff84004930:	16053c23          	sd	zero,376(a0)
ffffffff84004934:	8082                	ret

ffffffff84004936 <schedContext_completeYieldTo>:
ffffffff84004936:	c905                	beqz	a0,ffffffff84004966 <schedContext_completeYieldTo+0x30>
ffffffff84004938:	1141                	addi	sp,sp,-16
ffffffff8400493a:	e406                	sd	ra,8(sp)
ffffffff8400493c:	e022                	sd	s0,0(sp)
ffffffff8400493e:	842a                	mv	s0,a0
ffffffff84004940:	17853503          	ld	a0,376(a0)
ffffffff84004944:	cd09                	beqz	a0,ffffffff8400495e <schedContext_completeYieldTo+0x28>
ffffffff84004946:	eafff0ef          	jal	ra,ffffffff840047f4 <schedContext_updateConsumed>
ffffffff8400494a:	0001b797          	auipc	a5,0x1b
ffffffff8400494e:	f0e7b783          	ld	a5,-242(a5) # ffffffff8401f858 <ksCurThread>
ffffffff84004952:	efa8                	sd	a0,88(a5)
ffffffff84004954:	4705                	li	a4,1
ffffffff84004956:	ebb8                	sd	a4,80(a5)
ffffffff84004958:	8522                	mv	a0,s0
ffffffff8400495a:	fcbff0ef          	jal	ra,ffffffff84004924 <schedContext_cancelYieldTo>
ffffffff8400495e:	60a2                	ld	ra,8(sp)
ffffffff84004960:	6402                	ld	s0,0(sp)
ffffffff84004962:	0141                	addi	sp,sp,16
ffffffff84004964:	8082                	ret
ffffffff84004966:	8082                	ret

ffffffff84004968 <tcbSchedEnqueue>:
ffffffff84004968:	12053783          	ld	a5,288(a0)
ffffffff8400496c:	8385                	srli	a5,a5,0x1
ffffffff8400496e:	8b85                	andi	a5,a5,1
ffffffff84004970:	e7b1                	bnez	a5,ffffffff840049bc <tcbSchedEnqueue+0x54>
ffffffff84004972:	15853683          	ld	a3,344(a0)
ffffffff84004976:	16853803          	ld	a6,360(a0)
ffffffff8400497a:	00869793          	slli	a5,a3,0x8
ffffffff8400497e:	97c2                	add	a5,a5,a6
ffffffff84004980:	00479613          	slli	a2,a5,0x4
ffffffff84004984:	0000a717          	auipc	a4,0xa
ffffffff84004988:	e7c70713          	addi	a4,a4,-388 # ffffffff8400e800 <ksReadyQueues>
ffffffff8400498c:	9732                	add	a4,a4,a2
ffffffff8400498e:	630c                	ld	a1,0(a4)
ffffffff84004990:	6710                	ld	a2,8(a4)
ffffffff84004992:	c615                	beqz	a2,ffffffff840049be <tcbSchedEnqueue+0x56>
ffffffff84004994:	18a5b823          	sd	a0,400(a1) # fffffffff8000190 <ki_end+0x73fdb190>
ffffffff84004998:	18053823          	sd	zero,400(a0)
ffffffff8400499c:	18b53423          	sd	a1,392(a0)
ffffffff840049a0:	0792                	slli	a5,a5,0x4
ffffffff840049a2:	0000a717          	auipc	a4,0xa
ffffffff840049a6:	e5e70713          	addi	a4,a4,-418 # ffffffff8400e800 <ksReadyQueues>
ffffffff840049aa:	97ba                	add	a5,a5,a4
ffffffff840049ac:	e388                	sd	a0,0(a5)
ffffffff840049ae:	e790                	sd	a2,8(a5)
ffffffff840049b0:	12053783          	ld	a5,288(a0)
ffffffff840049b4:	0027e793          	ori	a5,a5,2
ffffffff840049b8:	12f53023          	sd	a5,288(a0)
ffffffff840049bc:	8082                	ret
ffffffff840049be:	00685313          	srli	t1,a6,0x6
ffffffff840049c2:	4e0d                	li	t3,3
ffffffff840049c4:	406e0e33          	sub	t3,t3,t1
ffffffff840049c8:	00008617          	auipc	a2,0x8
ffffffff840049cc:	63860613          	addi	a2,a2,1592 # ffffffff8400d000 <riscvKSASIDTable>
ffffffff840049d0:	00369893          	slli	a7,a3,0x3
ffffffff840049d4:	98b2                	add	a7,a7,a2
ffffffff840049d6:	4705                	li	a4,1
ffffffff840049d8:	00671333          	sll	t1,a4,t1
ffffffff840049dc:	6108be83          	ld	t4,1552(a7)
ffffffff840049e0:	006ee333          	or	t1,t4,t1
ffffffff840049e4:	6068b823          	sd	t1,1552(a7)
ffffffff840049e8:	068a                	slli	a3,a3,0x2
ffffffff840049ea:	96f2                	add	a3,a3,t3
ffffffff840049ec:	068e                	slli	a3,a3,0x3
ffffffff840049ee:	96b2                	add	a3,a3,a2
ffffffff840049f0:	01071733          	sll	a4,a4,a6
ffffffff840049f4:	6906b803          	ld	a6,1680(a3)
ffffffff840049f8:	01076733          	or	a4,a4,a6
ffffffff840049fc:	68e6b823          	sd	a4,1680(a3)
ffffffff84004a00:	862a                	mv	a2,a0
ffffffff84004a02:	bf59                	j	ffffffff84004998 <tcbSchedEnqueue+0x30>

ffffffff84004a04 <rescheduleRequired>:
ffffffff84004a04:	0001b517          	auipc	a0,0x1b
ffffffff84004a08:	e4453503          	ld	a0,-444(a0) # ffffffff8401f848 <ksSchedulerAction>
ffffffff84004a0c:	4785                	li	a5,1
ffffffff84004a0e:	00a7f963          	bgeu	a5,a0,ffffffff84004a20 <rescheduleRequired+0x1c>
ffffffff84004a12:	11853783          	ld	a5,280(a0)
ffffffff84004a16:	8bbd                	andi	a5,a5,15
ffffffff84004a18:	17fd                	addi	a5,a5,-1
ffffffff84004a1a:	4705                	li	a4,1
ffffffff84004a1c:	00f77863          	bgeu	a4,a5,ffffffff84004a2c <rescheduleRequired+0x28>
ffffffff84004a20:	4785                	li	a5,1
ffffffff84004a22:	0001b717          	auipc	a4,0x1b
ffffffff84004a26:	e2f73323          	sd	a5,-474(a4) # ffffffff8401f848 <ksSchedulerAction>
ffffffff84004a2a:	8082                	ret
ffffffff84004a2c:	17053783          	ld	a5,368(a0)
ffffffff84004a30:	dbe5                	beqz	a5,ffffffff84004a20 <rescheduleRequired+0x1c>
ffffffff84004a32:	63bc                	ld	a5,64(a5)
ffffffff84004a34:	d7f5                	beqz	a5,ffffffff84004a20 <rescheduleRequired+0x1c>
ffffffff84004a36:	12053783          	ld	a5,288(a0)
ffffffff84004a3a:	8b85                	andi	a5,a5,1
ffffffff84004a3c:	f3f5                	bnez	a5,ffffffff84004a20 <rescheduleRequired+0x1c>
ffffffff84004a3e:	1141                	addi	sp,sp,-16
ffffffff84004a40:	e406                	sd	ra,8(sp)
ffffffff84004a42:	f27ff0ef          	jal	ra,ffffffff84004968 <tcbSchedEnqueue>
ffffffff84004a46:	4785                	li	a5,1
ffffffff84004a48:	0001b717          	auipc	a4,0x1b
ffffffff84004a4c:	e0f73023          	sd	a5,-512(a4) # ffffffff8401f848 <ksSchedulerAction>
ffffffff84004a50:	60a2                	ld	ra,8(sp)
ffffffff84004a52:	0141                	addi	sp,sp,16
ffffffff84004a54:	8082                	ret

ffffffff84004a56 <scheduleTCB>:
ffffffff84004a56:	0001b797          	auipc	a5,0x1b
ffffffff84004a5a:	e027b783          	ld	a5,-510(a5) # ffffffff8401f858 <ksCurThread>
ffffffff84004a5e:	00a78363          	beq	a5,a0,ffffffff84004a64 <scheduleTCB+0xe>
ffffffff84004a62:	8082                	ret
ffffffff84004a64:	0001b797          	auipc	a5,0x1b
ffffffff84004a68:	de47b783          	ld	a5,-540(a5) # ffffffff8401f848 <ksSchedulerAction>
ffffffff84004a6c:	fbfd                	bnez	a5,ffffffff84004a62 <scheduleTCB+0xc>
ffffffff84004a6e:	11853783          	ld	a5,280(a0)
ffffffff84004a72:	8bbd                	andi	a5,a5,15
ffffffff84004a74:	17fd                	addi	a5,a5,-1
ffffffff84004a76:	4705                	li	a4,1
ffffffff84004a78:	00f77963          	bgeu	a4,a5,ffffffff84004a8a <scheduleTCB+0x34>
ffffffff84004a7c:	1141                	addi	sp,sp,-16
ffffffff84004a7e:	e406                	sd	ra,8(sp)
ffffffff84004a80:	f85ff0ef          	jal	ra,ffffffff84004a04 <rescheduleRequired>
ffffffff84004a84:	60a2                	ld	ra,8(sp)
ffffffff84004a86:	0141                	addi	sp,sp,16
ffffffff84004a88:	8082                	ret
ffffffff84004a8a:	17053783          	ld	a5,368(a0)
ffffffff84004a8e:	d7fd                	beqz	a5,ffffffff84004a7c <scheduleTCB+0x26>
ffffffff84004a90:	63bc                	ld	a5,64(a5)
ffffffff84004a92:	d7ed                	beqz	a5,ffffffff84004a7c <scheduleTCB+0x26>
ffffffff84004a94:	12053783          	ld	a5,288(a0)
ffffffff84004a98:	8b85                	andi	a5,a5,1
ffffffff84004a9a:	d7e1                	beqz	a5,ffffffff84004a62 <scheduleTCB+0xc>
ffffffff84004a9c:	b7c5                	j	ffffffff84004a7c <scheduleTCB+0x26>

ffffffff84004a9e <setThreadState>:
ffffffff84004a9e:	1141                	addi	sp,sp,-16
ffffffff84004aa0:	e406                	sd	ra,8(sp)
ffffffff84004aa2:	11853783          	ld	a5,280(a0)
ffffffff84004aa6:	9bc1                	andi	a5,a5,-16
ffffffff84004aa8:	89bd                	andi	a1,a1,15
ffffffff84004aaa:	8fcd                	or	a5,a5,a1
ffffffff84004aac:	10f53c23          	sd	a5,280(a0)
ffffffff84004ab0:	fa7ff0ef          	jal	ra,ffffffff84004a56 <scheduleTCB>
ffffffff84004ab4:	60a2                	ld	ra,8(sp)
ffffffff84004ab6:	0141                	addi	sp,sp,16
ffffffff84004ab8:	8082                	ret

ffffffff84004aba <Arch_decodeIRQControlInvocation>:
ffffffff84004aba:	02b00793          	li	a5,43
ffffffff84004abe:	0af51a63          	bne	a0,a5,ffffffff84004b72 <Arch_decodeIRQControlInvocation+0xb8>
ffffffff84004ac2:	715d                	addi	sp,sp,-80
ffffffff84004ac4:	e486                	sd	ra,72(sp)
ffffffff84004ac6:	e0a2                	sd	s0,64(sp)
ffffffff84004ac8:	fc26                	sd	s1,56(sp)
ffffffff84004aca:	f84a                	sd	s2,48(sp)
ffffffff84004acc:	f44e                	sd	s3,40(sp)
ffffffff84004ace:	8432                	mv	s0,a2
ffffffff84004ad0:	478d                	li	a5,3
ffffffff84004ad2:	04b7f963          	bgeu	a5,a1,ffffffff84004b24 <Arch_decodeIRQControlInvocation+0x6a>
ffffffff84004ad6:	00009797          	auipc	a5,0x9
ffffffff84004ada:	dba7b783          	ld	a5,-582(a5) # ffffffff8400d890 <current_extra_caps>
ffffffff84004ade:	c3b9                	beqz	a5,ffffffff84004b24 <Arch_decodeIRQControlInvocation+0x6a>
ffffffff84004ae0:	0001b717          	auipc	a4,0x1b
ffffffff84004ae4:	d7873703          	ld	a4,-648(a4) # ffffffff8401f858 <ksCurThread>
ffffffff84004ae8:	6f24                	ld	s1,88(a4)
ffffffff84004aea:	06873903          	ld	s2,104(a4)
ffffffff84004aee:	07073983          	ld	s3,112(a4)
ffffffff84004af2:	6398                	ld	a4,0(a5)
ffffffff84004af4:	e03a                	sd	a4,0(sp)
ffffffff84004af6:	679c                	ld	a5,8(a5)
ffffffff84004af8:	e43e                	sd	a5,8(sp)
ffffffff84004afa:	8526                	mv	a0,s1
ffffffff84004afc:	982fe0ef          	jal	ra,ffffffff84002c7e <Arch_checkIRQ>
ffffffff84004b00:	e905                	bnez	a0,ffffffff84004b30 <Arch_decodeIRQControlInvocation+0x76>
ffffffff84004b02:	00349713          	slli	a4,s1,0x3
ffffffff84004b06:	00008797          	auipc	a5,0x8
ffffffff84004b0a:	4fa78793          	addi	a5,a5,1274 # ffffffff8400d000 <riscvKSASIDTable>
ffffffff84004b0e:	97ba                	add	a5,a5,a4
ffffffff84004b10:	4587b783          	ld	a5,1112(a5)
ffffffff84004b14:	c78d                	beqz	a5,ffffffff84004b3e <Arch_decodeIRQControlInvocation+0x84>
ffffffff84004b16:	47a5                	li	a5,9
ffffffff84004b18:	00009717          	auipc	a4,0x9
ffffffff84004b1c:	92f73423          	sd	a5,-1752(a4) # ffffffff8400d440 <current_syscall_error+0x30>
ffffffff84004b20:	450d                	li	a0,3
ffffffff84004b22:	a039                	j	ffffffff84004b30 <Arch_decodeIRQControlInvocation+0x76>
ffffffff84004b24:	479d                	li	a5,7
ffffffff84004b26:	00009717          	auipc	a4,0x9
ffffffff84004b2a:	90f73d23          	sd	a5,-1766(a4) # ffffffff8400d440 <current_syscall_error+0x30>
ffffffff84004b2e:	450d                	li	a0,3
ffffffff84004b30:	60a6                	ld	ra,72(sp)
ffffffff84004b32:	6406                	ld	s0,64(sp)
ffffffff84004b34:	74e2                	ld	s1,56(sp)
ffffffff84004b36:	7942                	ld	s2,48(sp)
ffffffff84004b38:	79a2                	ld	s3,40(sp)
ffffffff84004b3a:	6161                	addi	sp,sp,80
ffffffff84004b3c:	8082                	ret
ffffffff84004b3e:	86ce                	mv	a3,s3
ffffffff84004b40:	864a                	mv	a2,s2
ffffffff84004b42:	6502                	ld	a0,0(sp)
ffffffff84004b44:	65a2                	ld	a1,8(sp)
ffffffff84004b46:	8b3fe0ef          	jal	ra,ffffffff840033f8 <lookupTargetSlot>
ffffffff84004b4a:	ec2e                	sd	a1,24(sp)
ffffffff84004b4c:	f175                	bnez	a0,ffffffff84004b30 <Arch_decodeIRQControlInvocation+0x76>
ffffffff84004b4e:	892e                	mv	s2,a1
ffffffff84004b50:	852e                	mv	a0,a1
ffffffff84004b52:	fdffe0ef          	jal	ra,ffffffff84003b30 <ensureEmptySlot>
ffffffff84004b56:	fd69                	bnez	a0,ffffffff84004b30 <Arch_decodeIRQControlInvocation+0x76>
ffffffff84004b58:	4589                	li	a1,2
ffffffff84004b5a:	0001b517          	auipc	a0,0x1b
ffffffff84004b5e:	cfe53503          	ld	a0,-770(a0) # ffffffff8401f858 <ksCurThread>
ffffffff84004b62:	f3dff0ef          	jal	ra,ffffffff84004a9e <setThreadState>
ffffffff84004b66:	8622                	mv	a2,s0
ffffffff84004b68:	85ca                	mv	a1,s2
ffffffff84004b6a:	8526                	mv	a0,s1
ffffffff84004b6c:	c27ff0ef          	jal	ra,ffffffff84004792 <invokeIRQControl>
ffffffff84004b70:	b7c1                	j	ffffffff84004b30 <Arch_decodeIRQControlInvocation+0x76>
ffffffff84004b72:	478d                	li	a5,3
ffffffff84004b74:	00009717          	auipc	a4,0x9
ffffffff84004b78:	8cf73623          	sd	a5,-1844(a4) # ffffffff8400d440 <current_syscall_error+0x30>
ffffffff84004b7c:	450d                	li	a0,3
ffffffff84004b7e:	8082                	ret

ffffffff84004b80 <handleNoFaultHandler>:
ffffffff84004b80:	1141                	addi	sp,sp,-16
ffffffff84004b82:	e406                	sd	ra,8(sp)
ffffffff84004b84:	4581                	li	a1,0
ffffffff84004b86:	f19ff0ef          	jal	ra,ffffffff84004a9e <setThreadState>
ffffffff84004b8a:	60a2                	ld	ra,8(sp)
ffffffff84004b8c:	0141                	addi	sp,sp,16
ffffffff84004b8e:	8082                	ret

ffffffff84004b90 <activateThread>:
ffffffff84004b90:	1141                	addi	sp,sp,-16
ffffffff84004b92:	e406                	sd	ra,8(sp)
ffffffff84004b94:	0001b517          	auipc	a0,0x1b
ffffffff84004b98:	cc453503          	ld	a0,-828(a0) # ffffffff8401f858 <ksCurThread>
ffffffff84004b9c:	17853783          	ld	a5,376(a0)
ffffffff84004ba0:	e39d                	bnez	a5,ffffffff84004bc6 <activateThread+0x36>
ffffffff84004ba2:	0001b517          	auipc	a0,0x1b
ffffffff84004ba6:	cb653503          	ld	a0,-842(a0) # ffffffff8401f858 <ksCurThread>
ffffffff84004baa:	11853783          	ld	a5,280(a0)
ffffffff84004bae:	8bbd                	andi	a5,a5,15
ffffffff84004bb0:	4709                	li	a4,2
ffffffff84004bb2:	00e78d63          	beq	a5,a4,ffffffff84004bcc <activateThread+0x3c>
ffffffff84004bb6:	471d                	li	a4,7
ffffffff84004bb8:	02e78163          	beq	a5,a4,ffffffff84004bda <activateThread+0x4a>
ffffffff84004bbc:	4705                	li	a4,1
ffffffff84004bbe:	00e78e63          	beq	a5,a4,ffffffff84004bda <activateThread+0x4a>
ffffffff84004bc2:	ea2fd0ef          	jal	ra,ffffffff84002264 <halt>
ffffffff84004bc6:	d71ff0ef          	jal	ra,ffffffff84004936 <schedContext_completeYieldTo>
ffffffff84004bca:	bfe1                	j	ffffffff84004ba2 <activateThread+0x12>
ffffffff84004bcc:	10853783          	ld	a5,264(a0)
ffffffff84004bd0:	10f53823          	sd	a5,272(a0)
ffffffff84004bd4:	4585                	li	a1,1
ffffffff84004bd6:	ec9ff0ef          	jal	ra,ffffffff84004a9e <setThreadState>
ffffffff84004bda:	60a2                	ld	ra,8(sp)
ffffffff84004bdc:	0141                	addi	sp,sp,16
ffffffff84004bde:	8082                	ret

ffffffff84004be0 <reply_remove_tcb>:
ffffffff84004be0:	1141                	addi	sp,sp,-16
ffffffff84004be2:	e406                	sd	ra,8(sp)
ffffffff84004be4:	12053703          	ld	a4,288(a0)
ffffffff84004be8:	8305                	srli	a4,a4,0x1
ffffffff84004bea:	e00007b7          	lui	a5,0xe0000
ffffffff84004bee:	83e5                	srli	a5,a5,0x19
ffffffff84004bf0:	8ff9                	and	a5,a5,a4
ffffffff84004bf2:	9319                	srli	a4,a4,0x26
ffffffff84004bf4:	8b05                	andi	a4,a4,1
ffffffff84004bf6:	c701                	beqz	a4,ffffffff84004bfe <reply_remove_tcb+0x1e>
ffffffff84004bf8:	577d                	li	a4,-1
ffffffff84004bfa:	171e                	slli	a4,a4,0x27
ffffffff84004bfc:	8fd9                	or	a5,a5,a4
ffffffff84004bfe:	883e                	mv	a6,a5
ffffffff84004c00:	6b8c                	ld	a1,16(a5)
ffffffff84004c02:	01959613          	slli	a2,a1,0x19
ffffffff84004c06:	8265                	srli	a2,a2,0x19
ffffffff84004c08:	0265d713          	srli	a4,a1,0x26
ffffffff84004c0c:	8b05                	andi	a4,a4,1
ffffffff84004c0e:	c715                	beqz	a4,ffffffff84004c3a <reply_remove_tcb+0x5a>
ffffffff84004c10:	577d                	li	a4,-1
ffffffff84004c12:	02771693          	slli	a3,a4,0x27
ffffffff84004c16:	8e55                	or	a2,a2,a3
ffffffff84004c18:	6794                	ld	a3,8(a5)
ffffffff84004c1a:	01975793          	srli	a5,a4,0x19
ffffffff84004c1e:	8ff5                	and	a5,a5,a3
ffffffff84004c20:	9299                	srli	a3,a3,0x26
ffffffff84004c22:	8a85                	andi	a3,a3,1
ffffffff84004c24:	c681                	beqz	a3,ffffffff84004c2c <reply_remove_tcb+0x4c>
ffffffff84004c26:	577d                	li	a4,-1
ffffffff84004c28:	171e                	slli	a4,a4,0x27
ffffffff84004c2a:	8fd9                	or	a5,a5,a4
ffffffff84004c2c:	91c1                	srli	a1,a1,0x30
ffffffff84004c2e:	8985                	andi	a1,a1,1
ffffffff84004c30:	c9a1                	beqz	a1,ffffffff84004c80 <reply_remove_tcb+0xa0>
ffffffff84004c32:	02063023          	sd	zero,32(a2)
ffffffff84004c36:	c38d                	beqz	a5,ffffffff84004c58 <reply_remove_tcb+0x78>
ffffffff84004c38:	a831                	j	ffffffff84004c54 <reply_remove_tcb+0x74>
ffffffff84004c3a:	6798                	ld	a4,8(a5)
ffffffff84004c3c:	01971793          	slli	a5,a4,0x19
ffffffff84004c40:	83e5                	srli	a5,a5,0x19
ffffffff84004c42:	9319                	srli	a4,a4,0x26
ffffffff84004c44:	8b05                	andi	a4,a4,1
ffffffff84004c46:	e319                	bnez	a4,ffffffff84004c4c <reply_remove_tcb+0x6c>
ffffffff84004c48:	d67d                	beqz	a2,ffffffff84004c36 <reply_remove_tcb+0x56>
ffffffff84004c4a:	b7cd                	j	ffffffff84004c2c <reply_remove_tcb+0x4c>
ffffffff84004c4c:	577d                	li	a4,-1
ffffffff84004c4e:	171e                	slli	a4,a4,0x27
ffffffff84004c50:	8fd9                	or	a5,a5,a4
ffffffff84004c52:	fe69                	bnez	a2,ffffffff84004c2c <reply_remove_tcb+0x4c>
ffffffff84004c54:	0007b823          	sd	zero,16(a5) # ffffffffe0000010 <ki_end+0x5bfdb010>
ffffffff84004c58:	00083423          	sd	zero,8(a6)
ffffffff84004c5c:	00083823          	sd	zero,16(a6)
ffffffff84004c60:	12053703          	ld	a4,288(a0)
ffffffff84004c64:	57fd                	li	a5,-1
ffffffff84004c66:	17a2                	slli	a5,a5,0x28
ffffffff84004c68:	07fd                	addi	a5,a5,31
ffffffff84004c6a:	8ff9                	and	a5,a5,a4
ffffffff84004c6c:	12f53023          	sd	a5,288(a0)
ffffffff84004c70:	00083023          	sd	zero,0(a6)
ffffffff84004c74:	4581                	li	a1,0
ffffffff84004c76:	e29ff0ef          	jal	ra,ffffffff84004a9e <setThreadState>
ffffffff84004c7a:	60a2                	ld	ra,8(sp)
ffffffff84004c7c:	0141                	addi	sp,sp,16
ffffffff84004c7e:	8082                	ret
ffffffff84004c80:	00063423          	sd	zero,8(a2)
ffffffff84004c84:	bf4d                	j	ffffffff84004c36 <reply_remove_tcb+0x56>

ffffffff84004c86 <decodeIRQControlInvocation>:
ffffffff84004c86:	715d                	addi	sp,sp,-80
ffffffff84004c88:	e486                	sd	ra,72(sp)
ffffffff84004c8a:	e0a2                	sd	s0,64(sp)
ffffffff84004c8c:	fc26                	sd	s1,56(sp)
ffffffff84004c8e:	f84a                	sd	s2,48(sp)
ffffffff84004c90:	f44e                	sd	s3,40(sp)
ffffffff84004c92:	8432                	mv	s0,a2
ffffffff84004c94:	47e5                	li	a5,25
ffffffff84004c96:	0af51363          	bne	a0,a5,ffffffff84004d3c <decodeIRQControlInvocation+0xb6>
ffffffff84004c9a:	4789                	li	a5,2
ffffffff84004c9c:	04b7f963          	bgeu	a5,a1,ffffffff84004cee <decodeIRQControlInvocation+0x68>
ffffffff84004ca0:	00009797          	auipc	a5,0x9
ffffffff84004ca4:	bf07b783          	ld	a5,-1040(a5) # ffffffff8400d890 <current_extra_caps>
ffffffff84004ca8:	c3b9                	beqz	a5,ffffffff84004cee <decodeIRQControlInvocation+0x68>
ffffffff84004caa:	0001b717          	auipc	a4,0x1b
ffffffff84004cae:	bae73703          	ld	a4,-1106(a4) # ffffffff8401f858 <ksCurThread>
ffffffff84004cb2:	6f24                	ld	s1,88(a4)
ffffffff84004cb4:	06073903          	ld	s2,96(a4)
ffffffff84004cb8:	06873983          	ld	s3,104(a4)
ffffffff84004cbc:	6398                	ld	a4,0(a5)
ffffffff84004cbe:	e03a                	sd	a4,0(sp)
ffffffff84004cc0:	679c                	ld	a5,8(a5)
ffffffff84004cc2:	e43e                	sd	a5,8(sp)
ffffffff84004cc4:	8526                	mv	a0,s1
ffffffff84004cc6:	fb9fd0ef          	jal	ra,ffffffff84002c7e <Arch_checkIRQ>
ffffffff84004cca:	e905                	bnez	a0,ffffffff84004cfa <decodeIRQControlInvocation+0x74>
ffffffff84004ccc:	00349713          	slli	a4,s1,0x3
ffffffff84004cd0:	00008797          	auipc	a5,0x8
ffffffff84004cd4:	33078793          	addi	a5,a5,816 # ffffffff8400d000 <riscvKSASIDTable>
ffffffff84004cd8:	97ba                	add	a5,a5,a4
ffffffff84004cda:	4587b783          	ld	a5,1112(a5)
ffffffff84004cde:	c78d                	beqz	a5,ffffffff84004d08 <decodeIRQControlInvocation+0x82>
ffffffff84004ce0:	47a5                	li	a5,9
ffffffff84004ce2:	00008717          	auipc	a4,0x8
ffffffff84004ce6:	74f73f23          	sd	a5,1886(a4) # ffffffff8400d440 <current_syscall_error+0x30>
ffffffff84004cea:	450d                	li	a0,3
ffffffff84004cec:	a039                	j	ffffffff84004cfa <decodeIRQControlInvocation+0x74>
ffffffff84004cee:	479d                	li	a5,7
ffffffff84004cf0:	00008717          	auipc	a4,0x8
ffffffff84004cf4:	74f73823          	sd	a5,1872(a4) # ffffffff8400d440 <current_syscall_error+0x30>
ffffffff84004cf8:	450d                	li	a0,3
ffffffff84004cfa:	60a6                	ld	ra,72(sp)
ffffffff84004cfc:	6406                	ld	s0,64(sp)
ffffffff84004cfe:	74e2                	ld	s1,56(sp)
ffffffff84004d00:	7942                	ld	s2,48(sp)
ffffffff84004d02:	79a2                	ld	s3,40(sp)
ffffffff84004d04:	6161                	addi	sp,sp,80
ffffffff84004d06:	8082                	ret
ffffffff84004d08:	86ce                	mv	a3,s3
ffffffff84004d0a:	864a                	mv	a2,s2
ffffffff84004d0c:	6502                	ld	a0,0(sp)
ffffffff84004d0e:	65a2                	ld	a1,8(sp)
ffffffff84004d10:	ee8fe0ef          	jal	ra,ffffffff840033f8 <lookupTargetSlot>
ffffffff84004d14:	ec2e                	sd	a1,24(sp)
ffffffff84004d16:	f175                	bnez	a0,ffffffff84004cfa <decodeIRQControlInvocation+0x74>
ffffffff84004d18:	892e                	mv	s2,a1
ffffffff84004d1a:	852e                	mv	a0,a1
ffffffff84004d1c:	e15fe0ef          	jal	ra,ffffffff84003b30 <ensureEmptySlot>
ffffffff84004d20:	fd69                	bnez	a0,ffffffff84004cfa <decodeIRQControlInvocation+0x74>
ffffffff84004d22:	4589                	li	a1,2
ffffffff84004d24:	0001b517          	auipc	a0,0x1b
ffffffff84004d28:	b3453503          	ld	a0,-1228(a0) # ffffffff8401f858 <ksCurThread>
ffffffff84004d2c:	d73ff0ef          	jal	ra,ffffffff84004a9e <setThreadState>
ffffffff84004d30:	8622                	mv	a2,s0
ffffffff84004d32:	85ca                	mv	a1,s2
ffffffff84004d34:	8526                	mv	a0,s1
ffffffff84004d36:	a5dff0ef          	jal	ra,ffffffff84004792 <invokeIRQControl>
ffffffff84004d3a:	b7c1                	j	ffffffff84004cfa <decodeIRQControlInvocation+0x74>
ffffffff84004d3c:	d7fff0ef          	jal	ra,ffffffff84004aba <Arch_decodeIRQControlInvocation>
ffffffff84004d40:	bf6d                	j	ffffffff84004cfa <decodeIRQControlInvocation+0x74>

ffffffff84004d42 <possibleSwitchTo>:
ffffffff84004d42:	17053783          	ld	a5,368(a0)
ffffffff84004d46:	c7b9                	beqz	a5,ffffffff84004d94 <possibleSwitchTo+0x52>
ffffffff84004d48:	1141                	addi	sp,sp,-16
ffffffff84004d4a:	e406                	sd	ra,8(sp)
ffffffff84004d4c:	e022                	sd	s0,0(sp)
ffffffff84004d4e:	842a                	mv	s0,a0
ffffffff84004d50:	12053783          	ld	a5,288(a0)
ffffffff84004d54:	8b85                	andi	a5,a5,1
ffffffff84004d56:	e795                	bnez	a5,ffffffff84004d82 <possibleSwitchTo+0x40>
ffffffff84004d58:	15853703          	ld	a4,344(a0)
ffffffff84004d5c:	0001b797          	auipc	a5,0x1b
ffffffff84004d60:	abc7b783          	ld	a5,-1348(a5) # ffffffff8401f818 <ksCurDomain>
ffffffff84004d64:	00f71d63          	bne	a4,a5,ffffffff84004d7e <possibleSwitchTo+0x3c>
ffffffff84004d68:	0001b797          	auipc	a5,0x1b
ffffffff84004d6c:	ae07b783          	ld	a5,-1312(a5) # ffffffff8401f848 <ksSchedulerAction>
ffffffff84004d70:	cf89                	beqz	a5,ffffffff84004d8a <possibleSwitchTo+0x48>
ffffffff84004d72:	c93ff0ef          	jal	ra,ffffffff84004a04 <rescheduleRequired>
ffffffff84004d76:	8522                	mv	a0,s0
ffffffff84004d78:	bf1ff0ef          	jal	ra,ffffffff84004968 <tcbSchedEnqueue>
ffffffff84004d7c:	a019                	j	ffffffff84004d82 <possibleSwitchTo+0x40>
ffffffff84004d7e:	bebff0ef          	jal	ra,ffffffff84004968 <tcbSchedEnqueue>
ffffffff84004d82:	60a2                	ld	ra,8(sp)
ffffffff84004d84:	6402                	ld	s0,0(sp)
ffffffff84004d86:	0141                	addi	sp,sp,16
ffffffff84004d88:	8082                	ret
ffffffff84004d8a:	0001b797          	auipc	a5,0x1b
ffffffff84004d8e:	aaa7bf23          	sd	a0,-1346(a5) # ffffffff8401f848 <ksSchedulerAction>
ffffffff84004d92:	bfc5                	j	ffffffff84004d82 <possibleSwitchTo+0x40>
ffffffff84004d94:	8082                	ret

ffffffff84004d96 <cancelAllIPC>:
ffffffff84004d96:	611c                	ld	a5,0(a0)
ffffffff84004d98:	0037f713          	andi	a4,a5,3
ffffffff84004d9c:	cf51                	beqz	a4,ffffffff84004e38 <cancelAllIPC+0xa2>
ffffffff84004d9e:	7179                	addi	sp,sp,-48
ffffffff84004da0:	f406                	sd	ra,40(sp)
ffffffff84004da2:	f022                	sd	s0,32(sp)
ffffffff84004da4:	ec26                	sd	s1,24(sp)
ffffffff84004da6:	e84a                	sd	s2,16(sp)
ffffffff84004da8:	e44e                	sd	s3,8(sp)
ffffffff84004daa:	e052                	sd	s4,0(sp)
ffffffff84004dac:	6500                	ld	s0,8(a0)
ffffffff84004dae:	00053423          	sd	zero,8(a0)
ffffffff84004db2:	939d                	srli	a5,a5,0x27
ffffffff84004db4:	179e                	slli	a5,a5,0x27
ffffffff84004db6:	e11c                	sd	a5,0(a0)
ffffffff84004db8:	c435                	beqz	s0,ffffffff84004e24 <cancelAllIPC+0x8e>
ffffffff84004dba:	e00009b7          	lui	s3,0xe0000
ffffffff84004dbe:	0199d993          	srli	s3,s3,0x19
ffffffff84004dc2:	4905                	li	s2,1
ffffffff84004dc4:	191a                	slli	s2,s2,0x26
ffffffff84004dc6:	54fd                	li	s1,-1
ffffffff84004dc8:	02849a13          	slli	s4,s1,0x28
ffffffff84004dcc:	0a7d                	addi	s4,s4,31
ffffffff84004dce:	149e                	slli	s1,s1,0x27
ffffffff84004dd0:	a005                	j	ffffffff84004df0 <cancelAllIPC+0x5a>
ffffffff84004dd2:	eb0d                	bnez	a4,ffffffff84004e04 <cancelAllIPC+0x6e>
ffffffff84004dd4:	13843783          	ld	a5,312(s0)
ffffffff84004dd8:	8bbd                	andi	a5,a5,15
ffffffff84004dda:	e3a1                	bnez	a5,ffffffff84004e1a <cancelAllIPC+0x84>
ffffffff84004ddc:	4589                	li	a1,2
ffffffff84004dde:	8522                	mv	a0,s0
ffffffff84004de0:	cbfff0ef          	jal	ra,ffffffff84004a9e <setThreadState>
ffffffff84004de4:	8522                	mv	a0,s0
ffffffff84004de6:	f5dff0ef          	jal	ra,ffffffff84004d42 <possibleSwitchTo>
ffffffff84004dea:	19843403          	ld	s0,408(s0)
ffffffff84004dee:	c81d                	beqz	s0,ffffffff84004e24 <cancelAllIPC+0x8e>
ffffffff84004df0:	12043683          	ld	a3,288(s0)
ffffffff84004df4:	0016d793          	srli	a5,a3,0x1
ffffffff84004df8:	0137f733          	and	a4,a5,s3
ffffffff84004dfc:	0127f7b3          	and	a5,a5,s2
ffffffff84004e00:	dbe9                	beqz	a5,ffffffff84004dd2 <cancelAllIPC+0x3c>
ffffffff84004e02:	8f45                	or	a4,a4,s1
ffffffff84004e04:	0146f6b3          	and	a3,a3,s4
ffffffff84004e08:	12d43023          	sd	a3,288(s0)
ffffffff84004e0c:	00073023          	sd	zero,0(a4)
ffffffff84004e10:	4581                	li	a1,0
ffffffff84004e12:	8522                	mv	a0,s0
ffffffff84004e14:	c8bff0ef          	jal	ra,ffffffff84004a9e <setThreadState>
ffffffff84004e18:	bf75                	j	ffffffff84004dd4 <cancelAllIPC+0x3e>
ffffffff84004e1a:	4581                	li	a1,0
ffffffff84004e1c:	8522                	mv	a0,s0
ffffffff84004e1e:	c81ff0ef          	jal	ra,ffffffff84004a9e <setThreadState>
ffffffff84004e22:	b7e1                	j	ffffffff84004dea <cancelAllIPC+0x54>
ffffffff84004e24:	be1ff0ef          	jal	ra,ffffffff84004a04 <rescheduleRequired>
ffffffff84004e28:	70a2                	ld	ra,40(sp)
ffffffff84004e2a:	7402                	ld	s0,32(sp)
ffffffff84004e2c:	64e2                	ld	s1,24(sp)
ffffffff84004e2e:	6942                	ld	s2,16(sp)
ffffffff84004e30:	69a2                	ld	s3,8(sp)
ffffffff84004e32:	6a02                	ld	s4,0(sp)
ffffffff84004e34:	6145                	addi	sp,sp,48
ffffffff84004e36:	8082                	ret
ffffffff84004e38:	8082                	ret

ffffffff84004e3a <cancelAllSignals>:
ffffffff84004e3a:	611c                	ld	a5,0(a0)
ffffffff84004e3c:	0037f693          	andi	a3,a5,3
ffffffff84004e40:	4705                	li	a4,1
ffffffff84004e42:	00e68363          	beq	a3,a4,ffffffff84004e48 <cancelAllSignals+0xe>
ffffffff84004e46:	8082                	ret
ffffffff84004e48:	1141                	addi	sp,sp,-16
ffffffff84004e4a:	e406                	sd	ra,8(sp)
ffffffff84004e4c:	e022                	sd	s0,0(sp)
ffffffff84004e4e:	6518                	ld	a4,8(a0)
ffffffff84004e50:	01971413          	slli	s0,a4,0x19
ffffffff84004e54:	8065                	srli	s0,s0,0x19
ffffffff84004e56:	02675693          	srli	a3,a4,0x26
ffffffff84004e5a:	8a85                	andi	a3,a3,1
ffffffff84004e5c:	ca9d                	beqz	a3,ffffffff84004e92 <cancelAllSignals+0x58>
ffffffff84004e5e:	56fd                	li	a3,-1
ffffffff84004e60:	169e                	slli	a3,a3,0x27
ffffffff84004e62:	8c55                	or	s0,s0,a3
ffffffff84004e64:	8f75                	and	a4,a4,a3
ffffffff84004e66:	e518                	sd	a4,8(a0)
ffffffff84004e68:	02000737          	lui	a4,0x2000
ffffffff84004e6c:	1771                	addi	a4,a4,-4
ffffffff84004e6e:	8ff9                	and	a5,a5,a4
ffffffff84004e70:	e11c                	sd	a5,0(a0)
ffffffff84004e72:	4589                	li	a1,2
ffffffff84004e74:	8522                	mv	a0,s0
ffffffff84004e76:	c29ff0ef          	jal	ra,ffffffff84004a9e <setThreadState>
ffffffff84004e7a:	8522                	mv	a0,s0
ffffffff84004e7c:	ec7ff0ef          	jal	ra,ffffffff84004d42 <possibleSwitchTo>
ffffffff84004e80:	19843403          	ld	s0,408(s0)
ffffffff84004e84:	f47d                	bnez	s0,ffffffff84004e72 <cancelAllSignals+0x38>
ffffffff84004e86:	b7fff0ef          	jal	ra,ffffffff84004a04 <rescheduleRequired>
ffffffff84004e8a:	60a2                	ld	ra,8(sp)
ffffffff84004e8c:	6402                	ld	s0,0(sp)
ffffffff84004e8e:	0141                	addi	sp,sp,16
ffffffff84004e90:	8082                	ret
ffffffff84004e92:	931d                	srli	a4,a4,0x27
ffffffff84004e94:	171e                	slli	a4,a4,0x27
ffffffff84004e96:	e518                	sd	a4,8(a0)
ffffffff84004e98:	02000737          	lui	a4,0x2000
ffffffff84004e9c:	1771                	addi	a4,a4,-4
ffffffff84004e9e:	8ff9                	and	a5,a5,a4
ffffffff84004ea0:	e11c                	sd	a5,0(a0)
ffffffff84004ea2:	d075                	beqz	s0,ffffffff84004e86 <cancelAllSignals+0x4c>
ffffffff84004ea4:	b7f9                	j	ffffffff84004e72 <cancelAllSignals+0x38>

ffffffff84004ea6 <tcbSchedAppend>:
ffffffff84004ea6:	12053783          	ld	a5,288(a0)
ffffffff84004eaa:	8385                	srli	a5,a5,0x1
ffffffff84004eac:	8b85                	andi	a5,a5,1
ffffffff84004eae:	e7b1                	bnez	a5,ffffffff84004efa <tcbSchedAppend+0x54>
ffffffff84004eb0:	15853683          	ld	a3,344(a0)
ffffffff84004eb4:	16853583          	ld	a1,360(a0)
ffffffff84004eb8:	00869793          	slli	a5,a3,0x8
ffffffff84004ebc:	97ae                	add	a5,a5,a1
ffffffff84004ebe:	00479613          	slli	a2,a5,0x4
ffffffff84004ec2:	0000a717          	auipc	a4,0xa
ffffffff84004ec6:	93e70713          	addi	a4,a4,-1730 # ffffffff8400e800 <ksReadyQueues>
ffffffff84004eca:	9732                	add	a4,a4,a2
ffffffff84004ecc:	6310                	ld	a2,0(a4)
ffffffff84004ece:	6718                	ld	a4,8(a4)
ffffffff84004ed0:	c615                	beqz	a2,ffffffff84004efc <tcbSchedAppend+0x56>
ffffffff84004ed2:	18a73423          	sd	a0,392(a4)
ffffffff84004ed6:	18e53823          	sd	a4,400(a0)
ffffffff84004eda:	18053423          	sd	zero,392(a0)
ffffffff84004ede:	0792                	slli	a5,a5,0x4
ffffffff84004ee0:	0000a717          	auipc	a4,0xa
ffffffff84004ee4:	92070713          	addi	a4,a4,-1760 # ffffffff8400e800 <ksReadyQueues>
ffffffff84004ee8:	97ba                	add	a5,a5,a4
ffffffff84004eea:	e390                	sd	a2,0(a5)
ffffffff84004eec:	e788                	sd	a0,8(a5)
ffffffff84004eee:	12053783          	ld	a5,288(a0)
ffffffff84004ef2:	0027e793          	ori	a5,a5,2
ffffffff84004ef6:	12f53023          	sd	a5,288(a0)
ffffffff84004efa:	8082                	ret
ffffffff84004efc:	0065d313          	srli	t1,a1,0x6
ffffffff84004f00:	4e0d                	li	t3,3
ffffffff84004f02:	406e0e33          	sub	t3,t3,t1
ffffffff84004f06:	00008817          	auipc	a6,0x8
ffffffff84004f0a:	0fa80813          	addi	a6,a6,250 # ffffffff8400d000 <riscvKSASIDTable>
ffffffff84004f0e:	00369893          	slli	a7,a3,0x3
ffffffff84004f12:	98c2                	add	a7,a7,a6
ffffffff84004f14:	4605                	li	a2,1
ffffffff84004f16:	00661333          	sll	t1,a2,t1
ffffffff84004f1a:	6108be83          	ld	t4,1552(a7)
ffffffff84004f1e:	006ee333          	or	t1,t4,t1
ffffffff84004f22:	6068b823          	sd	t1,1552(a7)
ffffffff84004f26:	068a                	slli	a3,a3,0x2
ffffffff84004f28:	96f2                	add	a3,a3,t3
ffffffff84004f2a:	068e                	slli	a3,a3,0x3
ffffffff84004f2c:	96c2                	add	a3,a3,a6
ffffffff84004f2e:	00b61633          	sll	a2,a2,a1
ffffffff84004f32:	6906b583          	ld	a1,1680(a3)
ffffffff84004f36:	8e4d                	or	a2,a2,a1
ffffffff84004f38:	68c6b823          	sd	a2,1680(a3)
ffffffff84004f3c:	862a                	mv	a2,a0
ffffffff84004f3e:	bf61                	j	ffffffff84004ed6 <tcbSchedAppend+0x30>

ffffffff84004f40 <tcbSchedDequeue>:
ffffffff84004f40:	12053783          	ld	a5,288(a0)
ffffffff84004f44:	8385                	srli	a5,a5,0x1
ffffffff84004f46:	8b85                	andi	a5,a5,1
ffffffff84004f48:	c7bd                	beqz	a5,ffffffff84004fb6 <tcbSchedDequeue+0x76>
ffffffff84004f4a:	15853583          	ld	a1,344(a0)
ffffffff84004f4e:	16853603          	ld	a2,360(a0)
ffffffff84004f52:	00859793          	slli	a5,a1,0x8
ffffffff84004f56:	97b2                	add	a5,a5,a2
ffffffff84004f58:	00479693          	slli	a3,a5,0x4
ffffffff84004f5c:	0000a717          	auipc	a4,0xa
ffffffff84004f60:	8a470713          	addi	a4,a4,-1884 # ffffffff8400e800 <ksReadyQueues>
ffffffff84004f64:	9736                	add	a4,a4,a3
ffffffff84004f66:	00873883          	ld	a7,8(a4)
ffffffff84004f6a:	19053683          	ld	a3,400(a0)
ffffffff84004f6e:	c6a9                	beqz	a3,ffffffff84004fb8 <tcbSchedDequeue+0x78>
ffffffff84004f70:	00479613          	slli	a2,a5,0x4
ffffffff84004f74:	0000a717          	auipc	a4,0xa
ffffffff84004f78:	88c70713          	addi	a4,a4,-1908 # ffffffff8400e800 <ksReadyQueues>
ffffffff84004f7c:	9732                	add	a4,a4,a2
ffffffff84004f7e:	00073803          	ld	a6,0(a4)
ffffffff84004f82:	18853703          	ld	a4,392(a0)
ffffffff84004f86:	18e6b423          	sd	a4,392(a3)
ffffffff84004f8a:	18853703          	ld	a4,392(a0)
ffffffff84004f8e:	c749                	beqz	a4,ffffffff84005018 <tcbSchedDequeue+0xd8>
ffffffff84004f90:	19053683          	ld	a3,400(a0)
ffffffff84004f94:	18d73823          	sd	a3,400(a4)
ffffffff84004f98:	0792                	slli	a5,a5,0x4
ffffffff84004f9a:	0000a717          	auipc	a4,0xa
ffffffff84004f9e:	86670713          	addi	a4,a4,-1946 # ffffffff8400e800 <ksReadyQueues>
ffffffff84004fa2:	97ba                	add	a5,a5,a4
ffffffff84004fa4:	0107b023          	sd	a6,0(a5)
ffffffff84004fa8:	0117b423          	sd	a7,8(a5)
ffffffff84004fac:	12053783          	ld	a5,288(a0)
ffffffff84004fb0:	9bf5                	andi	a5,a5,-3
ffffffff84004fb2:	12f53023          	sd	a5,288(a0)
ffffffff84004fb6:	8082                	ret
ffffffff84004fb8:	18853803          	ld	a6,392(a0)
ffffffff84004fbc:	04081c63          	bnez	a6,ffffffff84005014 <tcbSchedDequeue+0xd4>
ffffffff84004fc0:	00665313          	srli	t1,a2,0x6
ffffffff84004fc4:	470d                	li	a4,3
ffffffff84004fc6:	406706b3          	sub	a3,a4,t1
ffffffff84004fca:	4705                	li	a4,1
ffffffff84004fcc:	00c71633          	sll	a2,a4,a2
ffffffff84004fd0:	fff64613          	not	a2,a2
ffffffff84004fd4:	00259713          	slli	a4,a1,0x2
ffffffff84004fd8:	9736                	add	a4,a4,a3
ffffffff84004fda:	070e                	slli	a4,a4,0x3
ffffffff84004fdc:	00008697          	auipc	a3,0x8
ffffffff84004fe0:	02468693          	addi	a3,a3,36 # ffffffff8400d000 <riscvKSASIDTable>
ffffffff84004fe4:	9736                	add	a4,a4,a3
ffffffff84004fe6:	69073683          	ld	a3,1680(a4)
ffffffff84004fea:	8e75                	and	a2,a2,a3
ffffffff84004fec:	68c73823          	sd	a2,1680(a4)
ffffffff84004ff0:	fe49                	bnez	a2,ffffffff84004f8a <tcbSchedDequeue+0x4a>
ffffffff84004ff2:	058e                	slli	a1,a1,0x3
ffffffff84004ff4:	00008717          	auipc	a4,0x8
ffffffff84004ff8:	00c70713          	addi	a4,a4,12 # ffffffff8400d000 <riscvKSASIDTable>
ffffffff84004ffc:	95ba                	add	a1,a1,a4
ffffffff84004ffe:	4705                	li	a4,1
ffffffff84005000:	00671733          	sll	a4,a4,t1
ffffffff84005004:	fff74713          	not	a4,a4
ffffffff84005008:	6105b683          	ld	a3,1552(a1)
ffffffff8400500c:	8f75                	and	a4,a4,a3
ffffffff8400500e:	60e5b823          	sd	a4,1552(a1)
ffffffff84005012:	bfa5                	j	ffffffff84004f8a <tcbSchedDequeue+0x4a>
ffffffff84005014:	8742                	mv	a4,a6
ffffffff84005016:	bfad                	j	ffffffff84004f90 <tcbSchedDequeue+0x50>
ffffffff84005018:	19053883          	ld	a7,400(a0)
ffffffff8400501c:	bfb5                	j	ffffffff84004f98 <tcbSchedDequeue+0x58>

ffffffff8400501e <switchToThread>:
ffffffff8400501e:	1141                	addi	sp,sp,-16
ffffffff84005020:	e406                	sd	ra,8(sp)
ffffffff84005022:	e022                	sd	s0,0(sp)
ffffffff84005024:	842a                	mv	s0,a0
ffffffff84005026:	9bffd0ef          	jal	ra,ffffffff840029e4 <setVMRoot>
ffffffff8400502a:	8522                	mv	a0,s0
ffffffff8400502c:	f15ff0ef          	jal	ra,ffffffff84004f40 <tcbSchedDequeue>
ffffffff84005030:	0001b797          	auipc	a5,0x1b
ffffffff84005034:	8287b423          	sd	s0,-2008(a5) # ffffffff8401f858 <ksCurThread>
ffffffff84005038:	60a2                	ld	ra,8(sp)
ffffffff8400503a:	6402                	ld	s0,0(sp)
ffffffff8400503c:	0141                	addi	sp,sp,16
ffffffff8400503e:	8082                	ret

ffffffff84005040 <setDomain>:
ffffffff84005040:	1101                	addi	sp,sp,-32
ffffffff84005042:	ec06                	sd	ra,24(sp)
ffffffff84005044:	e822                	sd	s0,16(sp)
ffffffff84005046:	e426                	sd	s1,8(sp)
ffffffff84005048:	842a                	mv	s0,a0
ffffffff8400504a:	84ae                	mv	s1,a1
ffffffff8400504c:	ef5ff0ef          	jal	ra,ffffffff84004f40 <tcbSchedDequeue>
ffffffff84005050:	14943c23          	sd	s1,344(s0)
ffffffff84005054:	11843783          	ld	a5,280(s0)
ffffffff84005058:	8bbd                	andi	a5,a5,15
ffffffff8400505a:	17fd                	addi	a5,a5,-1
ffffffff8400505c:	4705                	li	a4,1
ffffffff8400505e:	00f77d63          	bgeu	a4,a5,ffffffff84005078 <setDomain+0x38>
ffffffff84005062:	0001a797          	auipc	a5,0x1a
ffffffff84005066:	7f67b783          	ld	a5,2038(a5) # ffffffff8401f858 <ksCurThread>
ffffffff8400506a:	02878463          	beq	a5,s0,ffffffff84005092 <setDomain+0x52>
ffffffff8400506e:	60e2                	ld	ra,24(sp)
ffffffff84005070:	6442                	ld	s0,16(sp)
ffffffff84005072:	64a2                	ld	s1,8(sp)
ffffffff84005074:	6105                	addi	sp,sp,32
ffffffff84005076:	8082                	ret
ffffffff84005078:	17043783          	ld	a5,368(s0)
ffffffff8400507c:	d3fd                	beqz	a5,ffffffff84005062 <setDomain+0x22>
ffffffff8400507e:	63bc                	ld	a5,64(a5)
ffffffff84005080:	d3ed                	beqz	a5,ffffffff84005062 <setDomain+0x22>
ffffffff84005082:	12043783          	ld	a5,288(s0)
ffffffff84005086:	8b85                	andi	a5,a5,1
ffffffff84005088:	ffe9                	bnez	a5,ffffffff84005062 <setDomain+0x22>
ffffffff8400508a:	8522                	mv	a0,s0
ffffffff8400508c:	8ddff0ef          	jal	ra,ffffffff84004968 <tcbSchedEnqueue>
ffffffff84005090:	bfc9                	j	ffffffff84005062 <setDomain+0x22>
ffffffff84005092:	973ff0ef          	jal	ra,ffffffff84004a04 <rescheduleRequired>
ffffffff84005096:	bfe1                	j	ffffffff8400506e <setDomain+0x2e>

ffffffff84005098 <schedContext_donate>:
ffffffff84005098:	1101                	addi	sp,sp,-32
ffffffff8400509a:	ec06                	sd	ra,24(sp)
ffffffff8400509c:	e822                	sd	s0,16(sp)
ffffffff8400509e:	e426                	sd	s1,8(sp)
ffffffff840050a0:	e04a                	sd	s2,0(sp)
ffffffff840050a2:	842a                	mv	s0,a0
ffffffff840050a4:	84ae                	mv	s1,a1
ffffffff840050a6:	01853903          	ld	s2,24(a0)
ffffffff840050aa:	02090363          	beqz	s2,ffffffff840050d0 <schedContext_donate+0x38>
ffffffff840050ae:	854a                	mv	a0,s2
ffffffff840050b0:	e91ff0ef          	jal	ra,ffffffff84004f40 <tcbSchedDequeue>
ffffffff840050b4:	16093823          	sd	zero,368(s2)
ffffffff840050b8:	0001a797          	auipc	a5,0x1a
ffffffff840050bc:	7a07b783          	ld	a5,1952(a5) # ffffffff8401f858 <ksCurThread>
ffffffff840050c0:	03278163          	beq	a5,s2,ffffffff840050e2 <schedContext_donate+0x4a>
ffffffff840050c4:	0001a797          	auipc	a5,0x1a
ffffffff840050c8:	7847b783          	ld	a5,1924(a5) # ffffffff8401f848 <ksSchedulerAction>
ffffffff840050cc:	01278b63          	beq	a5,s2,ffffffff840050e2 <schedContext_donate+0x4a>
ffffffff840050d0:	ec04                	sd	s1,24(s0)
ffffffff840050d2:	1684b823          	sd	s0,368(s1)
ffffffff840050d6:	60e2                	ld	ra,24(sp)
ffffffff840050d8:	6442                	ld	s0,16(sp)
ffffffff840050da:	64a2                	ld	s1,8(sp)
ffffffff840050dc:	6902                	ld	s2,0(sp)
ffffffff840050de:	6105                	addi	sp,sp,32
ffffffff840050e0:	8082                	ret
ffffffff840050e2:	923ff0ef          	jal	ra,ffffffff84004a04 <rescheduleRequired>
ffffffff840050e6:	b7ed                	j	ffffffff840050d0 <schedContext_donate+0x38>

ffffffff840050e8 <reply_push>:
ffffffff840050e8:	7179                	addi	sp,sp,-48
ffffffff840050ea:	f406                	sd	ra,40(sp)
ffffffff840050ec:	f022                	sd	s0,32(sp)
ffffffff840050ee:	ec26                	sd	s1,24(sp)
ffffffff840050f0:	e84a                	sd	s2,16(sp)
ffffffff840050f2:	e44e                	sd	s3,8(sp)
ffffffff840050f4:	842e                	mv	s0,a1
ffffffff840050f6:	84b2                	mv	s1,a2
ffffffff840050f8:	8936                	mv	s2,a3
ffffffff840050fa:	17053983          	ld	s3,368(a0)
ffffffff840050fe:	1205b683          	ld	a3,288(a1)
ffffffff84005102:	577d                	li	a4,-1
ffffffff84005104:	1722                	slli	a4,a4,0x28
ffffffff84005106:	077d                	addi	a4,a4,31
ffffffff84005108:	8ef9                	and	a3,a3,a4
ffffffff8400510a:	12d5b023          	sd	a3,288(a1)
ffffffff8400510e:	e208                	sd	a0,0(a2)
ffffffff84005110:	12053803          	ld	a6,288(a0)
ffffffff84005114:	00e87733          	and	a4,a6,a4
ffffffff84005118:	0606                	slli	a2,a2,0x1
ffffffff8400511a:	e00006b7          	lui	a3,0xe0000
ffffffff8400511e:	82e1                	srli	a3,a3,0x18
ffffffff84005120:	8e75                	and	a2,a2,a3
ffffffff84005122:	8f51                	or	a4,a4,a2
ffffffff84005124:	12e53023          	sd	a4,288(a0)
ffffffff84005128:	4595                	li	a1,5
ffffffff8400512a:	975ff0ef          	jal	ra,ffffffff84004a9e <setThreadState>
ffffffff8400512e:	00098563          	beqz	s3,ffffffff84005138 <reply_push+0x50>
ffffffff84005132:	17043783          	ld	a5,368(s0)
ffffffff84005136:	cb81                	beqz	a5,ffffffff84005146 <reply_push+0x5e>
ffffffff84005138:	70a2                	ld	ra,40(sp)
ffffffff8400513a:	7402                	ld	s0,32(sp)
ffffffff8400513c:	64e2                	ld	s1,24(sp)
ffffffff8400513e:	6942                	ld	s2,16(sp)
ffffffff84005140:	69a2                	ld	s3,8(sp)
ffffffff84005142:	6145                	addi	sp,sp,48
ffffffff84005144:	8082                	ret
ffffffff84005146:	fe0909e3          	beqz	s2,ffffffff84005138 <reply_push+0x50>
ffffffff8400514a:	0209b703          	ld	a4,32(s3) # ffffffffe0000020 <ki_end+0x5bfdb020>
ffffffff8400514e:	01971793          	slli	a5,a4,0x19
ffffffff84005152:	83e5                	srli	a5,a5,0x19
ffffffff84005154:	e49c                	sd	a5,8(s1)
ffffffff84005156:	c709                	beqz	a4,ffffffff84005160 <reply_push+0x78>
ffffffff84005158:	01949793          	slli	a5,s1,0x19
ffffffff8400515c:	83e5                	srli	a5,a5,0x19
ffffffff8400515e:	eb1c                	sd	a5,16(a4)
ffffffff84005160:	01999793          	slli	a5,s3,0x19
ffffffff84005164:	83e5                	srli	a5,a5,0x19
ffffffff84005166:	4705                	li	a4,1
ffffffff84005168:	1742                	slli	a4,a4,0x30
ffffffff8400516a:	8fd9                	or	a5,a5,a4
ffffffff8400516c:	e89c                	sd	a5,16(s1)
ffffffff8400516e:	0299b023          	sd	s1,32(s3)
ffffffff84005172:	85a2                	mv	a1,s0
ffffffff84005174:	854e                	mv	a0,s3
ffffffff84005176:	f23ff0ef          	jal	ra,ffffffff84005098 <schedContext_donate>
ffffffff8400517a:	bf7d                	j	ffffffff84005138 <reply_push+0x50>

ffffffff8400517c <reply_pop>:
ffffffff8400517c:	7179                	addi	sp,sp,-48
ffffffff8400517e:	f406                	sd	ra,40(sp)
ffffffff84005180:	f022                	sd	s0,32(sp)
ffffffff84005182:	ec26                	sd	s1,24(sp)
ffffffff84005184:	e84a                	sd	s2,16(sp)
ffffffff84005186:	e44e                	sd	s3,8(sp)
ffffffff84005188:	892a                	mv	s2,a0
ffffffff8400518a:	89ae                	mv	s3,a1
ffffffff8400518c:	1205b783          	ld	a5,288(a1)
ffffffff84005190:	547d                	li	s0,-1
ffffffff84005192:	02841713          	slli	a4,s0,0x28
ffffffff84005196:	077d                	addi	a4,a4,31
ffffffff84005198:	8ff9                	and	a5,a5,a4
ffffffff8400519a:	12f5b023          	sd	a5,288(a1)
ffffffff8400519e:	00053023          	sd	zero,0(a0)
ffffffff840051a2:	4581                	li	a1,0
ffffffff840051a4:	854e                	mv	a0,s3
ffffffff840051a6:	8f9ff0ef          	jal	ra,ffffffff84004a9e <setThreadState>
ffffffff840051aa:	01093783          	ld	a5,16(s2)
ffffffff840051ae:	8065                	srli	s0,s0,0x19
ffffffff840051b0:	8c7d                	and	s0,s0,a5
ffffffff840051b2:	9399                	srli	a5,a5,0x26
ffffffff840051b4:	8b85                	andi	a5,a5,1
ffffffff840051b6:	c3b9                	beqz	a5,ffffffff840051fc <reply_pop+0x80>
ffffffff840051b8:	54fd                	li	s1,-1
ffffffff840051ba:	02749793          	slli	a5,s1,0x27
ffffffff840051be:	8c5d                	or	s0,s0,a5
ffffffff840051c0:	00893783          	ld	a5,8(s2)
ffffffff840051c4:	80e5                	srli	s1,s1,0x19
ffffffff840051c6:	8cfd                	and	s1,s1,a5
ffffffff840051c8:	9399                	srli	a5,a5,0x26
ffffffff840051ca:	8b85                	andi	a5,a5,1
ffffffff840051cc:	c789                	beqz	a5,ffffffff840051d6 <reply_pop+0x5a>
ffffffff840051ce:	57fd                	li	a5,-1
ffffffff840051d0:	179e                	slli	a5,a5,0x27
ffffffff840051d2:	8cdd                	or	s1,s1,a5
ffffffff840051d4:	cc09                	beqz	s0,ffffffff840051ee <reply_pop+0x72>
ffffffff840051d6:	1709b783          	ld	a5,368(s3)
ffffffff840051da:	cb95                	beqz	a5,ffffffff8400520e <reply_pop+0x92>
ffffffff840051dc:	f004                	sd	s1,32(s0)
ffffffff840051de:	c481                	beqz	s1,ffffffff840051e6 <reply_pop+0x6a>
ffffffff840051e0:	01093783          	ld	a5,16(s2)
ffffffff840051e4:	e89c                	sd	a5,16(s1)
ffffffff840051e6:	00093423          	sd	zero,8(s2)
ffffffff840051ea:	00093823          	sd	zero,16(s2)
ffffffff840051ee:	70a2                	ld	ra,40(sp)
ffffffff840051f0:	7402                	ld	s0,32(sp)
ffffffff840051f2:	64e2                	ld	s1,24(sp)
ffffffff840051f4:	6942                	ld	s2,16(sp)
ffffffff840051f6:	69a2                	ld	s3,8(sp)
ffffffff840051f8:	6145                	addi	sp,sp,48
ffffffff840051fa:	8082                	ret
ffffffff840051fc:	00893783          	ld	a5,8(s2)
ffffffff84005200:	01979493          	slli	s1,a5,0x19
ffffffff84005204:	80e5                	srli	s1,s1,0x19
ffffffff84005206:	9399                	srli	a5,a5,0x26
ffffffff84005208:	8b85                	andi	a5,a5,1
ffffffff8400520a:	f3f1                	bnez	a5,ffffffff840051ce <reply_pop+0x52>
ffffffff8400520c:	b7e1                	j	ffffffff840051d4 <reply_pop+0x58>
ffffffff8400520e:	85ce                	mv	a1,s3
ffffffff84005210:	8522                	mv	a0,s0
ffffffff84005212:	e87ff0ef          	jal	ra,ffffffff84005098 <schedContext_donate>
ffffffff84005216:	b7d9                	j	ffffffff840051dc <reply_pop+0x60>

ffffffff84005218 <reply_remove>:
ffffffff84005218:	1101                	addi	sp,sp,-32
ffffffff8400521a:	ec06                	sd	ra,24(sp)
ffffffff8400521c:	e822                	sd	s0,16(sp)
ffffffff8400521e:	e426                	sd	s1,8(sp)
ffffffff84005220:	84aa                	mv	s1,a0
ffffffff84005222:	852e                	mv	a0,a1
ffffffff84005224:	689c                	ld	a5,16(s1)
ffffffff84005226:	01979693          	slli	a3,a5,0x19
ffffffff8400522a:	82e5                	srli	a3,a3,0x19
ffffffff8400522c:	0267d713          	srli	a4,a5,0x26
ffffffff84005230:	8b05                	andi	a4,a4,1
ffffffff84005232:	cb1d                	beqz	a4,ffffffff84005268 <reply_remove+0x50>
ffffffff84005234:	547d                	li	s0,-1
ffffffff84005236:	02741713          	slli	a4,s0,0x27
ffffffff8400523a:	8ed9                	or	a3,a3,a4
ffffffff8400523c:	6498                	ld	a4,8(s1)
ffffffff8400523e:	8065                	srli	s0,s0,0x19
ffffffff84005240:	8c79                	and	s0,s0,a4
ffffffff84005242:	9319                	srli	a4,a4,0x26
ffffffff84005244:	8b05                	andi	a4,a4,1
ffffffff84005246:	c709                	beqz	a4,ffffffff84005250 <reply_remove+0x38>
ffffffff84005248:	577d                	li	a4,-1
ffffffff8400524a:	171e                	slli	a4,a4,0x27
ffffffff8400524c:	8c59                	or	s0,s0,a4
ffffffff8400524e:	c6a9                	beqz	a3,ffffffff84005298 <reply_remove+0x80>
ffffffff84005250:	93c1                	srli	a5,a5,0x30
ffffffff84005252:	8b85                	andi	a5,a5,1
ffffffff84005254:	c395                	beqz	a5,ffffffff84005278 <reply_remove+0x60>
ffffffff84005256:	85aa                	mv	a1,a0
ffffffff84005258:	8526                	mv	a0,s1
ffffffff8400525a:	f23ff0ef          	jal	ra,ffffffff8400517c <reply_pop>
ffffffff8400525e:	60e2                	ld	ra,24(sp)
ffffffff84005260:	6442                	ld	s0,16(sp)
ffffffff84005262:	64a2                	ld	s1,8(sp)
ffffffff84005264:	6105                	addi	sp,sp,32
ffffffff84005266:	8082                	ret
ffffffff84005268:	6498                	ld	a4,8(s1)
ffffffff8400526a:	01971413          	slli	s0,a4,0x19
ffffffff8400526e:	8065                	srli	s0,s0,0x19
ffffffff84005270:	9319                	srli	a4,a4,0x26
ffffffff84005272:	8b05                	andi	a4,a4,1
ffffffff84005274:	fb71                	bnez	a4,ffffffff84005248 <reply_remove+0x30>
ffffffff84005276:	bfe1                	j	ffffffff8400524e <reply_remove+0x36>
ffffffff84005278:	0006b423          	sd	zero,8(a3) # ffffffffe0000008 <ki_end+0x5bfdb008>
ffffffff8400527c:	12053703          	ld	a4,288(a0)
ffffffff84005280:	57fd                	li	a5,-1
ffffffff84005282:	17a2                	slli	a5,a5,0x28
ffffffff84005284:	07fd                	addi	a5,a5,31
ffffffff84005286:	8ff9                	and	a5,a5,a4
ffffffff84005288:	12f53023          	sd	a5,288(a0)
ffffffff8400528c:	0004b023          	sd	zero,0(s1)
ffffffff84005290:	4581                	li	a1,0
ffffffff84005292:	80dff0ef          	jal	ra,ffffffff84004a9e <setThreadState>
ffffffff84005296:	a831                	j	ffffffff840052b2 <reply_remove+0x9a>
ffffffff84005298:	12053703          	ld	a4,288(a0)
ffffffff8400529c:	57fd                	li	a5,-1
ffffffff8400529e:	17a2                	slli	a5,a5,0x28
ffffffff840052a0:	07fd                	addi	a5,a5,31
ffffffff840052a2:	8ff9                	and	a5,a5,a4
ffffffff840052a4:	12f53023          	sd	a5,288(a0)
ffffffff840052a8:	0004b023          	sd	zero,0(s1)
ffffffff840052ac:	4581                	li	a1,0
ffffffff840052ae:	ff0ff0ef          	jal	ra,ffffffff84004a9e <setThreadState>
ffffffff840052b2:	c019                	beqz	s0,ffffffff840052b8 <reply_remove+0xa0>
ffffffff840052b4:	00043823          	sd	zero,16(s0)
ffffffff840052b8:	0004b423          	sd	zero,8(s1)
ffffffff840052bc:	0004b823          	sd	zero,16(s1)
ffffffff840052c0:	bf79                	j	ffffffff8400525e <reply_remove+0x46>

ffffffff840052c2 <tcbEPDequeue>:
ffffffff840052c2:	1101                	addi	sp,sp,-32
ffffffff840052c4:	87aa                	mv	a5,a0
ffffffff840052c6:	e02e                	sd	a1,0(sp)
ffffffff840052c8:	85b2                	mv	a1,a2
ffffffff840052ca:	1a053703          	ld	a4,416(a0)
ffffffff840052ce:	cf19                	beqz	a4,ffffffff840052ec <tcbEPDequeue+0x2a>
ffffffff840052d0:	6502                	ld	a0,0(sp)
ffffffff840052d2:	1987b683          	ld	a3,408(a5)
ffffffff840052d6:	18d73c23          	sd	a3,408(a4)
ffffffff840052da:	1987b703          	ld	a4,408(a5)
ffffffff840052de:	cb11                	beqz	a4,ffffffff840052f2 <tcbEPDequeue+0x30>
ffffffff840052e0:	1a07b783          	ld	a5,416(a5)
ffffffff840052e4:	1af73023          	sd	a5,416(a4)
ffffffff840052e8:	6105                	addi	sp,sp,32
ffffffff840052ea:	8082                	ret
ffffffff840052ec:	19853503          	ld	a0,408(a0)
ffffffff840052f0:	b7ed                	j	ffffffff840052da <tcbEPDequeue+0x18>
ffffffff840052f2:	1a07b583          	ld	a1,416(a5)
ffffffff840052f6:	bfcd                	j	ffffffff840052e8 <tcbEPDequeue+0x26>

ffffffff840052f8 <cancelBadgedSends>:
ffffffff840052f8:	715d                	addi	sp,sp,-80
ffffffff840052fa:	e486                	sd	ra,72(sp)
ffffffff840052fc:	e0a2                	sd	s0,64(sp)
ffffffff840052fe:	fc26                	sd	s1,56(sp)
ffffffff84005300:	f84a                	sd	s2,48(sp)
ffffffff84005302:	f44e                	sd	s3,40(sp)
ffffffff84005304:	f052                	sd	s4,32(sp)
ffffffff84005306:	ec56                	sd	s5,24(sp)
ffffffff84005308:	611c                	ld	a5,0(a0)
ffffffff8400530a:	0037f693          	andi	a3,a5,3
ffffffff8400530e:	4705                	li	a4,1
ffffffff84005310:	00e68663          	beq	a3,a4,ffffffff8400531c <cancelBadgedSends+0x24>
ffffffff84005314:	8b85                	andi	a5,a5,1
ffffffff84005316:	cfc5                	beqz	a5,ffffffff840053ce <cancelBadgedSends+0xd6>
ffffffff84005318:	f4dfc0ef          	jal	ra,ffffffff84002264 <halt>
ffffffff8400531c:	8aaa                	mv	s5,a0
ffffffff8400531e:	8a2e                	mv	s4,a1
ffffffff84005320:	6500                	ld	s0,8(a0)
ffffffff84005322:	89a2                	mv	s3,s0
ffffffff84005324:	f8000737          	lui	a4,0xf8000
ffffffff84005328:	8365                	srli	a4,a4,0x19
ffffffff8400532a:	8f7d                	and	a4,a4,a5
ffffffff8400532c:	0267d693          	srli	a3,a5,0x26
ffffffff84005330:	8a85                	andi	a3,a3,1
ffffffff84005332:	c681                	beqz	a3,ffffffff8400533a <cancelBadgedSends+0x42>
ffffffff84005334:	56fd                	li	a3,-1
ffffffff84005336:	169e                	slli	a3,a3,0x27
ffffffff84005338:	8f55                	or	a4,a4,a3
ffffffff8400533a:	893a                	mv	s2,a4
ffffffff8400533c:	000ab423          	sd	zero,8(s5)
ffffffff84005340:	939d                	srli	a5,a5,0x27
ffffffff84005342:	179e                	slli	a5,a5,0x27
ffffffff84005344:	00fab023          	sd	a5,0(s5)
ffffffff84005348:	e80d                	bnez	s0,ffffffff8400537a <cancelBadgedSends+0x82>
ffffffff8400534a:	000ab423          	sd	zero,8(s5)
ffffffff8400534e:	f80006b7          	lui	a3,0xf8000
ffffffff84005352:	82e5                	srli	a3,a3,0x19
ffffffff84005354:	8f75                	and	a4,a4,a3
ffffffff84005356:	8fd9                	or	a5,a5,a4
ffffffff84005358:	00fab023          	sd	a5,0(s5)
ffffffff8400535c:	a0bd                	j	ffffffff840053ca <cancelBadgedSends+0xd2>
ffffffff8400535e:	4581                	li	a1,0
ffffffff84005360:	8526                	mv	a0,s1
ffffffff84005362:	f3cff0ef          	jal	ra,ffffffff84004a9e <setThreadState>
ffffffff84005366:	85ce                	mv	a1,s3
ffffffff84005368:	864a                	mv	a2,s2
ffffffff8400536a:	8526                	mv	a0,s1
ffffffff8400536c:	f57ff0ef          	jal	ra,ffffffff840052c2 <tcbEPDequeue>
ffffffff84005370:	89aa                	mv	s3,a0
ffffffff84005372:	e02a                	sd	a0,0(sp)
ffffffff84005374:	e42e                	sd	a1,8(sp)
ffffffff84005376:	892e                	mv	s2,a1
ffffffff84005378:	c405                	beqz	s0,ffffffff840053a0 <cancelBadgedSends+0xa8>
ffffffff8400537a:	12843783          	ld	a5,296(s0)
ffffffff8400537e:	84a2                	mv	s1,s0
ffffffff84005380:	19843403          	ld	s0,408(s0)
ffffffff84005384:	fefa1ae3          	bne	s4,a5,ffffffff84005378 <cancelBadgedSends+0x80>
ffffffff84005388:	1384b783          	ld	a5,312(s1)
ffffffff8400538c:	8bbd                	andi	a5,a5,15
ffffffff8400538e:	fbe1                	bnez	a5,ffffffff8400535e <cancelBadgedSends+0x66>
ffffffff84005390:	4589                	li	a1,2
ffffffff84005392:	8526                	mv	a0,s1
ffffffff84005394:	f0aff0ef          	jal	ra,ffffffff84004a9e <setThreadState>
ffffffff84005398:	8526                	mv	a0,s1
ffffffff8400539a:	9a9ff0ef          	jal	ra,ffffffff84004d42 <possibleSwitchTo>
ffffffff8400539e:	b7e1                	j	ffffffff84005366 <cancelBadgedSends+0x6e>
ffffffff840053a0:	013ab423          	sd	s3,8(s5)
ffffffff840053a4:	000ab603          	ld	a2,0(s5)
ffffffff840053a8:	57fd                	li	a5,-1
ffffffff840053aa:	179e                	slli	a5,a5,0x27
ffffffff840053ac:	078d                	addi	a5,a5,3
ffffffff840053ae:	8ff1                	and	a5,a5,a2
ffffffff840053b0:	f8000637          	lui	a2,0xf8000
ffffffff840053b4:	8265                	srli	a2,a2,0x19
ffffffff840053b6:	00c97633          	and	a2,s2,a2
ffffffff840053ba:	8e5d                	or	a2,a2,a5
ffffffff840053bc:	02098263          	beqz	s3,ffffffff840053e0 <cancelBadgedSends+0xe8>
ffffffff840053c0:	9a71                	andi	a2,a2,-4
ffffffff840053c2:	00166613          	ori	a2,a2,1
ffffffff840053c6:	00cab023          	sd	a2,0(s5)
ffffffff840053ca:	e3aff0ef          	jal	ra,ffffffff84004a04 <rescheduleRequired>
ffffffff840053ce:	60a6                	ld	ra,72(sp)
ffffffff840053d0:	6406                	ld	s0,64(sp)
ffffffff840053d2:	74e2                	ld	s1,56(sp)
ffffffff840053d4:	7942                	ld	s2,48(sp)
ffffffff840053d6:	79a2                	ld	s3,40(sp)
ffffffff840053d8:	7a02                	ld	s4,32(sp)
ffffffff840053da:	6ae2                	ld	s5,24(sp)
ffffffff840053dc:	6161                	addi	sp,sp,80
ffffffff840053de:	8082                	ret
ffffffff840053e0:	00cab023          	sd	a2,0(s5)
ffffffff840053e4:	b7dd                	j	ffffffff840053ca <cancelBadgedSends+0xd2>

ffffffff840053e6 <invokeCNodeCancelBadgedSends>:
ffffffff840053e6:	1101                	addi	sp,sp,-32
ffffffff840053e8:	ec06                	sd	ra,24(sp)
ffffffff840053ea:	e02a                	sd	a0,0(sp)
ffffffff840053ec:	cd81                	beqz	a1,ffffffff84005404 <invokeCNodeCancelBadgedSends+0x1e>
ffffffff840053ee:	87aa                	mv	a5,a0
ffffffff840053f0:	0566                	slli	a0,a0,0x19
ffffffff840053f2:	8165                	srli	a0,a0,0x19
ffffffff840053f4:	9399                	srli	a5,a5,0x26
ffffffff840053f6:	8b85                	andi	a5,a5,1
ffffffff840053f8:	c781                	beqz	a5,ffffffff84005400 <invokeCNodeCancelBadgedSends+0x1a>
ffffffff840053fa:	57fd                	li	a5,-1
ffffffff840053fc:	179e                	slli	a5,a5,0x27
ffffffff840053fe:	8d5d                	or	a0,a0,a5
ffffffff84005400:	ef9ff0ef          	jal	ra,ffffffff840052f8 <cancelBadgedSends>
ffffffff84005404:	4501                	li	a0,0
ffffffff84005406:	60e2                	ld	ra,24(sp)
ffffffff84005408:	6105                	addi	sp,sp,32
ffffffff8400540a:	8082                	ret

ffffffff8400540c <reorderEP>:
ffffffff8400540c:	7179                	addi	sp,sp,-48
ffffffff8400540e:	f406                	sd	ra,40(sp)
ffffffff84005410:	f022                	sd	s0,32(sp)
ffffffff84005412:	ec26                	sd	s1,24(sp)
ffffffff84005414:	84aa                	mv	s1,a0
ffffffff84005416:	842e                	mv	s0,a1
ffffffff84005418:	650c                	ld	a1,8(a0)
ffffffff8400541a:	611c                	ld	a5,0(a0)
ffffffff8400541c:	f8000637          	lui	a2,0xf8000
ffffffff84005420:	8265                	srli	a2,a2,0x19
ffffffff84005422:	8e7d                	and	a2,a2,a5
ffffffff84005424:	9399                	srli	a5,a5,0x26
ffffffff84005426:	8b85                	andi	a5,a5,1
ffffffff84005428:	c781                	beqz	a5,ffffffff84005430 <reorderEP+0x24>
ffffffff8400542a:	57fd                	li	a5,-1
ffffffff8400542c:	179e                	slli	a5,a5,0x27
ffffffff8400542e:	8e5d                	or	a2,a2,a5
ffffffff84005430:	8522                	mv	a0,s0
ffffffff84005432:	e91ff0ef          	jal	ra,ffffffff840052c2 <tcbEPDequeue>
ffffffff84005436:	e02a                	sd	a0,0(sp)
ffffffff84005438:	e42e                	sd	a1,8(sp)
ffffffff8400543a:	87ae                	mv	a5,a1
ffffffff8400543c:	e98d                	bnez	a1,ffffffff8400546e <reorderEP+0x62>
ffffffff8400543e:	872e                	mv	a4,a1
ffffffff84005440:	8522                	mv	a0,s0
ffffffff84005442:	86a2                	mv	a3,s0
ffffffff84005444:	18f43c23          	sd	a5,408(s0)
ffffffff84005448:	1ae43023          	sd	a4,416(s0)
ffffffff8400544c:	e488                	sd	a0,8(s1)
ffffffff8400544e:	609c                	ld	a5,0(s1)
ffffffff84005450:	577d                	li	a4,-1
ffffffff84005452:	171e                	slli	a4,a4,0x27
ffffffff84005454:	070d                	addi	a4,a4,3
ffffffff84005456:	8ff9                	and	a5,a5,a4
ffffffff84005458:	f8000737          	lui	a4,0xf8000
ffffffff8400545c:	8365                	srli	a4,a4,0x19
ffffffff8400545e:	8ef9                	and	a3,a3,a4
ffffffff84005460:	8fd5                	or	a5,a5,a3
ffffffff84005462:	e09c                	sd	a5,0(s1)
ffffffff84005464:	70a2                	ld	ra,40(sp)
ffffffff84005466:	7402                	ld	s0,32(sp)
ffffffff84005468:	64e2                	ld	s1,24(sp)
ffffffff8400546a:	6145                	addi	sp,sp,48
ffffffff8400546c:	8082                	ret
ffffffff8400546e:	16843683          	ld	a3,360(s0)
ffffffff84005472:	872e                	mv	a4,a1
ffffffff84005474:	4601                	li	a2,0
ffffffff84005476:	16873783          	ld	a5,360(a4) # fffffffff8000168 <ki_end+0x73fdb168>
ffffffff8400547a:	00d7ec63          	bltu	a5,a3,ffffffff84005492 <reorderEP+0x86>
ffffffff8400547e:	18873c23          	sd	s0,408(a4)
ffffffff84005482:	87b2                	mv	a5,a2
ffffffff84005484:	86a2                	mv	a3,s0
ffffffff84005486:	de5d                	beqz	a2,ffffffff84005444 <reorderEP+0x38>
ffffffff84005488:	1a863023          	sd	s0,416(a2) # fffffffff80001a0 <ki_end+0x73fdb1a0>
ffffffff8400548c:	86ae                	mv	a3,a1
ffffffff8400548e:	87b2                	mv	a5,a2
ffffffff84005490:	bf55                	j	ffffffff84005444 <reorderEP+0x38>
ffffffff84005492:	1a073783          	ld	a5,416(a4)
ffffffff84005496:	e789                	bnez	a5,ffffffff840054a0 <reorderEP+0x94>
ffffffff84005498:	8522                	mv	a0,s0
ffffffff8400549a:	863a                	mv	a2,a4
ffffffff8400549c:	873e                	mv	a4,a5
ffffffff8400549e:	b7ed                	j	ffffffff84005488 <reorderEP+0x7c>
ffffffff840054a0:	863a                	mv	a2,a4
ffffffff840054a2:	873e                	mv	a4,a5
ffffffff840054a4:	bfc9                	j	ffffffff84005476 <reorderEP+0x6a>

ffffffff840054a6 <cancelSignal>:
ffffffff840054a6:	7179                	addi	sp,sp,-48
ffffffff840054a8:	f406                	sd	ra,40(sp)
ffffffff840054aa:	f022                	sd	s0,32(sp)
ffffffff840054ac:	ec26                	sd	s1,24(sp)
ffffffff840054ae:	84aa                	mv	s1,a0
ffffffff840054b0:	842e                	mv	s0,a1
ffffffff840054b2:	659c                	ld	a5,8(a1)
ffffffff840054b4:	01979593          	slli	a1,a5,0x19
ffffffff840054b8:	81e5                	srli	a1,a1,0x19
ffffffff840054ba:	9399                	srli	a5,a5,0x26
ffffffff840054bc:	8b85                	andi	a5,a5,1
ffffffff840054be:	c781                	beqz	a5,ffffffff840054c6 <cancelSignal+0x20>
ffffffff840054c0:	57fd                	li	a5,-1
ffffffff840054c2:	179e                	slli	a5,a5,0x27
ffffffff840054c4:	8ddd                	or	a1,a1,a5
ffffffff840054c6:	601c                	ld	a5,0(s0)
ffffffff840054c8:	0197d613          	srli	a2,a5,0x19
ffffffff840054cc:	0007d563          	bgez	a5,ffffffff840054d6 <cancelSignal+0x30>
ffffffff840054d0:	57fd                	li	a5,-1
ffffffff840054d2:	179e                	slli	a5,a5,0x27
ffffffff840054d4:	8e5d                	or	a2,a2,a5
ffffffff840054d6:	8526                	mv	a0,s1
ffffffff840054d8:	debff0ef          	jal	ra,ffffffff840052c2 <tcbEPDequeue>
ffffffff840054dc:	6414                	ld	a3,8(s0)
ffffffff840054de:	577d                	li	a4,-1
ffffffff840054e0:	02771793          	slli	a5,a4,0x27
ffffffff840054e4:	8efd                	and	a3,a3,a5
ffffffff840054e6:	8365                	srli	a4,a4,0x19
ffffffff840054e8:	8f69                	and	a4,a4,a0
ffffffff840054ea:	8f55                	or	a4,a4,a3
ffffffff840054ec:	e418                	sd	a4,8(s0)
ffffffff840054ee:	601c                	ld	a5,0(s0)
ffffffff840054f0:	179e                	slli	a5,a5,0x27
ffffffff840054f2:	939d                	srli	a5,a5,0x27
ffffffff840054f4:	05e6                	slli	a1,a1,0x19
ffffffff840054f6:	8fcd                	or	a5,a5,a1
ffffffff840054f8:	c919                	beqz	a0,ffffffff8400550e <cancelSignal+0x68>
ffffffff840054fa:	e01c                	sd	a5,0(s0)
ffffffff840054fc:	4581                	li	a1,0
ffffffff840054fe:	8526                	mv	a0,s1
ffffffff84005500:	d9eff0ef          	jal	ra,ffffffff84004a9e <setThreadState>
ffffffff84005504:	70a2                	ld	ra,40(sp)
ffffffff84005506:	7402                	ld	s0,32(sp)
ffffffff84005508:	64e2                	ld	s1,24(sp)
ffffffff8400550a:	6145                	addi	sp,sp,48
ffffffff8400550c:	8082                	ret
ffffffff8400550e:	9bf1                	andi	a5,a5,-4
ffffffff84005510:	e01c                	sd	a5,0(s0)
ffffffff84005512:	b7ed                	j	ffffffff840054fc <cancelSignal+0x56>

ffffffff84005514 <cancelIPC>:
ffffffff84005514:	7179                	addi	sp,sp,-48
ffffffff84005516:	f406                	sd	ra,40(sp)
ffffffff84005518:	f022                	sd	s0,32(sp)
ffffffff8400551a:	ec26                	sd	s1,24(sp)
ffffffff8400551c:	842a                	mv	s0,a0
ffffffff8400551e:	12053c23          	sd	zero,312(a0)
ffffffff84005522:	14053023          	sd	zero,320(a0)
ffffffff84005526:	11853703          	ld	a4,280(a0)
ffffffff8400552a:	00f77793          	andi	a5,a4,15
ffffffff8400552e:	4695                	li	a3,5
ffffffff84005530:	0cd78a63          	beq	a5,a3,ffffffff84005604 <cancelIPC+0xf0>
ffffffff84005534:	08f6ea63          	bltu	a3,a5,ffffffff840055c8 <cancelIPC+0xb4>
ffffffff84005538:	17f5                	addi	a5,a5,-3
ffffffff8400553a:	4685                	li	a3,1
ffffffff8400553c:	0af6ef63          	bltu	a3,a5,ffffffff840055fa <cancelIPC+0xe6>
ffffffff84005540:	e00007b7          	lui	a5,0xe0000
ffffffff84005544:	83e5                	srli	a5,a5,0x19
ffffffff84005546:	8ff9                	and	a5,a5,a4
ffffffff84005548:	9319                	srli	a4,a4,0x26
ffffffff8400554a:	8b05                	andi	a4,a4,1
ffffffff8400554c:	c701                	beqz	a4,ffffffff84005554 <cancelIPC+0x40>
ffffffff8400554e:	577d                	li	a4,-1
ffffffff84005550:	171e                	slli	a4,a4,0x27
ffffffff84005552:	8fd9                	or	a5,a5,a4
ffffffff84005554:	84be                	mv	s1,a5
ffffffff84005556:	678c                	ld	a1,8(a5)
ffffffff84005558:	639c                	ld	a5,0(a5)
ffffffff8400555a:	f8000637          	lui	a2,0xf8000
ffffffff8400555e:	8265                	srli	a2,a2,0x19
ffffffff84005560:	8e7d                	and	a2,a2,a5
ffffffff84005562:	9399                	srli	a5,a5,0x26
ffffffff84005564:	8b85                	andi	a5,a5,1
ffffffff84005566:	c781                	beqz	a5,ffffffff8400556e <cancelIPC+0x5a>
ffffffff84005568:	57fd                	li	a5,-1
ffffffff8400556a:	179e                	slli	a5,a5,0x27
ffffffff8400556c:	8e5d                	or	a2,a2,a5
ffffffff8400556e:	8522                	mv	a0,s0
ffffffff84005570:	d53ff0ef          	jal	ra,ffffffff840052c2 <tcbEPDequeue>
ffffffff84005574:	e02a                	sd	a0,0(sp)
ffffffff84005576:	e42e                	sd	a1,8(sp)
ffffffff84005578:	e488                	sd	a0,8(s1)
ffffffff8400557a:	609c                	ld	a5,0(s1)
ffffffff8400557c:	577d                	li	a4,-1
ffffffff8400557e:	171e                	slli	a4,a4,0x27
ffffffff84005580:	070d                	addi	a4,a4,3
ffffffff84005582:	8ff9                	and	a5,a5,a4
ffffffff84005584:	f8000737          	lui	a4,0xf8000
ffffffff84005588:	8365                	srli	a4,a4,0x19
ffffffff8400558a:	8df9                	and	a1,a1,a4
ffffffff8400558c:	8ddd                	or	a1,a1,a5
ffffffff8400558e:	cd31                	beqz	a0,ffffffff840055ea <cancelIPC+0xd6>
ffffffff84005590:	e08c                	sd	a1,0(s1)
ffffffff84005592:	12043683          	ld	a3,288(s0)
ffffffff84005596:	0016d713          	srli	a4,a3,0x1
ffffffff8400559a:	e00007b7          	lui	a5,0xe0000
ffffffff8400559e:	83e5                	srli	a5,a5,0x19
ffffffff840055a0:	8ff9                	and	a5,a5,a4
ffffffff840055a2:	9319                	srli	a4,a4,0x26
ffffffff840055a4:	8b05                	andi	a4,a4,1
ffffffff840055a6:	c729                	beqz	a4,ffffffff840055f0 <cancelIPC+0xdc>
ffffffff840055a8:	577d                	li	a4,-1
ffffffff840055aa:	171e                	slli	a4,a4,0x27
ffffffff840055ac:	8fd9                	or	a5,a5,a4
ffffffff840055ae:	577d                	li	a4,-1
ffffffff840055b0:	1722                	slli	a4,a4,0x28
ffffffff840055b2:	077d                	addi	a4,a4,31
ffffffff840055b4:	8ef9                	and	a3,a3,a4
ffffffff840055b6:	12d43023          	sd	a3,288(s0)
ffffffff840055ba:	0007b023          	sd	zero,0(a5) # ffffffffe0000000 <ki_end+0x5bfdb000>
ffffffff840055be:	4581                	li	a1,0
ffffffff840055c0:	8522                	mv	a0,s0
ffffffff840055c2:	cdcff0ef          	jal	ra,ffffffff84004a9e <setThreadState>
ffffffff840055c6:	a035                	j	ffffffff840055f2 <cancelIPC+0xde>
ffffffff840055c8:	4699                	li	a3,6
ffffffff840055ca:	02d79863          	bne	a5,a3,ffffffff840055fa <cancelIPC+0xe6>
ffffffff840055ce:	e00005b7          	lui	a1,0xe0000
ffffffff840055d2:	81e5                	srli	a1,a1,0x19
ffffffff840055d4:	8df9                	and	a1,a1,a4
ffffffff840055d6:	9319                	srli	a4,a4,0x26
ffffffff840055d8:	8b05                	andi	a4,a4,1
ffffffff840055da:	c701                	beqz	a4,ffffffff840055e2 <cancelIPC+0xce>
ffffffff840055dc:	57fd                	li	a5,-1
ffffffff840055de:	179e                	slli	a5,a5,0x27
ffffffff840055e0:	8ddd                	or	a1,a1,a5
ffffffff840055e2:	8522                	mv	a0,s0
ffffffff840055e4:	ec3ff0ef          	jal	ra,ffffffff840054a6 <cancelSignal>
ffffffff840055e8:	a809                	j	ffffffff840055fa <cancelIPC+0xe6>
ffffffff840055ea:	99f1                	andi	a1,a1,-4
ffffffff840055ec:	e08c                	sd	a1,0(s1)
ffffffff840055ee:	b755                	j	ffffffff84005592 <cancelIPC+0x7e>
ffffffff840055f0:	ffdd                	bnez	a5,ffffffff840055ae <cancelIPC+0x9a>
ffffffff840055f2:	4581                	li	a1,0
ffffffff840055f4:	8522                	mv	a0,s0
ffffffff840055f6:	ca8ff0ef          	jal	ra,ffffffff84004a9e <setThreadState>
ffffffff840055fa:	70a2                	ld	ra,40(sp)
ffffffff840055fc:	7402                	ld	s0,32(sp)
ffffffff840055fe:	64e2                	ld	s1,24(sp)
ffffffff84005600:	6145                	addi	sp,sp,48
ffffffff84005602:	8082                	ret
ffffffff84005604:	ddcff0ef          	jal	ra,ffffffff84004be0 <reply_remove_tcb>
ffffffff84005608:	bfcd                	j	ffffffff840055fa <cancelIPC+0xe6>

ffffffff8400560a <reorderNTFN>:
ffffffff8400560a:	7179                	addi	sp,sp,-48
ffffffff8400560c:	f406                	sd	ra,40(sp)
ffffffff8400560e:	f022                	sd	s0,32(sp)
ffffffff84005610:	ec26                	sd	s1,24(sp)
ffffffff84005612:	84aa                	mv	s1,a0
ffffffff84005614:	842e                	mv	s0,a1
ffffffff84005616:	651c                	ld	a5,8(a0)
ffffffff84005618:	01979593          	slli	a1,a5,0x19
ffffffff8400561c:	81e5                	srli	a1,a1,0x19
ffffffff8400561e:	9399                	srli	a5,a5,0x26
ffffffff84005620:	8b85                	andi	a5,a5,1
ffffffff84005622:	c781                	beqz	a5,ffffffff8400562a <reorderNTFN+0x20>
ffffffff84005624:	57fd                	li	a5,-1
ffffffff84005626:	179e                	slli	a5,a5,0x27
ffffffff84005628:	8ddd                	or	a1,a1,a5
ffffffff8400562a:	609c                	ld	a5,0(s1)
ffffffff8400562c:	0197d613          	srli	a2,a5,0x19
ffffffff84005630:	0007d563          	bgez	a5,ffffffff8400563a <reorderNTFN+0x30>
ffffffff84005634:	57fd                	li	a5,-1
ffffffff84005636:	179e                	slli	a5,a5,0x27
ffffffff84005638:	8e5d                	or	a2,a2,a5
ffffffff8400563a:	8522                	mv	a0,s0
ffffffff8400563c:	c87ff0ef          	jal	ra,ffffffff840052c2 <tcbEPDequeue>
ffffffff84005640:	e02a                	sd	a0,0(sp)
ffffffff84005642:	e42e                	sd	a1,8(sp)
ffffffff84005644:	87ae                	mv	a5,a1
ffffffff84005646:	ed85                	bnez	a1,ffffffff8400567e <reorderNTFN+0x74>
ffffffff84005648:	872e                	mv	a4,a1
ffffffff8400564a:	8522                	mv	a0,s0
ffffffff8400564c:	8622                	mv	a2,s0
ffffffff8400564e:	18e43c23          	sd	a4,408(s0)
ffffffff84005652:	1af43023          	sd	a5,416(s0)
ffffffff84005656:	6498                	ld	a4,8(s1)
ffffffff84005658:	56fd                	li	a3,-1
ffffffff8400565a:	02769793          	slli	a5,a3,0x27
ffffffff8400565e:	8f7d                	and	a4,a4,a5
ffffffff84005660:	82e5                	srli	a3,a3,0x19
ffffffff84005662:	8d75                	and	a0,a0,a3
ffffffff84005664:	8d59                	or	a0,a0,a4
ffffffff84005666:	e488                	sd	a0,8(s1)
ffffffff84005668:	609c                	ld	a5,0(s1)
ffffffff8400566a:	179e                	slli	a5,a5,0x27
ffffffff8400566c:	939d                	srli	a5,a5,0x27
ffffffff8400566e:	0666                	slli	a2,a2,0x19
ffffffff84005670:	8fd1                	or	a5,a5,a2
ffffffff84005672:	e09c                	sd	a5,0(s1)
ffffffff84005674:	70a2                	ld	ra,40(sp)
ffffffff84005676:	7402                	ld	s0,32(sp)
ffffffff84005678:	64e2                	ld	s1,24(sp)
ffffffff8400567a:	6145                	addi	sp,sp,48
ffffffff8400567c:	8082                	ret
ffffffff8400567e:	16843603          	ld	a2,360(s0)
ffffffff84005682:	86ae                	mv	a3,a1
ffffffff84005684:	4701                	li	a4,0
ffffffff84005686:	1686b783          	ld	a5,360(a3) # fffffffff8000168 <ki_end+0x73fdb168>
ffffffff8400568a:	00c7ec63          	bltu	a5,a2,ffffffff840056a2 <reorderNTFN+0x98>
ffffffff8400568e:	1886bc23          	sd	s0,408(a3)
ffffffff84005692:	87b6                	mv	a5,a3
ffffffff84005694:	8622                	mv	a2,s0
ffffffff84005696:	df45                	beqz	a4,ffffffff8400564e <reorderNTFN+0x44>
ffffffff84005698:	1a873023          	sd	s0,416(a4) # fffffffff80001a0 <ki_end+0x73fdb1a0>
ffffffff8400569c:	862e                	mv	a2,a1
ffffffff8400569e:	87b6                	mv	a5,a3
ffffffff840056a0:	b77d                	j	ffffffff8400564e <reorderNTFN+0x44>
ffffffff840056a2:	1a06b783          	ld	a5,416(a3)
ffffffff840056a6:	e789                	bnez	a5,ffffffff840056b0 <reorderNTFN+0xa6>
ffffffff840056a8:	8736                	mv	a4,a3
ffffffff840056aa:	86be                	mv	a3,a5
ffffffff840056ac:	8522                	mv	a0,s0
ffffffff840056ae:	b7ed                	j	ffffffff84005698 <reorderNTFN+0x8e>
ffffffff840056b0:	8736                	mv	a4,a3
ffffffff840056b2:	86be                	mv	a3,a5
ffffffff840056b4:	bfc9                	j	ffffffff84005686 <reorderNTFN+0x7c>

ffffffff840056b6 <setPriority>:
ffffffff840056b6:	1101                	addi	sp,sp,-32
ffffffff840056b8:	ec06                	sd	ra,24(sp)
ffffffff840056ba:	e822                	sd	s0,16(sp)
ffffffff840056bc:	e426                	sd	s1,8(sp)
ffffffff840056be:	842a                	mv	s0,a0
ffffffff840056c0:	84ae                	mv	s1,a1
ffffffff840056c2:	11853703          	ld	a4,280(a0)
ffffffff840056c6:	00f77793          	andi	a5,a4,15
ffffffff840056ca:	4691                	li	a3,4
ffffffff840056cc:	02f6e763          	bltu	a3,a5,ffffffff840056fa <setPriority+0x44>
ffffffff840056d0:	4689                	li	a3,2
ffffffff840056d2:	06f6e263          	bltu	a3,a5,ffffffff84005736 <setPriority+0x80>
ffffffff840056d6:	17fd                	addi	a5,a5,-1
ffffffff840056d8:	4705                	li	a4,1
ffffffff840056da:	08f76263          	bltu	a4,a5,ffffffff8400575e <setPriority+0xa8>
ffffffff840056de:	12053783          	ld	a5,288(a0)
ffffffff840056e2:	8385                	srli	a5,a5,0x1
ffffffff840056e4:	8b85                	andi	a5,a5,1
ffffffff840056e6:	ef8d                	bnez	a5,ffffffff84005720 <setPriority+0x6a>
ffffffff840056e8:	0001a797          	auipc	a5,0x1a
ffffffff840056ec:	1707b783          	ld	a5,368(a5) # ffffffff8401f858 <ksCurThread>
ffffffff840056f0:	02a78863          	beq	a5,a0,ffffffff84005720 <setPriority+0x6a>
ffffffff840056f4:	16b43423          	sd	a1,360(s0)
ffffffff840056f8:	a8b1                	j	ffffffff84005754 <setPriority+0x9e>
ffffffff840056fa:	4699                	li	a3,6
ffffffff840056fc:	06d79163          	bne	a5,a3,ffffffff8400575e <setPriority+0xa8>
ffffffff84005700:	16b43423          	sd	a1,360(s0)
ffffffff84005704:	e0000537          	lui	a0,0xe0000
ffffffff84005708:	8165                	srli	a0,a0,0x19
ffffffff8400570a:	8d79                	and	a0,a0,a4
ffffffff8400570c:	9319                	srli	a4,a4,0x26
ffffffff8400570e:	8b05                	andi	a4,a4,1
ffffffff84005710:	c701                	beqz	a4,ffffffff84005718 <setPriority+0x62>
ffffffff84005712:	57fd                	li	a5,-1
ffffffff84005714:	179e                	slli	a5,a5,0x27
ffffffff84005716:	8d5d                	or	a0,a0,a5
ffffffff84005718:	85a2                	mv	a1,s0
ffffffff8400571a:	ef1ff0ef          	jal	ra,ffffffff8400560a <reorderNTFN>
ffffffff8400571e:	a81d                	j	ffffffff84005754 <setPriority+0x9e>
ffffffff84005720:	8522                	mv	a0,s0
ffffffff84005722:	81fff0ef          	jal	ra,ffffffff84004f40 <tcbSchedDequeue>
ffffffff84005726:	16943423          	sd	s1,360(s0)
ffffffff8400572a:	8522                	mv	a0,s0
ffffffff8400572c:	a3cff0ef          	jal	ra,ffffffff84004968 <tcbSchedEnqueue>
ffffffff84005730:	ad4ff0ef          	jal	ra,ffffffff84004a04 <rescheduleRequired>
ffffffff84005734:	a005                	j	ffffffff84005754 <setPriority+0x9e>
ffffffff84005736:	16b43423          	sd	a1,360(s0)
ffffffff8400573a:	e0000537          	lui	a0,0xe0000
ffffffff8400573e:	8165                	srli	a0,a0,0x19
ffffffff84005740:	8d79                	and	a0,a0,a4
ffffffff84005742:	9319                	srli	a4,a4,0x26
ffffffff84005744:	8b05                	andi	a4,a4,1
ffffffff84005746:	c701                	beqz	a4,ffffffff8400574e <setPriority+0x98>
ffffffff84005748:	57fd                	li	a5,-1
ffffffff8400574a:	179e                	slli	a5,a5,0x27
ffffffff8400574c:	8d5d                	or	a0,a0,a5
ffffffff8400574e:	85a2                	mv	a1,s0
ffffffff84005750:	cbdff0ef          	jal	ra,ffffffff8400540c <reorderEP>
ffffffff84005754:	60e2                	ld	ra,24(sp)
ffffffff84005756:	6442                	ld	s0,16(sp)
ffffffff84005758:	64a2                	ld	s1,8(sp)
ffffffff8400575a:	6105                	addi	sp,sp,32
ffffffff8400575c:	8082                	ret
ffffffff8400575e:	16943423          	sd	s1,360(s0)
ffffffff84005762:	bfcd                	j	ffffffff84005754 <setPriority+0x9e>

ffffffff84005764 <tcbReleaseRemove>:
ffffffff84005764:	12053783          	ld	a5,288(a0) # ffffffffe0000120 <ki_end+0x5bfdb120>
ffffffff84005768:	8b85                	andi	a5,a5,1
ffffffff8400576a:	cb85                	beqz	a5,ffffffff8400579a <tcbReleaseRemove+0x36>
ffffffff8400576c:	19053783          	ld	a5,400(a0)
ffffffff84005770:	c795                	beqz	a5,ffffffff8400579c <tcbReleaseRemove+0x38>
ffffffff84005772:	18853703          	ld	a4,392(a0)
ffffffff84005776:	18e7b423          	sd	a4,392(a5)
ffffffff8400577a:	18853783          	ld	a5,392(a0)
ffffffff8400577e:	c789                	beqz	a5,ffffffff84005788 <tcbReleaseRemove+0x24>
ffffffff84005780:	19053703          	ld	a4,400(a0)
ffffffff84005784:	18e7b823          	sd	a4,400(a5)
ffffffff84005788:	18053423          	sd	zero,392(a0)
ffffffff8400578c:	18053823          	sd	zero,400(a0)
ffffffff84005790:	12053783          	ld	a5,288(a0)
ffffffff84005794:	9bf9                	andi	a5,a5,-2
ffffffff84005796:	12f53023          	sd	a5,288(a0)
ffffffff8400579a:	8082                	ret
ffffffff8400579c:	18853783          	ld	a5,392(a0)
ffffffff840057a0:	0001a717          	auipc	a4,0x1a
ffffffff840057a4:	0cf73023          	sd	a5,192(a4) # ffffffff8401f860 <ksReleaseHead>
ffffffff840057a8:	4785                	li	a5,1
ffffffff840057aa:	0001a717          	auipc	a4,0x1a
ffffffff840057ae:	08f73723          	sd	a5,142(a4) # ffffffff8401f838 <ksReprogram>
ffffffff840057b2:	b7e1                	j	ffffffff8400577a <tcbReleaseRemove+0x16>

ffffffff840057b4 <suspend>:
ffffffff840057b4:	1141                	addi	sp,sp,-16
ffffffff840057b6:	e406                	sd	ra,8(sp)
ffffffff840057b8:	e022                	sd	s0,0(sp)
ffffffff840057ba:	842a                	mv	s0,a0
ffffffff840057bc:	d59ff0ef          	jal	ra,ffffffff84005514 <cancelIPC>
ffffffff840057c0:	11843783          	ld	a5,280(s0)
ffffffff840057c4:	8bbd                	andi	a5,a5,15
ffffffff840057c6:	4705                	li	a4,1
ffffffff840057c8:	02e78363          	beq	a5,a4,ffffffff840057ee <suspend+0x3a>
ffffffff840057cc:	4581                	li	a1,0
ffffffff840057ce:	8522                	mv	a0,s0
ffffffff840057d0:	aceff0ef          	jal	ra,ffffffff84004a9e <setThreadState>
ffffffff840057d4:	8522                	mv	a0,s0
ffffffff840057d6:	f6aff0ef          	jal	ra,ffffffff84004f40 <tcbSchedDequeue>
ffffffff840057da:	8522                	mv	a0,s0
ffffffff840057dc:	f89ff0ef          	jal	ra,ffffffff84005764 <tcbReleaseRemove>
ffffffff840057e0:	8522                	mv	a0,s0
ffffffff840057e2:	942ff0ef          	jal	ra,ffffffff84004924 <schedContext_cancelYieldTo>
ffffffff840057e6:	60a2                	ld	ra,8(sp)
ffffffff840057e8:	6402                	ld	s0,0(sp)
ffffffff840057ea:	0141                	addi	sp,sp,16
ffffffff840057ec:	8082                	ret
ffffffff840057ee:	11043783          	ld	a5,272(s0)
ffffffff840057f2:	10f43423          	sd	a5,264(s0)
ffffffff840057f6:	bfd9                	j	ffffffff840057cc <suspend+0x18>

ffffffff840057f8 <schedContext_unbindTCB>:
ffffffff840057f8:	1141                	addi	sp,sp,-16
ffffffff840057fa:	e406                	sd	ra,8(sp)
ffffffff840057fc:	e022                	sd	s0,0(sp)
ffffffff840057fe:	842a                	mv	s0,a0
ffffffff84005800:	0001a797          	auipc	a5,0x1a
ffffffff84005804:	0587b783          	ld	a5,88(a5) # ffffffff8401f858 <ksCurThread>
ffffffff84005808:	02b78163          	beq	a5,a1,ffffffff8400582a <schedContext_unbindTCB+0x32>
ffffffff8400580c:	6c08                	ld	a0,24(s0)
ffffffff8400580e:	f32ff0ef          	jal	ra,ffffffff84004f40 <tcbSchedDequeue>
ffffffff84005812:	6c08                	ld	a0,24(s0)
ffffffff84005814:	f51ff0ef          	jal	ra,ffffffff84005764 <tcbReleaseRemove>
ffffffff84005818:	6c1c                	ld	a5,24(s0)
ffffffff8400581a:	1607b823          	sd	zero,368(a5)
ffffffff8400581e:	00043c23          	sd	zero,24(s0)
ffffffff84005822:	60a2                	ld	ra,8(sp)
ffffffff84005824:	6402                	ld	s0,0(sp)
ffffffff84005826:	0141                	addi	sp,sp,16
ffffffff84005828:	8082                	ret
ffffffff8400582a:	9daff0ef          	jal	ra,ffffffff84004a04 <rescheduleRequired>
ffffffff8400582e:	bff9                	j	ffffffff8400580c <schedContext_unbindTCB+0x14>

ffffffff84005830 <schedContext_unbindAllTCBs>:
ffffffff84005830:	6d0c                	ld	a1,24(a0)
ffffffff84005832:	c981                	beqz	a1,ffffffff84005842 <schedContext_unbindAllTCBs+0x12>
ffffffff84005834:	1141                	addi	sp,sp,-16
ffffffff84005836:	e406                	sd	ra,8(sp)
ffffffff84005838:	fc1ff0ef          	jal	ra,ffffffff840057f8 <schedContext_unbindTCB>
ffffffff8400583c:	60a2                	ld	ra,8(sp)
ffffffff8400583e:	0141                	addi	sp,sp,16
ffffffff84005840:	8082                	ret
ffffffff84005842:	8082                	ret

ffffffff84005844 <finaliseCap>:
ffffffff84005844:	7139                	addi	sp,sp,-64
ffffffff84005846:	fc06                	sd	ra,56(sp)
ffffffff84005848:	f822                	sd	s0,48(sp)
ffffffff8400584a:	f426                	sd	s1,40(sp)
ffffffff8400584c:	f04a                	sd	s2,32(sp)
ffffffff8400584e:	ec4e                	sd	s3,24(sp)
ffffffff84005850:	842a                	mv	s0,a0
ffffffff84005852:	e02e                	sd	a1,0(sp)
ffffffff84005854:	e432                	sd	a2,8(sp)
ffffffff84005856:	84ae                	mv	s1,a1
ffffffff84005858:	03b5d793          	srli	a5,a1,0x3b
ffffffff8400585c:	0017f613          	andi	a2,a5,1
ffffffff84005860:	ee19                	bnez	a2,ffffffff8400587e <finaliseCap+0x3a>
ffffffff84005862:	6922                	ld	s2,8(sp)
ffffffff84005864:	4651                	li	a2,20
ffffffff84005866:	10f66763          	bltu	a2,a5,ffffffff84005974 <finaliseCap+0x130>
ffffffff8400586a:	00279593          	slli	a1,a5,0x2
ffffffff8400586e:	00006517          	auipc	a0,0x6
ffffffff84005872:	31250513          	addi	a0,a0,786 # ffffffff8400bb80 <msgRegisters+0x258>
ffffffff84005876:	95aa                	add	a1,a1,a0
ffffffff84005878:	4190                	lw	a2,0(a1)
ffffffff8400587a:	962a                	add	a2,a2,a0
ffffffff8400587c:	8602                	jr	a2
ffffffff8400587e:	6622                	ld	a2,8(sp)
ffffffff84005880:	ce4fd0ef          	jal	ra,ffffffff84002d64 <Arch_finaliseCap>
ffffffff84005884:	8522                	mv	a0,s0
ffffffff84005886:	70e2                	ld	ra,56(sp)
ffffffff84005888:	7442                	ld	s0,48(sp)
ffffffff8400588a:	74a2                	ld	s1,40(sp)
ffffffff8400588c:	7902                	ld	s2,32(sp)
ffffffff8400588e:	69e2                	ld	s3,24(sp)
ffffffff84005890:	6121                	addi	sp,sp,64
ffffffff84005892:	8082                	ret
ffffffff84005894:	ce81                	beqz	a3,ffffffff840058ac <finaliseCap+0x68>
ffffffff84005896:	01949513          	slli	a0,s1,0x19
ffffffff8400589a:	8165                	srli	a0,a0,0x19
ffffffff8400589c:	9099                	srli	s1,s1,0x26
ffffffff8400589e:	8885                	andi	s1,s1,1
ffffffff840058a0:	c481                	beqz	s1,ffffffff840058a8 <finaliseCap+0x64>
ffffffff840058a2:	57fd                	li	a5,-1
ffffffff840058a4:	179e                	slli	a5,a5,0x27
ffffffff840058a6:	8d5d                	or	a0,a0,a5
ffffffff840058a8:	ceeff0ef          	jal	ra,ffffffff84004d96 <cancelAllIPC>
ffffffff840058ac:	00043023          	sd	zero,0(s0)
ffffffff840058b0:	00043423          	sd	zero,8(s0)
ffffffff840058b4:	00043823          	sd	zero,16(s0)
ffffffff840058b8:	00043c23          	sd	zero,24(s0)
ffffffff840058bc:	b7e1                	j	ffffffff84005884 <finaliseCap+0x40>
ffffffff840058be:	ce8d                	beqz	a3,ffffffff840058f8 <finaliseCap+0xb4>
ffffffff840058c0:	01949793          	slli	a5,s1,0x19
ffffffff840058c4:	83e5                	srli	a5,a5,0x19
ffffffff840058c6:	9099                	srli	s1,s1,0x26
ffffffff840058c8:	8885                	andi	s1,s1,1
ffffffff840058ca:	c481                	beqz	s1,ffffffff840058d2 <finaliseCap+0x8e>
ffffffff840058cc:	577d                	li	a4,-1
ffffffff840058ce:	171e                	slli	a4,a4,0x27
ffffffff840058d0:	8fd9                	or	a5,a5,a4
ffffffff840058d2:	84be                	mv	s1,a5
ffffffff840058d4:	739c                	ld	a5,32(a5)
ffffffff840058d6:	01979513          	slli	a0,a5,0x19
ffffffff840058da:	8165                	srli	a0,a0,0x19
ffffffff840058dc:	9399                	srli	a5,a5,0x26
ffffffff840058de:	8b85                	andi	a5,a5,1
ffffffff840058e0:	c781                	beqz	a5,ffffffff840058e8 <finaliseCap+0xa4>
ffffffff840058e2:	57fd                	li	a5,-1
ffffffff840058e4:	179e                	slli	a5,a5,0x27
ffffffff840058e6:	8d5d                	or	a0,a0,a5
ffffffff840058e8:	ef9fe0ef          	jal	ra,ffffffff840047e0 <schedContext_unbindNtfn>
ffffffff840058ec:	8526                	mv	a0,s1
ffffffff840058ee:	beefe0ef          	jal	ra,ffffffff84003cdc <unbindMaybeNotification>
ffffffff840058f2:	8526                	mv	a0,s1
ffffffff840058f4:	d46ff0ef          	jal	ra,ffffffff84004e3a <cancelAllSignals>
ffffffff840058f8:	00043023          	sd	zero,0(s0)
ffffffff840058fc:	00043423          	sd	zero,8(s0)
ffffffff84005900:	00043823          	sd	zero,16(s0)
ffffffff84005904:	00043c23          	sd	zero,24(s0)
ffffffff84005908:	bfb5                	j	ffffffff84005884 <finaliseCap+0x40>
ffffffff8400590a:	c29d                	beqz	a3,ffffffff84005930 <finaliseCap+0xec>
ffffffff8400590c:	02090263          	beqz	s2,ffffffff84005930 <finaliseCap+0xec>
ffffffff84005910:	00093503          	ld	a0,0(s2)
ffffffff84005914:	cd11                	beqz	a0,ffffffff84005930 <finaliseCap+0xec>
ffffffff84005916:	11853783          	ld	a5,280(a0)
ffffffff8400591a:	8bbd                	andi	a5,a5,15
ffffffff8400591c:	470d                	li	a4,3
ffffffff8400591e:	02e78263          	beq	a5,a4,ffffffff84005942 <finaliseCap+0xfe>
ffffffff84005922:	4715                	li	a4,5
ffffffff84005924:	02e79d63          	bne	a5,a4,ffffffff8400595e <finaliseCap+0x11a>
ffffffff84005928:	85aa                	mv	a1,a0
ffffffff8400592a:	854a                	mv	a0,s2
ffffffff8400592c:	8edff0ef          	jal	ra,ffffffff84005218 <reply_remove>
ffffffff84005930:	00043023          	sd	zero,0(s0)
ffffffff84005934:	00043423          	sd	zero,8(s0)
ffffffff84005938:	00043823          	sd	zero,16(s0)
ffffffff8400593c:	00043c23          	sd	zero,24(s0)
ffffffff84005940:	b791                	j	ffffffff84005884 <finaliseCap+0x40>
ffffffff84005942:	12053703          	ld	a4,288(a0)
ffffffff84005946:	57fd                	li	a5,-1
ffffffff84005948:	17a2                	slli	a5,a5,0x28
ffffffff8400594a:	07fd                	addi	a5,a5,31
ffffffff8400594c:	8ff9                	and	a5,a5,a4
ffffffff8400594e:	12f53023          	sd	a5,288(a0)
ffffffff84005952:	00093023          	sd	zero,0(s2)
ffffffff84005956:	4581                	li	a1,0
ffffffff84005958:	946ff0ef          	jal	ra,ffffffff84004a9e <setThreadState>
ffffffff8400595c:	bfd1                	j	ffffffff84005930 <finaliseCap+0xec>
ffffffff8400595e:	907fc0ef          	jal	ra,ffffffff84002264 <halt>
ffffffff84005962:	00043023          	sd	zero,0(s0)
ffffffff84005966:	00043423          	sd	zero,8(s0)
ffffffff8400596a:	00043823          	sd	zero,16(s0)
ffffffff8400596e:	00043c23          	sd	zero,24(s0)
ffffffff84005972:	bf09                	j	ffffffff84005884 <finaliseCap+0x40>
ffffffff84005974:	ef11                	bnez	a4,ffffffff84005990 <finaliseCap+0x14c>
ffffffff84005976:	17d9                	addi	a5,a5,-10
ffffffff84005978:	4731                	li	a4,12
ffffffff8400597a:	12f76963          	bltu	a4,a5,ffffffff84005aac <finaliseCap+0x268>
ffffffff8400597e:	078a                	slli	a5,a5,0x2
ffffffff84005980:	00006717          	auipc	a4,0x6
ffffffff84005984:	25470713          	addi	a4,a4,596 # ffffffff8400bbd4 <msgRegisters+0x2ac>
ffffffff84005988:	97ba                	add	a5,a5,a4
ffffffff8400598a:	439c                	lw	a5,0(a5)
ffffffff8400598c:	97ba                	add	a5,a5,a4
ffffffff8400598e:	8782                	jr	a5
ffffffff84005990:	8d5fc0ef          	jal	ra,ffffffff84002264 <halt>
ffffffff84005994:	10068c63          	beqz	a3,ffffffff84005aac <finaliseCap+0x268>
ffffffff84005998:	02f4d693          	srli	a3,s1,0x2f
ffffffff8400599c:	03f6f513          	andi	a0,a3,63
ffffffff840059a0:	86aa                	mv	a3,a0
ffffffff840059a2:	4605                	li	a2,1
ffffffff840059a4:	00a615b3          	sll	a1,a2,a0
ffffffff840059a8:	0486                	slli	s1,s1,0x1
ffffffff840059aa:	fc0007b7          	lui	a5,0xfc000
ffffffff840059ae:	83e5                	srli	a5,a5,0x19
ffffffff840059b0:	00f4f733          	and	a4,s1,a5
ffffffff840059b4:	161a                	slli	a2,a2,0x26
ffffffff840059b6:	8cf1                	and	s1,s1,a2
ffffffff840059b8:	c481                	beqz	s1,ffffffff840059c0 <finaliseCap+0x17c>
ffffffff840059ba:	57fd                	li	a5,-1
ffffffff840059bc:	179e                	slli	a5,a5,0x27
ffffffff840059be:	8f5d                	or	a4,a4,a5
ffffffff840059c0:	57e5                	li	a5,-7
ffffffff840059c2:	17f2                	slli	a5,a5,0x3c
ffffffff840059c4:	8fc9                	or	a5,a5,a0
ffffffff840059c6:	e01c                	sd	a5,0(s0)
ffffffff840059c8:	2685                	addiw	a3,a3,1
ffffffff840059ca:	57fd                	li	a5,-1
ffffffff840059cc:	00d797b3          	sll	a5,a5,a3
ffffffff840059d0:	fff7c793          	not	a5,a5
ffffffff840059d4:	00e5c6b3          	xor	a3,a1,a4
ffffffff840059d8:	8ff5                	and	a5,a5,a3
ffffffff840059da:	8fb9                	xor	a5,a5,a4
ffffffff840059dc:	e41c                	sd	a5,8(s0)
ffffffff840059de:	00043823          	sd	zero,16(s0)
ffffffff840059e2:	00043c23          	sd	zero,24(s0)
ffffffff840059e6:	bd79                	j	ffffffff84005884 <finaliseCap+0x40>
ffffffff840059e8:	c2f1                	beqz	a3,ffffffff84005aac <finaliseCap+0x268>
ffffffff840059ea:	01949913          	slli	s2,s1,0x19
ffffffff840059ee:	01995913          	srli	s2,s2,0x19
ffffffff840059f2:	0264d793          	srli	a5,s1,0x26
ffffffff840059f6:	8b85                	andi	a5,a5,1
ffffffff840059f8:	c789                	beqz	a5,ffffffff84005a02 <finaliseCap+0x1be>
ffffffff840059fa:	57fd                	li	a5,-1
ffffffff840059fc:	179e                	slli	a5,a5,0x27
ffffffff840059fe:	00f96933          	or	s2,s2,a5
ffffffff84005a02:	89ca                	mv	s3,s2
ffffffff84005a04:	c0097493          	andi	s1,s2,-1024
ffffffff84005a08:	854a                	mv	a0,s2
ffffffff84005a0a:	af8fe0ef          	jal	ra,ffffffff84003d02 <unbindNotification>
ffffffff84005a0e:	17093783          	ld	a5,368(s2)
ffffffff84005a12:	cb89                	beqz	a5,ffffffff84005a24 <finaliseCap+0x1e0>
ffffffff84005a14:	7f88                	ld	a0,56(a5)
ffffffff84005a16:	f21fe0ef          	jal	ra,ffffffff84004936 <schedContext_completeYieldTo>
ffffffff84005a1a:	85ca                	mv	a1,s2
ffffffff84005a1c:	17093503          	ld	a0,368(s2)
ffffffff84005a20:	dd9ff0ef          	jal	ra,ffffffff840057f8 <schedContext_unbindTCB>
ffffffff84005a24:	854e                	mv	a0,s3
ffffffff84005a26:	d8fff0ef          	jal	ra,ffffffff840057b4 <suspend>
ffffffff84005a2a:	57e5                	li	a5,-7
ffffffff84005a2c:	17f2                	slli	a5,a5,0x3c
ffffffff84005a2e:	04078793          	addi	a5,a5,64 # fffffffffc000040 <ki_end+0x77fdb040>
ffffffff84005a32:	e01c                	sd	a5,0(s0)
ffffffff84005a34:	0054c493          	xori	s1,s1,5
ffffffff84005a38:	e404                	sd	s1,8(s0)
ffffffff84005a3a:	00043823          	sd	zero,16(s0)
ffffffff84005a3e:	00043c23          	sd	zero,24(s0)
ffffffff84005a42:	b589                	j	ffffffff84005884 <finaliseCap+0x40>
ffffffff84005a44:	c6a5                	beqz	a3,ffffffff84005aac <finaliseCap+0x268>
ffffffff84005a46:	01095913          	srli	s2,s2,0x10
ffffffff84005a4a:	01991493          	slli	s1,s2,0x19
ffffffff84005a4e:	80e5                	srli	s1,s1,0x19
ffffffff84005a50:	02695913          	srli	s2,s2,0x26
ffffffff84005a54:	00197793          	andi	a5,s2,1
ffffffff84005a58:	c781                	beqz	a5,ffffffff84005a60 <finaliseCap+0x21c>
ffffffff84005a5a:	57fd                	li	a5,-1
ffffffff84005a5c:	179e                	slli	a5,a5,0x27
ffffffff84005a5e:	8cdd                	or	s1,s1,a5
ffffffff84005a60:	8926                	mv	s2,s1
ffffffff84005a62:	8526                	mv	a0,s1
ffffffff84005a64:	dcdff0ef          	jal	ra,ffffffff84005830 <schedContext_unbindAllTCBs>
ffffffff84005a68:	8526                	mv	a0,s1
ffffffff84005a6a:	d77fe0ef          	jal	ra,ffffffff840047e0 <schedContext_unbindNtfn>
ffffffff84005a6e:	709c                	ld	a5,32(s1)
ffffffff84005a70:	c789                	beqz	a5,ffffffff84005a7a <finaliseCap+0x236>
ffffffff84005a72:	0007b823          	sd	zero,16(a5)
ffffffff84005a76:	0204b023          	sd	zero,32(s1)
ffffffff84005a7a:	03893503          	ld	a0,56(s2)
ffffffff84005a7e:	c119                	beqz	a0,ffffffff84005a84 <finaliseCap+0x240>
ffffffff84005a80:	eb7fe0ef          	jal	ra,ffffffff84004936 <schedContext_completeYieldTo>
ffffffff84005a84:	04093023          	sd	zero,64(s2)
ffffffff84005a88:	00043023          	sd	zero,0(s0)
ffffffff84005a8c:	00043423          	sd	zero,8(s0)
ffffffff84005a90:	00043823          	sd	zero,16(s0)
ffffffff84005a94:	00043c23          	sd	zero,24(s0)
ffffffff84005a98:	b3f5                	j	ffffffff84005884 <finaliseCap+0x40>
ffffffff84005a9a:	e004                	sd	s1,0(s0)
ffffffff84005a9c:	01243423          	sd	s2,8(s0)
ffffffff84005aa0:	00043823          	sd	zero,16(s0)
ffffffff84005aa4:	00043c23          	sd	zero,24(s0)
ffffffff84005aa8:	bbf1                	j	ffffffff84005884 <finaliseCap+0x40>
ffffffff84005aaa:	ea91                	bnez	a3,ffffffff84005abe <finaliseCap+0x27a>
ffffffff84005aac:	00043023          	sd	zero,0(s0)
ffffffff84005ab0:	00043423          	sd	zero,8(s0)
ffffffff84005ab4:	00043823          	sd	zero,16(s0)
ffffffff84005ab8:	00043c23          	sd	zero,24(s0)
ffffffff84005abc:	b3e1                	j	ffffffff84005884 <finaliseCap+0x40>
ffffffff84005abe:	03491513          	slli	a0,s2,0x34
ffffffff84005ac2:	9151                	srli	a0,a0,0x34
ffffffff84005ac4:	162000ef          	jal	ra,ffffffff84005c26 <deletingIRQHandler>
ffffffff84005ac8:	00043023          	sd	zero,0(s0)
ffffffff84005acc:	00043423          	sd	zero,8(s0)
ffffffff84005ad0:	e804                	sd	s1,16(s0)
ffffffff84005ad2:	01243c23          	sd	s2,24(s0)
ffffffff84005ad6:	b37d                	j	ffffffff84005884 <finaliseCap+0x40>

ffffffff84005ad8 <cteDeleteOne>:
ffffffff84005ad8:	611c                	ld	a5,0(a0)
ffffffff84005ada:	93ed                	srli	a5,a5,0x3b
ffffffff84005adc:	e391                	bnez	a5,ffffffff84005ae0 <cteDeleteOne+0x8>
ffffffff84005ade:	8082                	ret
ffffffff84005ae0:	7139                	addi	sp,sp,-64
ffffffff84005ae2:	fc06                	sd	ra,56(sp)
ffffffff84005ae4:	f822                	sd	s0,48(sp)
ffffffff84005ae6:	842a                	mv	s0,a0
ffffffff84005ae8:	ab3fe0ef          	jal	ra,ffffffff8400459a <isFinalCapability>
ffffffff84005aec:	86aa                	mv	a3,a0
ffffffff84005aee:	4705                	li	a4,1
ffffffff84005af0:	600c                	ld	a1,0(s0)
ffffffff84005af2:	6410                	ld	a2,8(s0)
ffffffff84005af4:	850a                	mv	a0,sp
ffffffff84005af6:	d4fff0ef          	jal	ra,ffffffff84005844 <finaliseCap>
ffffffff84005afa:	4581                	li	a1,0
ffffffff84005afc:	4601                	li	a2,0
ffffffff84005afe:	8522                	mv	a0,s0
ffffffff84005b00:	95cfe0ef          	jal	ra,ffffffff84003c5c <emptySlot>
ffffffff84005b04:	70e2                	ld	ra,56(sp)
ffffffff84005b06:	7442                	ld	s0,48(sp)
ffffffff84005b08:	6121                	addi	sp,sp,64
ffffffff84005b0a:	8082                	ret

ffffffff84005b0c <invokeIRQHandler_SetIRQHandler>:
ffffffff84005b0c:	7179                	addi	sp,sp,-48
ffffffff84005b0e:	f406                	sd	ra,40(sp)
ffffffff84005b10:	f022                	sd	s0,32(sp)
ffffffff84005b12:	ec26                	sd	s1,24(sp)
ffffffff84005b14:	e02e                	sd	a1,0(sp)
ffffffff84005b16:	e432                	sd	a2,8(sp)
ffffffff84005b18:	84b6                	mv	s1,a3
ffffffff84005b1a:	0516                	slli	a0,a0,0x5
ffffffff84005b1c:	00008417          	auipc	s0,0x8
ffffffff84005b20:	4e440413          	addi	s0,s0,1252 # ffffffff8400e000 <intStateIRQNode>
ffffffff84005b24:	942a                	add	s0,s0,a0
ffffffff84005b26:	8522                	mv	a0,s0
ffffffff84005b28:	fb1ff0ef          	jal	ra,ffffffff84005ad8 <cteDeleteOne>
ffffffff84005b2c:	86a2                	mv	a3,s0
ffffffff84005b2e:	8626                	mv	a2,s1
ffffffff84005b30:	6502                	ld	a0,0(sp)
ffffffff84005b32:	65a2                	ld	a1,8(sp)
ffffffff84005b34:	b51fe0ef          	jal	ra,ffffffff84004684 <cteInsert>
ffffffff84005b38:	70a2                	ld	ra,40(sp)
ffffffff84005b3a:	7402                	ld	s0,32(sp)
ffffffff84005b3c:	64e2                	ld	s1,24(sp)
ffffffff84005b3e:	6145                	addi	sp,sp,48
ffffffff84005b40:	8082                	ret

ffffffff84005b42 <invokeIRQHandler_ClearIRQHandler>:
ffffffff84005b42:	1141                	addi	sp,sp,-16
ffffffff84005b44:	e406                	sd	ra,8(sp)
ffffffff84005b46:	0516                	slli	a0,a0,0x5
ffffffff84005b48:	00008797          	auipc	a5,0x8
ffffffff84005b4c:	4b878793          	addi	a5,a5,1208 # ffffffff8400e000 <intStateIRQNode>
ffffffff84005b50:	953e                	add	a0,a0,a5
ffffffff84005b52:	f87ff0ef          	jal	ra,ffffffff84005ad8 <cteDeleteOne>
ffffffff84005b56:	60a2                	ld	ra,8(sp)
ffffffff84005b58:	0141                	addi	sp,sp,16
ffffffff84005b5a:	8082                	ret

ffffffff84005b5c <decodeIRQHandlerInvocation>:
ffffffff84005b5c:	7179                	addi	sp,sp,-48
ffffffff84005b5e:	f406                	sd	ra,40(sp)
ffffffff84005b60:	f022                	sd	s0,32(sp)
ffffffff84005b62:	ec26                	sd	s1,24(sp)
ffffffff84005b64:	842e                	mv	s0,a1
ffffffff84005b66:	47ed                	li	a5,27
ffffffff84005b68:	04f50163          	beq	a0,a5,ffffffff84005baa <decodeIRQHandlerInvocation+0x4e>
ffffffff84005b6c:	47f1                	li	a5,28
ffffffff84005b6e:	0af50063          	beq	a0,a5,ffffffff84005c0e <decodeIRQHandlerInvocation+0xb2>
ffffffff84005b72:	47e9                	li	a5,26
ffffffff84005b74:	00f50963          	beq	a0,a5,ffffffff84005b86 <decodeIRQHandlerInvocation+0x2a>
ffffffff84005b78:	478d                	li	a5,3
ffffffff84005b7a:	00008717          	auipc	a4,0x8
ffffffff84005b7e:	8cf73323          	sd	a5,-1850(a4) # ffffffff8400d440 <current_syscall_error+0x30>
ffffffff84005b82:	450d                	li	a0,3
ffffffff84005b84:	a831                	j	ffffffff84005ba0 <decodeIRQHandlerInvocation+0x44>
ffffffff84005b86:	4589                	li	a1,2
ffffffff84005b88:	0001a517          	auipc	a0,0x1a
ffffffff84005b8c:	cd053503          	ld	a0,-816(a0) # ffffffff8401f858 <ksCurThread>
ffffffff84005b90:	f0ffe0ef          	jal	ra,ffffffff84004a9e <setThreadState>
ffffffff84005b94:	0004059b          	sext.w	a1,s0
ffffffff84005b98:	c02027b7          	lui	a5,0xc0202
ffffffff84005b9c:	c3cc                	sw	a1,4(a5)
ffffffff84005b9e:	4501                	li	a0,0
ffffffff84005ba0:	70a2                	ld	ra,40(sp)
ffffffff84005ba2:	7402                	ld	s0,32(sp)
ffffffff84005ba4:	64e2                	ld	s1,24(sp)
ffffffff84005ba6:	6145                	addi	sp,sp,48
ffffffff84005ba8:	8082                	ret
ffffffff84005baa:	00008497          	auipc	s1,0x8
ffffffff84005bae:	ce64b483          	ld	s1,-794(s1) # ffffffff8400d890 <current_extra_caps>
ffffffff84005bb2:	c885                	beqz	s1,ffffffff84005be2 <decodeIRQHandlerInvocation+0x86>
ffffffff84005bb4:	609c                	ld	a5,0(s1)
ffffffff84005bb6:	e03e                	sd	a5,0(sp)
ffffffff84005bb8:	6498                	ld	a4,8(s1)
ffffffff84005bba:	e43a                	sd	a4,8(sp)
ffffffff84005bbc:	03b7d693          	srli	a3,a5,0x3b
ffffffff84005bc0:	4719                	li	a4,6
ffffffff84005bc2:	00e69563          	bne	a3,a4,ffffffff84005bcc <decodeIRQHandlerInvocation+0x70>
ffffffff84005bc6:	93e5                	srli	a5,a5,0x39
ffffffff84005bc8:	8b85                	andi	a5,a5,1
ffffffff84005bca:	e39d                	bnez	a5,ffffffff84005bf0 <decodeIRQHandlerInvocation+0x94>
ffffffff84005bcc:	00007797          	auipc	a5,0x7
ffffffff84005bd0:	43478793          	addi	a5,a5,1076 # ffffffff8400d000 <riscvKSASIDTable>
ffffffff84005bd4:	4709                	li	a4,2
ffffffff84005bd6:	44e7b023          	sd	a4,1088(a5)
ffffffff84005bda:	4007bc23          	sd	zero,1048(a5)
ffffffff84005bde:	450d                	li	a0,3
ffffffff84005be0:	b7c1                	j	ffffffff84005ba0 <decodeIRQHandlerInvocation+0x44>
ffffffff84005be2:	479d                	li	a5,7
ffffffff84005be4:	00008717          	auipc	a4,0x8
ffffffff84005be8:	84f73e23          	sd	a5,-1956(a4) # ffffffff8400d440 <current_syscall_error+0x30>
ffffffff84005bec:	450d                	li	a0,3
ffffffff84005bee:	bf4d                	j	ffffffff84005ba0 <decodeIRQHandlerInvocation+0x44>
ffffffff84005bf0:	4589                	li	a1,2
ffffffff84005bf2:	0001a517          	auipc	a0,0x1a
ffffffff84005bf6:	c6653503          	ld	a0,-922(a0) # ffffffff8401f858 <ksCurThread>
ffffffff84005bfa:	ea5fe0ef          	jal	ra,ffffffff84004a9e <setThreadState>
ffffffff84005bfe:	86a6                	mv	a3,s1
ffffffff84005c00:	6582                	ld	a1,0(sp)
ffffffff84005c02:	6622                	ld	a2,8(sp)
ffffffff84005c04:	8522                	mv	a0,s0
ffffffff84005c06:	f07ff0ef          	jal	ra,ffffffff84005b0c <invokeIRQHandler_SetIRQHandler>
ffffffff84005c0a:	4501                	li	a0,0
ffffffff84005c0c:	bf51                	j	ffffffff84005ba0 <decodeIRQHandlerInvocation+0x44>
ffffffff84005c0e:	4589                	li	a1,2
ffffffff84005c10:	0001a517          	auipc	a0,0x1a
ffffffff84005c14:	c4853503          	ld	a0,-952(a0) # ffffffff8401f858 <ksCurThread>
ffffffff84005c18:	e87fe0ef          	jal	ra,ffffffff84004a9e <setThreadState>
ffffffff84005c1c:	8522                	mv	a0,s0
ffffffff84005c1e:	f25ff0ef          	jal	ra,ffffffff84005b42 <invokeIRQHandler_ClearIRQHandler>
ffffffff84005c22:	4501                	li	a0,0
ffffffff84005c24:	bfb5                	j	ffffffff84005ba0 <decodeIRQHandlerInvocation+0x44>

ffffffff84005c26 <deletingIRQHandler>:
ffffffff84005c26:	1141                	addi	sp,sp,-16
ffffffff84005c28:	e406                	sd	ra,8(sp)
ffffffff84005c2a:	0516                	slli	a0,a0,0x5
ffffffff84005c2c:	00008797          	auipc	a5,0x8
ffffffff84005c30:	3d478793          	addi	a5,a5,980 # ffffffff8400e000 <intStateIRQNode>
ffffffff84005c34:	953e                	add	a0,a0,a5
ffffffff84005c36:	ea3ff0ef          	jal	ra,ffffffff84005ad8 <cteDeleteOne>
ffffffff84005c3a:	60a2                	ld	ra,8(sp)
ffffffff84005c3c:	0141                	addi	sp,sp,16
ffffffff84005c3e:	8082                	ret

ffffffff84005c40 <tcbReleaseEnqueue>:
ffffffff84005c40:	0001a717          	auipc	a4,0x1a
ffffffff84005c44:	c2073703          	ld	a4,-992(a4) # ffffffff8401f860 <ksReleaseHead>
ffffffff84005c48:	c339                	beqz	a4,ffffffff84005c8e <tcbReleaseEnqueue+0x4e>
ffffffff84005c4a:	17053783          	ld	a5,368(a0)
ffffffff84005c4e:	67b4                	ld	a3,72(a5)
ffffffff84005c50:	0692                	slli	a3,a3,0x4
ffffffff84005c52:	97b6                	add	a5,a5,a3
ffffffff84005c54:	6fac                	ld	a1,88(a5)
ffffffff84005c56:	4601                	li	a2,0
ffffffff84005c58:	17073783          	ld	a5,368(a4)
ffffffff84005c5c:	67b4                	ld	a3,72(a5)
ffffffff84005c5e:	0692                	slli	a3,a3,0x4
ffffffff84005c60:	97b6                	add	a5,a5,a3
ffffffff84005c62:	6fbc                	ld	a5,88(a5)
ffffffff84005c64:	00f5e863          	bltu	a1,a5,ffffffff84005c74 <tcbReleaseEnqueue+0x34>
ffffffff84005c68:	18873783          	ld	a5,392(a4)
ffffffff84005c6c:	863a                	mv	a2,a4
ffffffff84005c6e:	c785                	beqz	a5,ffffffff84005c96 <tcbReleaseEnqueue+0x56>
ffffffff84005c70:	873e                	mv	a4,a5
ffffffff84005c72:	b7dd                	j	ffffffff84005c58 <tcbReleaseEnqueue+0x18>
ffffffff84005c74:	ee19                	bnez	a2,ffffffff84005c92 <tcbReleaseEnqueue+0x52>
ffffffff84005c76:	0001a797          	auipc	a5,0x1a
ffffffff84005c7a:	bea7b523          	sd	a0,-1046(a5) # ffffffff8401f860 <ksReleaseHead>
ffffffff84005c7e:	4785                	li	a5,1
ffffffff84005c80:	0001a697          	auipc	a3,0x1a
ffffffff84005c84:	baf6bc23          	sd	a5,-1096(a3) # ffffffff8401f838 <ksReprogram>
ffffffff84005c88:	87ba                	mv	a5,a4
ffffffff84005c8a:	8732                	mv	a4,a2
ffffffff84005c8c:	a039                	j	ffffffff84005c9a <tcbReleaseEnqueue+0x5a>
ffffffff84005c8e:	863a                	mv	a2,a4
ffffffff84005c90:	b7dd                	j	ffffffff84005c76 <tcbReleaseEnqueue+0x36>
ffffffff84005c92:	87ba                	mv	a5,a4
ffffffff84005c94:	8732                	mv	a4,a2
ffffffff84005c96:	18a73423          	sd	a0,392(a4)
ffffffff84005c9a:	c399                	beqz	a5,ffffffff84005ca0 <tcbReleaseEnqueue+0x60>
ffffffff84005c9c:	18a7b823          	sd	a0,400(a5)
ffffffff84005ca0:	18f53423          	sd	a5,392(a0)
ffffffff84005ca4:	18e53823          	sd	a4,400(a0)
ffffffff84005ca8:	12053783          	ld	a5,288(a0)
ffffffff84005cac:	0017e793          	ori	a5,a5,1
ffffffff84005cb0:	12f53023          	sd	a5,288(a0)
ffffffff84005cb4:	8082                	ret

ffffffff84005cb6 <postpone>:
ffffffff84005cb6:	1141                	addi	sp,sp,-16
ffffffff84005cb8:	e406                	sd	ra,8(sp)
ffffffff84005cba:	e022                	sd	s0,0(sp)
ffffffff84005cbc:	842a                	mv	s0,a0
ffffffff84005cbe:	6d08                	ld	a0,24(a0)
ffffffff84005cc0:	a80ff0ef          	jal	ra,ffffffff84004f40 <tcbSchedDequeue>
ffffffff84005cc4:	6c08                	ld	a0,24(s0)
ffffffff84005cc6:	f7bff0ef          	jal	ra,ffffffff84005c40 <tcbReleaseEnqueue>
ffffffff84005cca:	4785                	li	a5,1
ffffffff84005ccc:	0001a717          	auipc	a4,0x1a
ffffffff84005cd0:	b6f73623          	sd	a5,-1172(a4) # ffffffff8401f838 <ksReprogram>
ffffffff84005cd4:	60a2                	ld	ra,8(sp)
ffffffff84005cd6:	6402                	ld	s0,0(sp)
ffffffff84005cd8:	0141                	addi	sp,sp,16
ffffffff84005cda:	8082                	ret

ffffffff84005cdc <schedContext_resume>:
ffffffff84005cdc:	c909                	beqz	a0,ffffffff84005cee <schedContext_resume+0x12>
ffffffff84005cde:	6d18                	ld	a4,24(a0)
ffffffff84005ce0:	11873783          	ld	a5,280(a4)
ffffffff84005ce4:	8bbd                	andi	a5,a5,15
ffffffff84005ce6:	17fd                	addi	a5,a5,-1
ffffffff84005ce8:	4685                	li	a3,1
ffffffff84005cea:	00f6f363          	bgeu	a3,a5,ffffffff84005cf0 <schedContext_resume+0x14>
ffffffff84005cee:	8082                	ret
ffffffff84005cf0:	17073783          	ld	a5,368(a4)
ffffffff84005cf4:	dfed                	beqz	a5,ffffffff84005cee <schedContext_resume+0x12>
ffffffff84005cf6:	63bc                	ld	a5,64(a5)
ffffffff84005cf8:	dbfd                	beqz	a5,ffffffff84005cee <schedContext_resume+0x12>
ffffffff84005cfa:	12073783          	ld	a5,288(a4)
ffffffff84005cfe:	8b85                	andi	a5,a5,1
ffffffff84005d00:	f7fd                	bnez	a5,ffffffff84005cee <schedContext_resume+0x12>
ffffffff84005d02:	653c                	ld	a5,72(a0)
ffffffff84005d04:	0792                	slli	a5,a5,0x4
ffffffff84005d06:	05850713          	addi	a4,a0,88
ffffffff84005d0a:	97ba                	add	a5,a5,a4
ffffffff84005d0c:	0001a717          	auipc	a4,0x1a
ffffffff84005d10:	b2473703          	ld	a4,-1244(a4) # ffffffff8401f830 <ksCurTime>
ffffffff84005d14:	0729                	addi	a4,a4,10
ffffffff84005d16:	6394                	ld	a3,0(a5)
ffffffff84005d18:	00d76663          	bltu	a4,a3,ffffffff84005d24 <schedContext_resume+0x48>
ffffffff84005d1c:	6798                	ld	a4,8(a5)
ffffffff84005d1e:	47cd                	li	a5,19
ffffffff84005d20:	fce7e7e3          	bltu	a5,a4,ffffffff84005cee <schedContext_resume+0x12>
ffffffff84005d24:	1141                	addi	sp,sp,-16
ffffffff84005d26:	e406                	sd	ra,8(sp)
ffffffff84005d28:	f8fff0ef          	jal	ra,ffffffff84005cb6 <postpone>
ffffffff84005d2c:	60a2                	ld	ra,8(sp)
ffffffff84005d2e:	0141                	addi	sp,sp,16
ffffffff84005d30:	8082                	ret

ffffffff84005d32 <restart>:
ffffffff84005d32:	1141                	addi	sp,sp,-16
ffffffff84005d34:	e406                	sd	ra,8(sp)
ffffffff84005d36:	e022                	sd	s0,0(sp)
ffffffff84005d38:	842a                	mv	s0,a0
ffffffff84005d3a:	11853783          	ld	a5,280(a0)
ffffffff84005d3e:	8bbd                	andi	a5,a5,15
ffffffff84005d40:	c789                	beqz	a5,ffffffff84005d4a <restart+0x18>
ffffffff84005d42:	17f5                	addi	a5,a5,-3
ffffffff84005d44:	470d                	li	a4,3
ffffffff84005d46:	02f76463          	bltu	a4,a5,ffffffff84005d6e <restart+0x3c>
ffffffff84005d4a:	8522                	mv	a0,s0
ffffffff84005d4c:	fc8ff0ef          	jal	ra,ffffffff84005514 <cancelIPC>
ffffffff84005d50:	4589                	li	a1,2
ffffffff84005d52:	8522                	mv	a0,s0
ffffffff84005d54:	d4bfe0ef          	jal	ra,ffffffff84004a9e <setThreadState>
ffffffff84005d58:	17043503          	ld	a0,368(s0)
ffffffff84005d5c:	f81ff0ef          	jal	ra,ffffffff84005cdc <schedContext_resume>
ffffffff84005d60:	11843783          	ld	a5,280(s0)
ffffffff84005d64:	8bbd                	andi	a5,a5,15
ffffffff84005d66:	17fd                	addi	a5,a5,-1
ffffffff84005d68:	4705                	li	a4,1
ffffffff84005d6a:	00f77663          	bgeu	a4,a5,ffffffff84005d76 <restart+0x44>
ffffffff84005d6e:	60a2                	ld	ra,8(sp)
ffffffff84005d70:	6402                	ld	s0,0(sp)
ffffffff84005d72:	0141                	addi	sp,sp,16
ffffffff84005d74:	8082                	ret
ffffffff84005d76:	17043783          	ld	a5,368(s0)
ffffffff84005d7a:	dbf5                	beqz	a5,ffffffff84005d6e <restart+0x3c>
ffffffff84005d7c:	63bc                	ld	a5,64(a5)
ffffffff84005d7e:	dbe5                	beqz	a5,ffffffff84005d6e <restart+0x3c>
ffffffff84005d80:	12043783          	ld	a5,288(s0)
ffffffff84005d84:	8b85                	andi	a5,a5,1
ffffffff84005d86:	f7e5                	bnez	a5,ffffffff84005d6e <restart+0x3c>
ffffffff84005d88:	8522                	mv	a0,s0
ffffffff84005d8a:	fb9fe0ef          	jal	ra,ffffffff84004d42 <possibleSwitchTo>
ffffffff84005d8e:	b7c5                	j	ffffffff84005d6e <restart+0x3c>

ffffffff84005d90 <schedContext_bindTCB>:
ffffffff84005d90:	1141                	addi	sp,sp,-16
ffffffff84005d92:	e406                	sd	ra,8(sp)
ffffffff84005d94:	e022                	sd	s0,0(sp)
ffffffff84005d96:	842e                	mv	s0,a1
ffffffff84005d98:	16a5b823          	sd	a0,368(a1) # ffffffffe0000170 <ki_end+0x5bfdb170>
ffffffff84005d9c:	ed0c                	sd	a1,24(a0)
ffffffff84005d9e:	f3fff0ef          	jal	ra,ffffffff84005cdc <schedContext_resume>
ffffffff84005da2:	11843783          	ld	a5,280(s0)
ffffffff84005da6:	8bbd                	andi	a5,a5,15
ffffffff84005da8:	17fd                	addi	a5,a5,-1
ffffffff84005daa:	4705                	li	a4,1
ffffffff84005dac:	00f77663          	bgeu	a4,a5,ffffffff84005db8 <schedContext_bindTCB+0x28>
ffffffff84005db0:	60a2                	ld	ra,8(sp)
ffffffff84005db2:	6402                	ld	s0,0(sp)
ffffffff84005db4:	0141                	addi	sp,sp,16
ffffffff84005db6:	8082                	ret
ffffffff84005db8:	17043783          	ld	a5,368(s0)
ffffffff84005dbc:	dbf5                	beqz	a5,ffffffff84005db0 <schedContext_bindTCB+0x20>
ffffffff84005dbe:	63bc                	ld	a5,64(a5)
ffffffff84005dc0:	dbe5                	beqz	a5,ffffffff84005db0 <schedContext_bindTCB+0x20>
ffffffff84005dc2:	12043783          	ld	a5,288(s0)
ffffffff84005dc6:	8b85                	andi	a5,a5,1
ffffffff84005dc8:	f7e5                	bnez	a5,ffffffff84005db0 <schedContext_bindTCB+0x20>
ffffffff84005dca:	8522                	mv	a0,s0
ffffffff84005dcc:	b9dfe0ef          	jal	ra,ffffffff84004968 <tcbSchedEnqueue>
ffffffff84005dd0:	c35fe0ef          	jal	ra,ffffffff84004a04 <rescheduleRequired>
ffffffff84005dd4:	bff1                	j	ffffffff84005db0 <schedContext_bindTCB+0x20>

ffffffff84005dd6 <decodeSchedContextInvocation>:
ffffffff84005dd6:	7179                	addi	sp,sp,-48
ffffffff84005dd8:	f406                	sd	ra,40(sp)
ffffffff84005dda:	f022                	sd	s0,32(sp)
ffffffff84005ddc:	ec26                	sd	s1,24(sp)
ffffffff84005dde:	e02e                	sd	a1,0(sp)
ffffffff84005de0:	e432                	sd	a2,8(sp)
ffffffff84005de2:	8241                	srli	a2,a2,0x10
ffffffff84005de4:	01961793          	slli	a5,a2,0x19
ffffffff84005de8:	83e5                	srli	a5,a5,0x19
ffffffff84005dea:	9219                	srli	a2,a2,0x26
ffffffff84005dec:	8a05                	andi	a2,a2,1
ffffffff84005dee:	c601                	beqz	a2,ffffffff84005df6 <decodeSchedContextInvocation+0x20>
ffffffff84005df0:	577d                	li	a4,-1
ffffffff84005df2:	171e                	slli	a4,a4,0x27
ffffffff84005df4:	8fd9                	or	a5,a5,a4
ffffffff84005df6:	843e                	mv	s0,a5
ffffffff84005df8:	fe150793          	addi	a5,a0,-31
ffffffff84005dfc:	4711                	li	a4,4
ffffffff84005dfe:	30f76063          	bltu	a4,a5,ffffffff840060fe <decodeSchedContextInvocation+0x328>
ffffffff84005e02:	078a                	slli	a5,a5,0x2
ffffffff84005e04:	00006717          	auipc	a4,0x6
ffffffff84005e08:	e0470713          	addi	a4,a4,-508 # ffffffff8400bc08 <msgRegisters+0x2e0>
ffffffff84005e0c:	97ba                	add	a5,a5,a4
ffffffff84005e0e:	439c                	lw	a5,0(a5)
ffffffff84005e10:	97ba                	add	a5,a5,a4
ffffffff84005e12:	8782                	jr	a5
ffffffff84005e14:	0001a497          	auipc	s1,0x1a
ffffffff84005e18:	a4448493          	addi	s1,s1,-1468 # ffffffff8401f858 <ksCurThread>
ffffffff84005e1c:	4589                	li	a1,2
ffffffff84005e1e:	6088                	ld	a0,0(s1)
ffffffff84005e20:	c7ffe0ef          	jal	ra,ffffffff84004a9e <setThreadState>
ffffffff84005e24:	8522                	mv	a0,s0
ffffffff84005e26:	9cffe0ef          	jal	ra,ffffffff840047f4 <schedContext_updateConsumed>
ffffffff84005e2a:	609c                	ld	a5,0(s1)
ffffffff84005e2c:	efa8                	sd	a0,88(a5)
ffffffff84005e2e:	4705                	li	a4,1
ffffffff84005e30:	ebb8                	sd	a4,80(a5)
ffffffff84005e32:	4481                	li	s1,0
ffffffff84005e34:	8526                	mv	a0,s1
ffffffff84005e36:	70a2                	ld	ra,40(sp)
ffffffff84005e38:	7402                	ld	s0,32(sp)
ffffffff84005e3a:	64e2                	ld	s1,24(sp)
ffffffff84005e3c:	6145                	addi	sp,sp,48
ffffffff84005e3e:	8082                	ret
ffffffff84005e40:	00008797          	auipc	a5,0x8
ffffffff84005e44:	a507b783          	ld	a5,-1456(a5) # ffffffff8400d890 <current_extra_caps>
ffffffff84005e48:	cbb9                	beqz	a5,ffffffff84005e9e <decodeSchedContextInvocation+0xc8>
ffffffff84005e4a:	6c18                	ld	a4,24(s0)
ffffffff84005e4c:	e325                	bnez	a4,ffffffff84005eac <decodeSchedContextInvocation+0xd6>
ffffffff84005e4e:	7418                	ld	a4,40(s0)
ffffffff84005e50:	ef31                	bnez	a4,ffffffff84005eac <decodeSchedContextInvocation+0xd6>
ffffffff84005e52:	639c                	ld	a5,0(a5)
ffffffff84005e54:	03b7d713          	srli	a4,a5,0x3b
ffffffff84005e58:	4699                	li	a3,6
ffffffff84005e5a:	06d70763          	beq	a4,a3,ffffffff84005ec8 <decodeSchedContextInvocation+0xf2>
ffffffff84005e5e:	46b1                	li	a3,12
ffffffff84005e60:	08d71b63          	bne	a4,a3,ffffffff84005ef6 <decodeSchedContextInvocation+0x120>
ffffffff84005e64:	01979493          	slli	s1,a5,0x19
ffffffff84005e68:	80e5                	srli	s1,s1,0x19
ffffffff84005e6a:	9399                	srli	a5,a5,0x26
ffffffff84005e6c:	8b85                	andi	a5,a5,1
ffffffff84005e6e:	28078f63          	beqz	a5,ffffffff8400610c <decodeSchedContextInvocation+0x336>
ffffffff84005e72:	57fd                	li	a5,-1
ffffffff84005e74:	179e                	slli	a5,a5,0x27
ffffffff84005e76:	8fc5                	or	a5,a5,s1
ffffffff84005e78:	1707b783          	ld	a5,368(a5)
ffffffff84005e7c:	ef9d                	bnez	a5,ffffffff84005eba <decodeSchedContextInvocation+0xe4>
ffffffff84005e7e:	4589                	li	a1,2
ffffffff84005e80:	0001a517          	auipc	a0,0x1a
ffffffff84005e84:	9d853503          	ld	a0,-1576(a0) # ffffffff8401f858 <ksCurThread>
ffffffff84005e88:	c17fe0ef          	jal	ra,ffffffff84004a9e <setThreadState>
ffffffff84005e8c:	57fd                	li	a5,-1
ffffffff84005e8e:	179e                	slli	a5,a5,0x27
ffffffff84005e90:	8cdd                	or	s1,s1,a5
ffffffff84005e92:	85a6                	mv	a1,s1
ffffffff84005e94:	8522                	mv	a0,s0
ffffffff84005e96:	efbff0ef          	jal	ra,ffffffff84005d90 <schedContext_bindTCB>
ffffffff84005e9a:	4481                	li	s1,0
ffffffff84005e9c:	bf61                	j	ffffffff84005e34 <decodeSchedContextInvocation+0x5e>
ffffffff84005e9e:	479d                	li	a5,7
ffffffff84005ea0:	00007717          	auipc	a4,0x7
ffffffff84005ea4:	5af73023          	sd	a5,1440(a4) # ffffffff8400d440 <current_syscall_error+0x30>
ffffffff84005ea8:	448d                	li	s1,3
ffffffff84005eaa:	b769                	j	ffffffff84005e34 <decodeSchedContextInvocation+0x5e>
ffffffff84005eac:	478d                	li	a5,3
ffffffff84005eae:	00007717          	auipc	a4,0x7
ffffffff84005eb2:	58f73923          	sd	a5,1426(a4) # ffffffff8400d440 <current_syscall_error+0x30>
ffffffff84005eb6:	448d                	li	s1,3
ffffffff84005eb8:	bfb5                	j	ffffffff84005e34 <decodeSchedContextInvocation+0x5e>
ffffffff84005eba:	478d                	li	a5,3
ffffffff84005ebc:	00007717          	auipc	a4,0x7
ffffffff84005ec0:	58f73223          	sd	a5,1412(a4) # ffffffff8400d440 <current_syscall_error+0x30>
ffffffff84005ec4:	448d                	li	s1,3
ffffffff84005ec6:	b7bd                	j	ffffffff84005e34 <decodeSchedContextInvocation+0x5e>
ffffffff84005ec8:	01979493          	slli	s1,a5,0x19
ffffffff84005ecc:	80e5                	srli	s1,s1,0x19
ffffffff84005ece:	9399                	srli	a5,a5,0x26
ffffffff84005ed0:	8b85                	andi	a5,a5,1
ffffffff84005ed2:	26078863          	beqz	a5,ffffffff84006142 <decodeSchedContextInvocation+0x36c>
ffffffff84005ed6:	57fd                	li	a5,-1
ffffffff84005ed8:	02779713          	slli	a4,a5,0x27
ffffffff84005edc:	8f45                	or	a4,a4,s1
ffffffff84005ede:	7318                	ld	a4,32(a4)
ffffffff84005ee0:	83e5                	srli	a5,a5,0x19
ffffffff84005ee2:	8ff9                	and	a5,a5,a4
ffffffff84005ee4:	24078063          	beqz	a5,ffffffff84006124 <decodeSchedContextInvocation+0x34e>
ffffffff84005ee8:	478d                	li	a5,3
ffffffff84005eea:	00007717          	auipc	a4,0x7
ffffffff84005eee:	54f73b23          	sd	a5,1366(a4) # ffffffff8400d440 <current_syscall_error+0x30>
ffffffff84005ef2:	448d                	li	s1,3
ffffffff84005ef4:	b781                	j	ffffffff84005e34 <decodeSchedContextInvocation+0x5e>
ffffffff84005ef6:	00007797          	auipc	a5,0x7
ffffffff84005efa:	10a78793          	addi	a5,a5,266 # ffffffff8400d000 <riscvKSASIDTable>
ffffffff84005efe:	4709                	li	a4,2
ffffffff84005f00:	44e7b023          	sd	a4,1088(a5)
ffffffff84005f04:	4705                	li	a4,1
ffffffff84005f06:	40e7bc23          	sd	a4,1048(a5)
ffffffff84005f0a:	448d                	li	s1,3
ffffffff84005f0c:	b725                	j	ffffffff84005e34 <decodeSchedContextInvocation+0x5e>
ffffffff84005f0e:	00008797          	auipc	a5,0x8
ffffffff84005f12:	9827b783          	ld	a5,-1662(a5) # ffffffff8400d890 <current_extra_caps>
ffffffff84005f16:	c7a1                	beqz	a5,ffffffff84005f5e <decodeSchedContextInvocation+0x188>
ffffffff84005f18:	639c                	ld	a5,0(a5)
ffffffff84005f1a:	03b7d713          	srli	a4,a5,0x3b
ffffffff84005f1e:	4699                	li	a3,6
ffffffff84005f20:	06d70463          	beq	a4,a3,ffffffff84005f88 <decodeSchedContextInvocation+0x1b2>
ffffffff84005f24:	46b1                	li	a3,12
ffffffff84005f26:	0ad71063          	bne	a4,a3,ffffffff84005fc6 <decodeSchedContextInvocation+0x1f0>
ffffffff84005f2a:	6c14                	ld	a3,24(s0)
ffffffff84005f2c:	01979713          	slli	a4,a5,0x19
ffffffff84005f30:	8365                	srli	a4,a4,0x19
ffffffff84005f32:	9399                	srli	a5,a5,0x26
ffffffff84005f34:	8b85                	andi	a5,a5,1
ffffffff84005f36:	c781                	beqz	a5,ffffffff84005f3e <decodeSchedContextInvocation+0x168>
ffffffff84005f38:	57fd                	li	a5,-1
ffffffff84005f3a:	179e                	slli	a5,a5,0x27
ffffffff84005f3c:	8f5d                	or	a4,a4,a5
ffffffff84005f3e:	02e69763          	bne	a3,a4,ffffffff84005f6c <decodeSchedContextInvocation+0x196>
ffffffff84005f42:	0001a517          	auipc	a0,0x1a
ffffffff84005f46:	91653503          	ld	a0,-1770(a0) # ffffffff8401f858 <ksCurThread>
ffffffff84005f4a:	02a68863          	beq	a3,a0,ffffffff84005f7a <decodeSchedContextInvocation+0x1a4>
ffffffff84005f4e:	4589                	li	a1,2
ffffffff84005f50:	b4ffe0ef          	jal	ra,ffffffff84004a9e <setThreadState>
ffffffff84005f54:	6c0c                	ld	a1,24(s0)
ffffffff84005f56:	8522                	mv	a0,s0
ffffffff84005f58:	8a1ff0ef          	jal	ra,ffffffff840057f8 <schedContext_unbindTCB>
ffffffff84005f5c:	a8a1                	j	ffffffff84005fb4 <decodeSchedContextInvocation+0x1de>
ffffffff84005f5e:	479d                	li	a5,7
ffffffff84005f60:	00007717          	auipc	a4,0x7
ffffffff84005f64:	4ef73023          	sd	a5,1248(a4) # ffffffff8400d440 <current_syscall_error+0x30>
ffffffff84005f68:	448d                	li	s1,3
ffffffff84005f6a:	b5e9                	j	ffffffff84005e34 <decodeSchedContextInvocation+0x5e>
ffffffff84005f6c:	478d                	li	a5,3
ffffffff84005f6e:	00007717          	auipc	a4,0x7
ffffffff84005f72:	4cf73923          	sd	a5,1234(a4) # ffffffff8400d440 <current_syscall_error+0x30>
ffffffff84005f76:	448d                	li	s1,3
ffffffff84005f78:	bd75                	j	ffffffff84005e34 <decodeSchedContextInvocation+0x5e>
ffffffff84005f7a:	478d                	li	a5,3
ffffffff84005f7c:	00007717          	auipc	a4,0x7
ffffffff84005f80:	4cf73223          	sd	a5,1220(a4) # ffffffff8400d440 <current_syscall_error+0x30>
ffffffff84005f84:	448d                	li	s1,3
ffffffff84005f86:	b57d                	j	ffffffff84005e34 <decodeSchedContextInvocation+0x5e>
ffffffff84005f88:	7414                	ld	a3,40(s0)
ffffffff84005f8a:	01979713          	slli	a4,a5,0x19
ffffffff84005f8e:	8365                	srli	a4,a4,0x19
ffffffff84005f90:	9399                	srli	a5,a5,0x26
ffffffff84005f92:	8b85                	andi	a5,a5,1
ffffffff84005f94:	c781                	beqz	a5,ffffffff84005f9c <decodeSchedContextInvocation+0x1c6>
ffffffff84005f96:	57fd                	li	a5,-1
ffffffff84005f98:	179e                	slli	a5,a5,0x27
ffffffff84005f9a:	8f5d                	or	a4,a4,a5
ffffffff84005f9c:	00e69e63          	bne	a3,a4,ffffffff84005fb8 <decodeSchedContextInvocation+0x1e2>
ffffffff84005fa0:	4589                	li	a1,2
ffffffff84005fa2:	0001a517          	auipc	a0,0x1a
ffffffff84005fa6:	8b653503          	ld	a0,-1866(a0) # ffffffff8401f858 <ksCurThread>
ffffffff84005faa:	af5fe0ef          	jal	ra,ffffffff84004a9e <setThreadState>
ffffffff84005fae:	8522                	mv	a0,s0
ffffffff84005fb0:	831fe0ef          	jal	ra,ffffffff840047e0 <schedContext_unbindNtfn>
ffffffff84005fb4:	4481                	li	s1,0
ffffffff84005fb6:	bdbd                	j	ffffffff84005e34 <decodeSchedContextInvocation+0x5e>
ffffffff84005fb8:	478d                	li	a5,3
ffffffff84005fba:	00007717          	auipc	a4,0x7
ffffffff84005fbe:	48f73323          	sd	a5,1158(a4) # ffffffff8400d440 <current_syscall_error+0x30>
ffffffff84005fc2:	448d                	li	s1,3
ffffffff84005fc4:	bd85                	j	ffffffff84005e34 <decodeSchedContextInvocation+0x5e>
ffffffff84005fc6:	00007797          	auipc	a5,0x7
ffffffff84005fca:	03a78793          	addi	a5,a5,58 # ffffffff8400d000 <riscvKSASIDTable>
ffffffff84005fce:	4709                	li	a4,2
ffffffff84005fd0:	44e7b023          	sd	a4,1088(a5)
ffffffff84005fd4:	4705                	li	a4,1
ffffffff84005fd6:	40e7bc23          	sd	a4,1048(a5)
ffffffff84005fda:	448d                	li	s1,3
ffffffff84005fdc:	bda1                	j	ffffffff84005e34 <decodeSchedContextInvocation+0x5e>
ffffffff84005fde:	0001a517          	auipc	a0,0x1a
ffffffff84005fe2:	87a53503          	ld	a0,-1926(a0) # ffffffff8401f858 <ksCurThread>
ffffffff84005fe6:	6c1c                	ld	a5,24(s0)
ffffffff84005fe8:	02a78463          	beq	a5,a0,ffffffff84006010 <decodeSchedContextInvocation+0x23a>
ffffffff84005fec:	4589                	li	a1,2
ffffffff84005fee:	ab1fe0ef          	jal	ra,ffffffff84004a9e <setThreadState>
ffffffff84005ff2:	8522                	mv	a0,s0
ffffffff84005ff4:	83dff0ef          	jal	ra,ffffffff84005830 <schedContext_unbindAllTCBs>
ffffffff84005ff8:	8522                	mv	a0,s0
ffffffff84005ffa:	fe6fe0ef          	jal	ra,ffffffff840047e0 <schedContext_unbindNtfn>
ffffffff84005ffe:	701c                	ld	a5,32(s0)
ffffffff84006000:	4481                	li	s1,0
ffffffff84006002:	e20789e3          	beqz	a5,ffffffff84005e34 <decodeSchedContextInvocation+0x5e>
ffffffff84006006:	0007b823          	sd	zero,16(a5)
ffffffff8400600a:	02043023          	sd	zero,32(s0)
ffffffff8400600e:	b51d                	j	ffffffff84005e34 <decodeSchedContextInvocation+0x5e>
ffffffff84006010:	478d                	li	a5,3
ffffffff84006012:	00007717          	auipc	a4,0x7
ffffffff84006016:	42f73723          	sd	a5,1070(a4) # ffffffff8400d440 <current_syscall_error+0x30>
ffffffff8400601a:	448d                	li	s1,3
ffffffff8400601c:	bd21                	j	ffffffff84005e34 <decodeSchedContextInvocation+0x5e>
ffffffff8400601e:	6c1c                	ld	a5,24(s0)
ffffffff84006020:	0001a517          	auipc	a0,0x1a
ffffffff84006024:	83853503          	ld	a0,-1992(a0) # ffffffff8401f858 <ksCurThread>
ffffffff84006028:	04a78763          	beq	a5,a0,ffffffff84006076 <decodeSchedContextInvocation+0x2a0>
ffffffff8400602c:	cfa1                	beqz	a5,ffffffff84006084 <decodeSchedContextInvocation+0x2ae>
ffffffff8400602e:	1687b703          	ld	a4,360(a5)
ffffffff84006032:	16053783          	ld	a5,352(a0)
ffffffff84006036:	04e7ee63          	bltu	a5,a4,ffffffff84006092 <decodeSchedContextInvocation+0x2bc>
ffffffff8400603a:	4589                	li	a1,2
ffffffff8400603c:	a63fe0ef          	jal	ra,ffffffff84004a9e <setThreadState>
ffffffff84006040:	7c08                	ld	a0,56(s0)
ffffffff84006042:	c119                	beqz	a0,ffffffff84006048 <decodeSchedContextInvocation+0x272>
ffffffff84006044:	8f3fe0ef          	jal	ra,ffffffff84004936 <schedContext_completeYieldTo>
ffffffff84006048:	8522                	mv	a0,s0
ffffffff8400604a:	c93ff0ef          	jal	ra,ffffffff84005cdc <schedContext_resume>
ffffffff8400604e:	6c18                	ld	a4,24(s0)
ffffffff84006050:	11873783          	ld	a5,280(a4)
ffffffff84006054:	8bbd                	andi	a5,a5,15
ffffffff84006056:	17fd                	addi	a5,a5,-1
ffffffff84006058:	4685                	li	a3,1
ffffffff8400605a:	04f6f363          	bgeu	a3,a5,ffffffff840060a0 <decodeSchedContextInvocation+0x2ca>
ffffffff8400605e:	8522                	mv	a0,s0
ffffffff84006060:	f94fe0ef          	jal	ra,ffffffff840047f4 <schedContext_updateConsumed>
ffffffff84006064:	00019797          	auipc	a5,0x19
ffffffff84006068:	7f47b783          	ld	a5,2036(a5) # ffffffff8401f858 <ksCurThread>
ffffffff8400606c:	efa8                	sd	a0,88(a5)
ffffffff8400606e:	4705                	li	a4,1
ffffffff84006070:	ebb8                	sd	a4,80(a5)
ffffffff84006072:	4481                	li	s1,0
ffffffff84006074:	b3c1                	j	ffffffff84005e34 <decodeSchedContextInvocation+0x5e>
ffffffff84006076:	478d                	li	a5,3
ffffffff84006078:	00007717          	auipc	a4,0x7
ffffffff8400607c:	3cf73423          	sd	a5,968(a4) # ffffffff8400d440 <current_syscall_error+0x30>
ffffffff84006080:	448d                	li	s1,3
ffffffff84006082:	bb4d                	j	ffffffff84005e34 <decodeSchedContextInvocation+0x5e>
ffffffff84006084:	478d                	li	a5,3
ffffffff84006086:	00007717          	auipc	a4,0x7
ffffffff8400608a:	3af73d23          	sd	a5,954(a4) # ffffffff8400d440 <current_syscall_error+0x30>
ffffffff8400608e:	448d                	li	s1,3
ffffffff84006090:	b355                	j	ffffffff84005e34 <decodeSchedContextInvocation+0x5e>
ffffffff84006092:	478d                	li	a5,3
ffffffff84006094:	00007717          	auipc	a4,0x7
ffffffff84006098:	3af73623          	sd	a5,940(a4) # ffffffff8400d440 <current_syscall_error+0x30>
ffffffff8400609c:	448d                	li	s1,3
ffffffff8400609e:	bb59                	j	ffffffff84005e34 <decodeSchedContextInvocation+0x5e>
ffffffff840060a0:	17073783          	ld	a5,368(a4)
ffffffff840060a4:	dfcd                	beqz	a5,ffffffff8400605e <decodeSchedContextInvocation+0x288>
ffffffff840060a6:	63bc                	ld	a5,64(a5)
ffffffff840060a8:	dbdd                	beqz	a5,ffffffff8400605e <decodeSchedContextInvocation+0x288>
ffffffff840060aa:	12073483          	ld	s1,288(a4)
ffffffff840060ae:	8885                	andi	s1,s1,1
ffffffff840060b0:	f4dd                	bnez	s1,ffffffff8400605e <decodeSchedContextInvocation+0x288>
ffffffff840060b2:	8522                	mv	a0,s0
ffffffff840060b4:	fc6fd0ef          	jal	ra,ffffffff8400387a <refill_unblock_check>
ffffffff840060b8:	6c08                	ld	a0,24(s0)
ffffffff840060ba:	00019797          	auipc	a5,0x19
ffffffff840060be:	79e7b783          	ld	a5,1950(a5) # ffffffff8401f858 <ksCurThread>
ffffffff840060c2:	16853683          	ld	a3,360(a0)
ffffffff840060c6:	1687b703          	ld	a4,360(a5)
ffffffff840060ca:	00e6f863          	bgeu	a3,a4,ffffffff840060da <decodeSchedContextInvocation+0x304>
ffffffff840060ce:	e73fe0ef          	jal	ra,ffffffff84004f40 <tcbSchedDequeue>
ffffffff840060d2:	6c08                	ld	a0,24(s0)
ffffffff840060d4:	895fe0ef          	jal	ra,ffffffff84004968 <tcbSchedEnqueue>
ffffffff840060d8:	b759                	j	ffffffff8400605e <decodeSchedContextInvocation+0x288>
ffffffff840060da:	1687bc23          	sd	s0,376(a5)
ffffffff840060de:	fc1c                	sd	a5,56(s0)
ffffffff840060e0:	6c08                	ld	a0,24(s0)
ffffffff840060e2:	e5ffe0ef          	jal	ra,ffffffff84004f40 <tcbSchedDequeue>
ffffffff840060e6:	00019517          	auipc	a0,0x19
ffffffff840060ea:	77253503          	ld	a0,1906(a0) # ffffffff8401f858 <ksCurThread>
ffffffff840060ee:	87bfe0ef          	jal	ra,ffffffff84004968 <tcbSchedEnqueue>
ffffffff840060f2:	6c08                	ld	a0,24(s0)
ffffffff840060f4:	875fe0ef          	jal	ra,ffffffff84004968 <tcbSchedEnqueue>
ffffffff840060f8:	90dfe0ef          	jal	ra,ffffffff84004a04 <rescheduleRequired>
ffffffff840060fc:	bb25                	j	ffffffff84005e34 <decodeSchedContextInvocation+0x5e>
ffffffff840060fe:	478d                	li	a5,3
ffffffff84006100:	00007717          	auipc	a4,0x7
ffffffff84006104:	34f73023          	sd	a5,832(a4) # ffffffff8400d440 <current_syscall_error+0x30>
ffffffff84006108:	448d                	li	s1,3
ffffffff8400610a:	b32d                	j	ffffffff84005e34 <decodeSchedContextInvocation+0x5e>
ffffffff8400610c:	1704b783          	ld	a5,368(s1)
ffffffff84006110:	da0795e3          	bnez	a5,ffffffff84005eba <decodeSchedContextInvocation+0xe4>
ffffffff84006114:	4589                	li	a1,2
ffffffff84006116:	00019517          	auipc	a0,0x19
ffffffff8400611a:	74253503          	ld	a0,1858(a0) # ffffffff8401f858 <ksCurThread>
ffffffff8400611e:	981fe0ef          	jal	ra,ffffffff84004a9e <setThreadState>
ffffffff84006122:	bb85                	j	ffffffff84005e92 <decodeSchedContextInvocation+0xbc>
ffffffff84006124:	4589                	li	a1,2
ffffffff84006126:	00019517          	auipc	a0,0x19
ffffffff8400612a:	73253503          	ld	a0,1842(a0) # ffffffff8401f858 <ksCurThread>
ffffffff8400612e:	971fe0ef          	jal	ra,ffffffff84004a9e <setThreadState>
ffffffff84006132:	57fd                	li	a5,-1
ffffffff84006134:	179e                	slli	a5,a5,0x27
ffffffff84006136:	8cdd                	or	s1,s1,a5
ffffffff84006138:	85a6                	mv	a1,s1
ffffffff8400613a:	8522                	mv	a0,s0
ffffffff8400613c:	e8efe0ef          	jal	ra,ffffffff840047ca <schedContext_bindNtfn>
ffffffff84006140:	bba9                	j	ffffffff84005e9a <decodeSchedContextInvocation+0xc4>
ffffffff84006142:	709c                	ld	a5,32(s1)
ffffffff84006144:	07e6                	slli	a5,a5,0x19
ffffffff84006146:	da0791e3          	bnez	a5,ffffffff84005ee8 <decodeSchedContextInvocation+0x112>
ffffffff8400614a:	4589                	li	a1,2
ffffffff8400614c:	00019517          	auipc	a0,0x19
ffffffff84006150:	70c53503          	ld	a0,1804(a0) # ffffffff8401f858 <ksCurThread>
ffffffff84006154:	94bfe0ef          	jal	ra,ffffffff84004a9e <setThreadState>
ffffffff84006158:	b7c5                	j	ffffffff84006138 <decodeSchedContextInvocation+0x362>

ffffffff8400615a <decodeSchedControlInvocation>:
ffffffff8400615a:	715d                	addi	sp,sp,-80
ffffffff8400615c:	e486                	sd	ra,72(sp)
ffffffff8400615e:	e0a2                	sd	s0,64(sp)
ffffffff84006160:	fc26                	sd	s1,56(sp)
ffffffff84006162:	f84a                	sd	s2,48(sp)
ffffffff84006164:	f44e                	sd	s3,40(sp)
ffffffff84006166:	f052                	sd	s4,32(sp)
ffffffff84006168:	ec56                	sd	s5,24(sp)
ffffffff8400616a:	e02e                	sd	a1,0(sp)
ffffffff8400616c:	e432                	sd	a2,8(sp)
ffffffff8400616e:	47f9                	li	a5,30
ffffffff84006170:	02f50163          	beq	a0,a5,ffffffff84006192 <decodeSchedControlInvocation+0x38>
ffffffff84006174:	478d                	li	a5,3
ffffffff84006176:	00007717          	auipc	a4,0x7
ffffffff8400617a:	2cf73523          	sd	a5,714(a4) # ffffffff8400d440 <current_syscall_error+0x30>
ffffffff8400617e:	450d                	li	a0,3
ffffffff84006180:	60a6                	ld	ra,72(sp)
ffffffff84006182:	6406                	ld	s0,64(sp)
ffffffff84006184:	74e2                	ld	s1,56(sp)
ffffffff84006186:	7942                	ld	s2,48(sp)
ffffffff84006188:	79a2                	ld	s3,40(sp)
ffffffff8400618a:	7a02                	ld	s4,32(sp)
ffffffff8400618c:	6ae2                	ld	s5,24(sp)
ffffffff8400618e:	6161                	addi	sp,sp,80
ffffffff84006190:	8082                	ret
ffffffff84006192:	00007717          	auipc	a4,0x7
ffffffff84006196:	6fe73703          	ld	a4,1790(a4) # ffffffff8400d890 <current_extra_caps>
ffffffff8400619a:	10070663          	beqz	a4,ffffffff840062a6 <decodeSchedControlInvocation+0x14c>
ffffffff8400619e:	478d                	li	a5,3
ffffffff840061a0:	10d7fa63          	bgeu	a5,a3,ffffffff840062b4 <decodeSchedControlInvocation+0x15a>
ffffffff840061a4:	631c                	ld	a5,0(a4)
ffffffff840061a6:	93ed                	srli	a5,a5,0x3b
ffffffff840061a8:	46d9                	li	a3,22
ffffffff840061aa:	10d79c63          	bne	a5,a3,ffffffff840062c2 <decodeSchedControlInvocation+0x168>
ffffffff840061ae:	00019517          	auipc	a0,0x19
ffffffff840061b2:	6aa53503          	ld	a0,1706(a0) # ffffffff8401f858 <ksCurThread>
ffffffff840061b6:	6d20                	ld	s0,88(a0)
ffffffff840061b8:	fec40693          	addi	a3,s0,-20
ffffffff840061bc:	6b49d7b7          	lui	a5,0x6b49d
ffffffff840061c0:	0786                	slli	a5,a5,0x1
ffffffff840061c2:	3ec78793          	addi	a5,a5,1004 # 6b49d3ec <KERNEL_OFFSET-0xfffffffe94b62c14>
ffffffff840061c6:	10d7ea63          	bltu	a5,a3,ffffffff840062da <decodeSchedControlInvocation+0x180>
ffffffff840061ca:	06053903          	ld	s2,96(a0)
ffffffff840061ce:	fec90693          	addi	a3,s2,-20
ffffffff840061d2:	6b49d7b7          	lui	a5,0x6b49d
ffffffff840061d6:	0786                	slli	a5,a5,0x1
ffffffff840061d8:	3ec78793          	addi	a5,a5,1004 # 6b49d3ec <KERNEL_OFFSET-0xfffffffe94b62c14>
ffffffff840061dc:	12d7e263          	bltu	a5,a3,ffffffff84006300 <decodeSchedControlInvocation+0x1a6>
ffffffff840061e0:	14896363          	bltu	s2,s0,ffffffff84006326 <decodeSchedControlInvocation+0x1cc>
ffffffff840061e4:	6704                	ld	s1,8(a4)
ffffffff840061e6:	06853983          	ld	s3,104(a0)
ffffffff840061ea:	0989                	addi	s3,s3,2
ffffffff840061ec:	00a4d713          	srli	a4,s1,0xa
ffffffff840061f0:	4785                	li	a5,1
ffffffff840061f2:	00e797b3          	sll	a5,a5,a4
ffffffff840061f6:	fa878793          	addi	a5,a5,-88
ffffffff840061fa:	8391                	srli	a5,a5,0x4
ffffffff840061fc:	1537e363          	bltu	a5,s3,ffffffff84006342 <decodeSchedControlInvocation+0x1e8>
ffffffff84006200:	07053a83          	ld	s5,112(a0)
ffffffff84006204:	4589                	li	a1,2
ffffffff84006206:	899fe0ef          	jal	ra,ffffffff84004a9e <setThreadState>
ffffffff8400620a:	80c1                	srli	s1,s1,0x10
ffffffff8400620c:	01949a13          	slli	s4,s1,0x19
ffffffff84006210:	019a5a13          	srli	s4,s4,0x19
ffffffff84006214:	9099                	srli	s1,s1,0x26
ffffffff84006216:	8885                	andi	s1,s1,1
ffffffff84006218:	c489                	beqz	s1,ffffffff84006222 <decodeSchedControlInvocation+0xc8>
ffffffff8400621a:	57fd                	li	a5,-1
ffffffff8400621c:	179e                	slli	a5,a5,0x27
ffffffff8400621e:	00fa6a33          	or	s4,s4,a5
ffffffff84006222:	84d2                	mv	s1,s4
ffffffff84006224:	035a3823          	sd	s5,48(s4)
ffffffff84006228:	018a3503          	ld	a0,24(s4)
ffffffff8400622c:	cd09                	beqz	a0,ffffffff84006246 <decodeSchedControlInvocation+0xec>
ffffffff8400622e:	d36ff0ef          	jal	ra,ffffffff84005764 <tcbReleaseRemove>
ffffffff84006232:	018a3503          	ld	a0,24(s4)
ffffffff84006236:	d0bfe0ef          	jal	ra,ffffffff84004f40 <tcbSchedDequeue>
ffffffff8400623a:	00019797          	auipc	a5,0x19
ffffffff8400623e:	5ee7b783          	ld	a5,1518(a5) # ffffffff8401f828 <ksCurSC>
ffffffff84006242:	10fa0e63          	beq	s4,a5,ffffffff8400635e <decodeSchedControlInvocation+0x204>
ffffffff84006246:	18890763          	beq	s2,s0,ffffffff840063d4 <decodeSchedControlInvocation+0x27a>
ffffffff8400624a:	60bc                	ld	a5,64(s1)
ffffffff8400624c:	cb91                	beqz	a5,ffffffff84006260 <decodeSchedControlInvocation+0x106>
ffffffff8400624e:	6c9c                	ld	a5,24(s1)
ffffffff84006250:	cb81                	beqz	a5,ffffffff84006260 <decodeSchedControlInvocation+0x106>
ffffffff84006252:	1187b783          	ld	a5,280(a5)
ffffffff84006256:	8bbd                	andi	a5,a5,15
ffffffff84006258:	17fd                	addi	a5,a5,-1
ffffffff8400625a:	4705                	li	a4,1
ffffffff8400625c:	16f77f63          	bgeu	a4,a5,ffffffff840063da <decodeSchedControlInvocation+0x280>
ffffffff84006260:	86ca                	mv	a3,s2
ffffffff84006262:	8622                	mv	a2,s0
ffffffff84006264:	85ce                	mv	a1,s3
ffffffff84006266:	8526                	mv	a0,s1
ffffffff84006268:	9c4fd0ef          	jal	ra,ffffffff8400342c <refill_new>
ffffffff8400626c:	6c9c                	ld	a5,24(s1)
ffffffff8400626e:	4501                	li	a0,0
ffffffff84006270:	db81                	beqz	a5,ffffffff84006180 <decodeSchedControlInvocation+0x26>
ffffffff84006272:	60a8                	ld	a0,64(s1)
ffffffff84006274:	f00506e3          	beqz	a0,ffffffff84006180 <decodeSchedControlInvocation+0x26>
ffffffff84006278:	8526                	mv	a0,s1
ffffffff8400627a:	a63ff0ef          	jal	ra,ffffffff84005cdc <schedContext_resume>
ffffffff8400627e:	6c88                	ld	a0,24(s1)
ffffffff84006280:	11853783          	ld	a5,280(a0)
ffffffff84006284:	8bbd                	andi	a5,a5,15
ffffffff84006286:	17fd                	addi	a5,a5,-1
ffffffff84006288:	4705                	li	a4,1
ffffffff8400628a:	14f77f63          	bgeu	a4,a5,ffffffff840063e8 <decodeSchedControlInvocation+0x28e>
ffffffff8400628e:	6c98                	ld	a4,24(s1)
ffffffff84006290:	00019797          	auipc	a5,0x19
ffffffff84006294:	5c87b783          	ld	a5,1480(a5) # ffffffff8401f858 <ksCurThread>
ffffffff84006298:	4501                	li	a0,0
ffffffff8400629a:	eef713e3          	bne	a4,a5,ffffffff84006180 <decodeSchedControlInvocation+0x26>
ffffffff8400629e:	f66fe0ef          	jal	ra,ffffffff84004a04 <rescheduleRequired>
ffffffff840062a2:	4501                	li	a0,0
ffffffff840062a4:	bdf1                	j	ffffffff84006180 <decodeSchedControlInvocation+0x26>
ffffffff840062a6:	479d                	li	a5,7
ffffffff840062a8:	00007717          	auipc	a4,0x7
ffffffff840062ac:	18f73c23          	sd	a5,408(a4) # ffffffff8400d440 <current_syscall_error+0x30>
ffffffff840062b0:	450d                	li	a0,3
ffffffff840062b2:	b5f9                	j	ffffffff84006180 <decodeSchedControlInvocation+0x26>
ffffffff840062b4:	479d                	li	a5,7
ffffffff840062b6:	00007717          	auipc	a4,0x7
ffffffff840062ba:	18f73523          	sd	a5,394(a4) # ffffffff8400d440 <current_syscall_error+0x30>
ffffffff840062be:	450d                	li	a0,3
ffffffff840062c0:	b5c1                	j	ffffffff84006180 <decodeSchedControlInvocation+0x26>
ffffffff840062c2:	00007797          	auipc	a5,0x7
ffffffff840062c6:	d3e78793          	addi	a5,a5,-706 # ffffffff8400d000 <riscvKSASIDTable>
ffffffff840062ca:	4709                	li	a4,2
ffffffff840062cc:	44e7b023          	sd	a4,1088(a5)
ffffffff840062d0:	4705                	li	a4,1
ffffffff840062d2:	40e7bc23          	sd	a4,1048(a5)
ffffffff840062d6:	450d                	li	a0,3
ffffffff840062d8:	b565                	j	ffffffff84006180 <decodeSchedControlInvocation+0x26>
ffffffff840062da:	00007717          	auipc	a4,0x7
ffffffff840062de:	d2670713          	addi	a4,a4,-730 # ffffffff8400d000 <riscvKSASIDTable>
ffffffff840062e2:	4791                	li	a5,4
ffffffff840062e4:	44f73023          	sd	a5,1088(a4)
ffffffff840062e8:	47d1                	li	a5,20
ffffffff840062ea:	42f73023          	sd	a5,1056(a4)
ffffffff840062ee:	6b49d7b7          	lui	a5,0x6b49d
ffffffff840062f2:	0786                	slli	a5,a5,0x1
ffffffff840062f4:	40078793          	addi	a5,a5,1024 # 6b49d400 <KERNEL_OFFSET-0xfffffffe94b62c00>
ffffffff840062f8:	42f73423          	sd	a5,1064(a4)
ffffffff840062fc:	450d                	li	a0,3
ffffffff840062fe:	b549                	j	ffffffff84006180 <decodeSchedControlInvocation+0x26>
ffffffff84006300:	00007717          	auipc	a4,0x7
ffffffff84006304:	d0070713          	addi	a4,a4,-768 # ffffffff8400d000 <riscvKSASIDTable>
ffffffff84006308:	4791                	li	a5,4
ffffffff8400630a:	44f73023          	sd	a5,1088(a4)
ffffffff8400630e:	47d1                	li	a5,20
ffffffff84006310:	42f73023          	sd	a5,1056(a4)
ffffffff84006314:	6b49d7b7          	lui	a5,0x6b49d
ffffffff84006318:	0786                	slli	a5,a5,0x1
ffffffff8400631a:	40078793          	addi	a5,a5,1024 # 6b49d400 <KERNEL_OFFSET-0xfffffffe94b62c00>
ffffffff8400631e:	42f73423          	sd	a5,1064(a4)
ffffffff84006322:	450d                	li	a0,3
ffffffff84006324:	bdb1                	j	ffffffff84006180 <decodeSchedControlInvocation+0x26>
ffffffff84006326:	00007797          	auipc	a5,0x7
ffffffff8400632a:	cda78793          	addi	a5,a5,-806 # ffffffff8400d000 <riscvKSASIDTable>
ffffffff8400632e:	4711                	li	a4,4
ffffffff84006330:	44e7b023          	sd	a4,1088(a5)
ffffffff84006334:	4751                	li	a4,20
ffffffff84006336:	42e7b023          	sd	a4,1056(a5)
ffffffff8400633a:	4327b423          	sd	s2,1064(a5)
ffffffff8400633e:	450d                	li	a0,3
ffffffff84006340:	b581                	j	ffffffff84006180 <decodeSchedControlInvocation+0x26>
ffffffff84006342:	00007717          	auipc	a4,0x7
ffffffff84006346:	cbe70713          	addi	a4,a4,-834 # ffffffff8400d000 <riscvKSASIDTable>
ffffffff8400634a:	4691                	li	a3,4
ffffffff8400634c:	44d73023          	sd	a3,1088(a4)
ffffffff84006350:	42073023          	sd	zero,1056(a4)
ffffffff84006354:	17f9                	addi	a5,a5,-2
ffffffff84006356:	42f73423          	sd	a5,1064(a4)
ffffffff8400635a:	450d                	li	a0,3
ffffffff8400635c:	b515                	j	ffffffff84006180 <decodeSchedControlInvocation+0x26>
ffffffff8400635e:	63b8                	ld	a4,64(a5)
ffffffff84006360:	c329                	beqz	a4,ffffffff840063a2 <decodeSchedControlInvocation+0x248>
ffffffff84006362:	00019517          	auipc	a0,0x19
ffffffff84006366:	4de53503          	ld	a0,1246(a0) # ffffffff8401f840 <ksConsumed>
ffffffff8400636a:	c10d                	beqz	a0,ffffffff8400638c <decodeSchedControlInvocation+0x232>
ffffffff8400636c:	6398                	ld	a4,0(a5)
ffffffff8400636e:	e325                	bnez	a4,ffffffff840063ce <decodeSchedControlInvocation+0x274>
ffffffff84006370:	05878613          	addi	a2,a5,88
ffffffff84006374:	67b8                	ld	a4,72(a5)
ffffffff84006376:	0712                	slli	a4,a4,0x4
ffffffff84006378:	9732                	add	a4,a4,a2
ffffffff8400637a:	6714                	ld	a3,8(a4)
ffffffff8400637c:	8e89                	sub	a3,a3,a0
ffffffff8400637e:	e714                	sd	a3,8(a4)
ffffffff84006380:	6bbc                	ld	a5,80(a5)
ffffffff84006382:	0792                	slli	a5,a5,0x4
ffffffff84006384:	97b2                	add	a5,a5,a2
ffffffff84006386:	6798                	ld	a4,8(a5)
ffffffff84006388:	972a                	add	a4,a4,a0
ffffffff8400638a:	e798                	sd	a4,8(a5)
ffffffff8400638c:	00019717          	auipc	a4,0x19
ffffffff84006390:	49c73703          	ld	a4,1180(a4) # ffffffff8401f828 <ksCurSC>
ffffffff84006394:	671c                	ld	a5,8(a4)
ffffffff84006396:	00019697          	auipc	a3,0x19
ffffffff8400639a:	4aa6b683          	ld	a3,1194(a3) # ffffffff8401f840 <ksConsumed>
ffffffff8400639e:	97b6                	add	a5,a5,a3
ffffffff840063a0:	e71c                	sd	a5,8(a4)
ffffffff840063a2:	00019717          	auipc	a4,0x19
ffffffff840063a6:	49e73703          	ld	a4,1182(a4) # ffffffff8401f840 <ksConsumed>
ffffffff840063aa:	00019697          	auipc	a3,0x19
ffffffff840063ae:	4666b683          	ld	a3,1126(a3) # ffffffff8401f810 <ksDomainTime>
ffffffff840063b2:	4781                	li	a5,0
ffffffff840063b4:	00d77463          	bgeu	a4,a3,ffffffff840063bc <decodeSchedControlInvocation+0x262>
ffffffff840063b8:	40e687b3          	sub	a5,a3,a4
ffffffff840063bc:	00019717          	auipc	a4,0x19
ffffffff840063c0:	44f73a23          	sd	a5,1108(a4) # ffffffff8401f810 <ksDomainTime>
ffffffff840063c4:	00019797          	auipc	a5,0x19
ffffffff840063c8:	4607be23          	sd	zero,1148(a5) # ffffffff8401f840 <ksConsumed>
ffffffff840063cc:	bdad                	j	ffffffff84006246 <decodeSchedControlInvocation+0xec>
ffffffff840063ce:	9c2fd0ef          	jal	ra,ffffffff84003590 <refill_split_check>
ffffffff840063d2:	bf6d                	j	ffffffff8400638c <decodeSchedControlInvocation+0x232>
ffffffff840063d4:	4989                	li	s3,2
ffffffff840063d6:	4901                	li	s2,0
ffffffff840063d8:	bd8d                	j	ffffffff8400624a <decodeSchedControlInvocation+0xf0>
ffffffff840063da:	86ce                	mv	a3,s3
ffffffff840063dc:	8622                	mv	a2,s0
ffffffff840063de:	85ca                	mv	a1,s2
ffffffff840063e0:	8526                	mv	a0,s1
ffffffff840063e2:	914fd0ef          	jal	ra,ffffffff840034f6 <refill_update>
ffffffff840063e6:	b559                	j	ffffffff8400626c <decodeSchedControlInvocation+0x112>
ffffffff840063e8:	00019797          	auipc	a5,0x19
ffffffff840063ec:	4707b783          	ld	a5,1136(a5) # ffffffff8401f858 <ksCurThread>
ffffffff840063f0:	eaf507e3          	beq	a0,a5,ffffffff8400629e <decodeSchedControlInvocation+0x144>
ffffffff840063f4:	94ffe0ef          	jal	ra,ffffffff84004d42 <possibleSwitchTo>
ffffffff840063f8:	bd59                	j	ffffffff8400628e <decodeSchedControlInvocation+0x134>

ffffffff840063fa <completeSignal>:
ffffffff840063fa:	1141                	addi	sp,sp,-16
ffffffff840063fc:	e406                	sd	ra,8(sp)
ffffffff840063fe:	e022                	sd	s0,0(sp)
ffffffff84006400:	c1ad                	beqz	a1,ffffffff84006462 <completeSignal+0x68>
ffffffff84006402:	611c                	ld	a5,0(a0)
ffffffff84006404:	8b8d                	andi	a5,a5,3
ffffffff84006406:	4709                	li	a4,2
ffffffff84006408:	04e79d63          	bne	a5,a4,ffffffff84006462 <completeSignal+0x68>
ffffffff8400640c:	691c                	ld	a5,16(a0)
ffffffff8400640e:	e5bc                	sd	a5,72(a1)
ffffffff84006410:	611c                	ld	a5,0(a0)
ffffffff84006412:	9bf1                	andi	a5,a5,-4
ffffffff84006414:	e11c                	sd	a5,0(a0)
ffffffff84006416:	1705b783          	ld	a5,368(a1)
ffffffff8400641a:	c789                	beqz	a5,ffffffff84006424 <completeSignal+0x2a>
ffffffff8400641c:	60a2                	ld	ra,8(sp)
ffffffff8400641e:	6402                	ld	s0,0(sp)
ffffffff84006420:	0141                	addi	sp,sp,16
ffffffff84006422:	8082                	ret
ffffffff84006424:	711c                	ld	a5,32(a0)
ffffffff84006426:	01979713          	slli	a4,a5,0x19
ffffffff8400642a:	8365                	srli	a4,a4,0x19
ffffffff8400642c:	9399                	srli	a5,a5,0x26
ffffffff8400642e:	8b85                	andi	a5,a5,1
ffffffff84006430:	c795                	beqz	a5,ffffffff8400645c <completeSignal+0x62>
ffffffff84006432:	547d                	li	s0,-1
ffffffff84006434:	141e                	slli	s0,s0,0x27
ffffffff84006436:	8c59                	or	s0,s0,a4
ffffffff84006438:	6c1c                	ld	a5,24(s0)
ffffffff8400643a:	f3ed                	bnez	a5,ffffffff8400641c <completeSignal+0x22>
ffffffff8400643c:	8522                	mv	a0,s0
ffffffff8400643e:	c5bfe0ef          	jal	ra,ffffffff84005098 <schedContext_donate>
ffffffff84006442:	00019797          	auipc	a5,0x19
ffffffff84006446:	3e67b783          	ld	a5,998(a5) # ffffffff8401f828 <ksCurSC>
ffffffff8400644a:	00f40563          	beq	s0,a5,ffffffff84006454 <completeSignal+0x5a>
ffffffff8400644e:	8522                	mv	a0,s0
ffffffff84006450:	c2afd0ef          	jal	ra,ffffffff8400387a <refill_unblock_check>
ffffffff84006454:	8522                	mv	a0,s0
ffffffff84006456:	887ff0ef          	jal	ra,ffffffff84005cdc <schedContext_resume>
ffffffff8400645a:	b7c9                	j	ffffffff8400641c <completeSignal+0x22>
ffffffff8400645c:	d361                	beqz	a4,ffffffff8400641c <completeSignal+0x22>
ffffffff8400645e:	843a                	mv	s0,a4
ffffffff84006460:	bfe1                	j	ffffffff84006438 <completeSignal+0x3e>
ffffffff84006462:	e03fb0ef          	jal	ra,ffffffff84002264 <halt>

ffffffff84006466 <receiveSignal>:
ffffffff84006466:	7179                	addi	sp,sp,-48
ffffffff84006468:	f406                	sd	ra,40(sp)
ffffffff8400646a:	f022                	sd	s0,32(sp)
ffffffff8400646c:	ec26                	sd	s1,24(sp)
ffffffff8400646e:	842a                	mv	s0,a0
ffffffff84006470:	e02e                	sd	a1,0(sp)
ffffffff84006472:	e432                	sd	a2,8(sp)
ffffffff84006474:	01959793          	slli	a5,a1,0x19
ffffffff84006478:	83e5                	srli	a5,a5,0x19
ffffffff8400647a:	9199                	srli	a1,a1,0x26
ffffffff8400647c:	8985                	andi	a1,a1,1
ffffffff8400647e:	c581                	beqz	a1,ffffffff84006486 <receiveSignal+0x20>
ffffffff84006480:	577d                	li	a4,-1
ffffffff84006482:	171e                	slli	a4,a4,0x27
ffffffff84006484:	8fd9                	or	a5,a5,a4
ffffffff84006486:	84be                	mv	s1,a5
ffffffff84006488:	6398                	ld	a4,0(a5)
ffffffff8400648a:	00377613          	andi	a2,a4,3
ffffffff8400648e:	8b09                	andi	a4,a4,2
ffffffff84006490:	c315                	beqz	a4,ffffffff840064b4 <receiveSignal+0x4e>
ffffffff84006492:	4789                	li	a5,2
ffffffff84006494:	00f61b63          	bne	a2,a5,ffffffff840064aa <receiveSignal+0x44>
ffffffff84006498:	689c                	ld	a5,16(s1)
ffffffff8400649a:	e43c                	sd	a5,72(s0)
ffffffff8400649c:	609c                	ld	a5,0(s1)
ffffffff8400649e:	9bf1                	andi	a5,a5,-4
ffffffff840064a0:	e09c                	sd	a5,0(s1)
ffffffff840064a2:	17043783          	ld	a5,368(s0)
ffffffff840064a6:	0e078f63          	beqz	a5,ffffffff840065a4 <receiveSignal+0x13e>
ffffffff840064aa:	70a2                	ld	ra,40(sp)
ffffffff840064ac:	7402                	ld	s0,32(sp)
ffffffff840064ae:	64e2                	ld	s1,24(sp)
ffffffff840064b0:	6145                	addi	sp,sp,48
ffffffff840064b2:	8082                	ret
ffffffff840064b4:	c6ed                	beqz	a3,ffffffff8400659e <receiveSignal+0x138>
ffffffff840064b6:	11843683          	ld	a3,280(s0)
ffffffff840064ba:	577d                	li	a4,-1
ffffffff840064bc:	02771613          	slli	a2,a4,0x27
ffffffff840064c0:	8ef1                	and	a3,a3,a2
ffffffff840064c2:	e0000637          	lui	a2,0xe0000
ffffffff840064c6:	8265                	srli	a2,a2,0x19
ffffffff840064c8:	8ff1                	and	a5,a5,a2
ffffffff840064ca:	8fd5                	or	a5,a5,a3
ffffffff840064cc:	0067e793          	ori	a5,a5,6
ffffffff840064d0:	10f43c23          	sd	a5,280(s0)
ffffffff840064d4:	7094                	ld	a3,32(s1)
ffffffff840064d6:	01975793          	srli	a5,a4,0x19
ffffffff840064da:	8ff5                	and	a5,a5,a3
ffffffff840064dc:	9299                	srli	a3,a3,0x26
ffffffff840064de:	8a85                	andi	a3,a3,1
ffffffff840064e0:	c299                	beqz	a3,ffffffff840064e6 <receiveSignal+0x80>
ffffffff840064e2:	171e                	slli	a4,a4,0x27
ffffffff840064e4:	8fd9                	or	a5,a5,a4
ffffffff840064e6:	17043703          	ld	a4,368(s0)
ffffffff840064ea:	04f70463          	beq	a4,a5,ffffffff84006532 <receiveSignal+0xcc>
ffffffff840064ee:	8522                	mv	a0,s0
ffffffff840064f0:	d66fe0ef          	jal	ra,ffffffff84004a56 <scheduleTCB>
ffffffff840064f4:	6498                	ld	a4,8(s1)
ffffffff840064f6:	01971793          	slli	a5,a4,0x19
ffffffff840064fa:	83e5                	srli	a5,a5,0x19
ffffffff840064fc:	9319                	srli	a4,a4,0x26
ffffffff840064fe:	8b05                	andi	a4,a4,1
ffffffff84006500:	c701                	beqz	a4,ffffffff84006508 <receiveSignal+0xa2>
ffffffff84006502:	577d                	li	a4,-1
ffffffff84006504:	171e                	slli	a4,a4,0x27
ffffffff84006506:	8fd9                	or	a5,a5,a4
ffffffff84006508:	6094                	ld	a3,0(s1)
ffffffff8400650a:	0196d713          	srli	a4,a3,0x19
ffffffff8400650e:	0206df63          	bgez	a3,ffffffff8400654c <receiveSignal+0xe6>
ffffffff84006512:	56fd                	li	a3,-1
ffffffff84006514:	169e                	slli	a3,a3,0x27
ffffffff84006516:	8f55                	or	a4,a4,a3
ffffffff84006518:	16843583          	ld	a1,360(s0)
ffffffff8400651c:	86ba                	mv	a3,a4
ffffffff8400651e:	4601                	li	a2,0
ffffffff84006520:	1686b503          	ld	a0,360(a3)
ffffffff84006524:	06b56163          	bltu	a0,a1,ffffffff84006586 <receiveSignal+0x120>
ffffffff84006528:	1886bc23          	sd	s0,408(a3)
ffffffff8400652c:	e23d                	bnez	a2,ffffffff84006592 <receiveSignal+0x12c>
ffffffff8400652e:	8722                	mv	a4,s0
ffffffff84006530:	a01d                	j	ffffffff84006556 <receiveSignal+0xf0>
ffffffff84006532:	16043823          	sd	zero,368(s0)
ffffffff84006536:	0007bc23          	sd	zero,24(a5)
ffffffff8400653a:	00019797          	auipc	a5,0x19
ffffffff8400653e:	31e7b783          	ld	a5,798(a5) # ffffffff8401f858 <ksCurThread>
ffffffff84006542:	faf416e3          	bne	s0,a5,ffffffff840064ee <receiveSignal+0x88>
ffffffff84006546:	cbefe0ef          	jal	ra,ffffffff84004a04 <rescheduleRequired>
ffffffff8400654a:	b755                	j	ffffffff840064ee <receiveSignal+0x88>
ffffffff8400654c:	f771                	bnez	a4,ffffffff84006518 <receiveSignal+0xb2>
ffffffff8400654e:	87a2                	mv	a5,s0
ffffffff84006550:	8722                	mv	a4,s0
ffffffff84006552:	4601                	li	a2,0
ffffffff84006554:	4681                	li	a3,0
ffffffff84006556:	18c43c23          	sd	a2,408(s0)
ffffffff8400655a:	1ad43023          	sd	a3,416(s0)
ffffffff8400655e:	6094                	ld	a3,0(s1)
ffffffff84006560:	6490                	ld	a2,8(s1)
ffffffff84006562:	55fd                	li	a1,-1
ffffffff84006564:	02759513          	slli	a0,a1,0x27
ffffffff84006568:	8e69                	and	a2,a2,a0
ffffffff8400656a:	81e5                	srli	a1,a1,0x19
ffffffff8400656c:	8fed                	and	a5,a5,a1
ffffffff8400656e:	8fd1                	or	a5,a5,a2
ffffffff84006570:	e49c                	sd	a5,8(s1)
ffffffff84006572:	020007b7          	lui	a5,0x2000
ffffffff84006576:	17f1                	addi	a5,a5,-4
ffffffff84006578:	8ff5                	and	a5,a5,a3
ffffffff8400657a:	0766                	slli	a4,a4,0x19
ffffffff8400657c:	8f5d                	or	a4,a4,a5
ffffffff8400657e:	00176713          	ori	a4,a4,1
ffffffff84006582:	e098                	sd	a4,0(s1)
ffffffff84006584:	b71d                	j	ffffffff840064aa <receiveSignal+0x44>
ffffffff84006586:	1a06b503          	ld	a0,416(a3)
ffffffff8400658a:	e519                	bnez	a0,ffffffff84006598 <receiveSignal+0x132>
ffffffff8400658c:	8636                	mv	a2,a3
ffffffff8400658e:	87a2                	mv	a5,s0
ffffffff84006590:	86aa                	mv	a3,a0
ffffffff84006592:	1a863023          	sd	s0,416(a2) # ffffffffe00001a0 <ki_end+0x5bfdb1a0>
ffffffff84006596:	b7c1                	j	ffffffff84006556 <receiveSignal+0xf0>
ffffffff84006598:	8636                	mv	a2,a3
ffffffff8400659a:	86aa                	mv	a3,a0
ffffffff8400659c:	b751                	j	ffffffff84006520 <receiveSignal+0xba>
ffffffff8400659e:	04043423          	sd	zero,72(s0)
ffffffff840065a2:	b721                	j	ffffffff840064aa <receiveSignal+0x44>
ffffffff840065a4:	709c                	ld	a5,32(s1)
ffffffff840065a6:	01979713          	slli	a4,a5,0x19
ffffffff840065aa:	8365                	srli	a4,a4,0x19
ffffffff840065ac:	9399                	srli	a5,a5,0x26
ffffffff840065ae:	8b85                	andi	a5,a5,1
ffffffff840065b0:	cb85                	beqz	a5,ffffffff840065e0 <receiveSignal+0x17a>
ffffffff840065b2:	54fd                	li	s1,-1
ffffffff840065b4:	149e                	slli	s1,s1,0x27
ffffffff840065b6:	8cd9                	or	s1,s1,a4
ffffffff840065b8:	6c9c                	ld	a5,24(s1)
ffffffff840065ba:	ee0798e3          	bnez	a5,ffffffff840064aa <receiveSignal+0x44>
ffffffff840065be:	85a2                	mv	a1,s0
ffffffff840065c0:	8526                	mv	a0,s1
ffffffff840065c2:	ad7fe0ef          	jal	ra,ffffffff84005098 <schedContext_donate>
ffffffff840065c6:	00019797          	auipc	a5,0x19
ffffffff840065ca:	2627b783          	ld	a5,610(a5) # ffffffff8401f828 <ksCurSC>
ffffffff840065ce:	00f48563          	beq	s1,a5,ffffffff840065d8 <receiveSignal+0x172>
ffffffff840065d2:	8526                	mv	a0,s1
ffffffff840065d4:	aa6fd0ef          	jal	ra,ffffffff8400387a <refill_unblock_check>
ffffffff840065d8:	8526                	mv	a0,s1
ffffffff840065da:	f02ff0ef          	jal	ra,ffffffff84005cdc <schedContext_resume>
ffffffff840065de:	b5f1                	j	ffffffff840064aa <receiveSignal+0x44>
ffffffff840065e0:	ec0705e3          	beqz	a4,ffffffff840064aa <receiveSignal+0x44>
ffffffff840065e4:	84ba                	mv	s1,a4
ffffffff840065e6:	bfc9                	j	ffffffff840065b8 <receiveSignal+0x152>

ffffffff840065e8 <sendSignal>:
ffffffff840065e8:	7179                	addi	sp,sp,-48
ffffffff840065ea:	f406                	sd	ra,40(sp)
ffffffff840065ec:	f022                	sd	s0,32(sp)
ffffffff840065ee:	ec26                	sd	s1,24(sp)
ffffffff840065f0:	e84a                	sd	s2,16(sp)
ffffffff840065f2:	842a                	mv	s0,a0
ffffffff840065f4:	84ae                	mv	s1,a1
ffffffff840065f6:	6118                	ld	a4,0(a0)
ffffffff840065f8:	00377793          	andi	a5,a4,3
ffffffff840065fc:	4685                	li	a3,1
ffffffff840065fe:	0ed78363          	beq	a5,a3,ffffffff840066e4 <sendSignal+0xfc>
ffffffff84006602:	4689                	li	a3,2
ffffffff84006604:	1cd78763          	beq	a5,a3,ffffffff840067d2 <sendSignal+0x1ea>
ffffffff84006608:	c799                	beqz	a5,ffffffff84006616 <sendSignal+0x2e>
ffffffff8400660a:	70a2                	ld	ra,40(sp)
ffffffff8400660c:	7402                	ld	s0,32(sp)
ffffffff8400660e:	64e2                	ld	s1,24(sp)
ffffffff84006610:	6942                	ld	s2,16(sp)
ffffffff84006612:	6145                	addi	sp,sp,48
ffffffff84006614:	8082                	ret
ffffffff84006616:	6d1c                	ld	a5,24(a0)
ffffffff84006618:	01979693          	slli	a3,a5,0x19
ffffffff8400661c:	82e5                	srli	a3,a3,0x19
ffffffff8400661e:	9399                	srli	a5,a5,0x26
ffffffff84006620:	8b85                	andi	a5,a5,1
ffffffff84006622:	c38d                	beqz	a5,ffffffff84006644 <sendSignal+0x5c>
ffffffff84006624:	597d                	li	s2,-1
ffffffff84006626:	191e                	slli	s2,s2,0x27
ffffffff84006628:	0126e933          	or	s2,a3,s2
ffffffff8400662c:	11893783          	ld	a5,280(s2)
ffffffff84006630:	8bbd                	andi	a5,a5,15
ffffffff84006632:	468d                	li	a3,3
ffffffff84006634:	02d78163          	beq	a5,a3,ffffffff84006656 <sendSignal+0x6e>
ffffffff84006638:	9b71                	andi	a4,a4,-4
ffffffff8400663a:	00276713          	ori	a4,a4,2
ffffffff8400663e:	e018                	sd	a4,0(s0)
ffffffff84006640:	e804                	sd	s1,16(s0)
ffffffff84006642:	b7e1                	j	ffffffff8400660a <sendSignal+0x22>
ffffffff84006644:	e699                	bnez	a3,ffffffff84006652 <sendSignal+0x6a>
ffffffff84006646:	9b71                	andi	a4,a4,-4
ffffffff84006648:	00276713          	ori	a4,a4,2
ffffffff8400664c:	e118                	sd	a4,0(a0)
ffffffff8400664e:	e80c                	sd	a1,16(s0)
ffffffff84006650:	bf6d                	j	ffffffff8400660a <sendSignal+0x22>
ffffffff84006652:	8936                	mv	s2,a3
ffffffff84006654:	bfe1                	j	ffffffff8400662c <sendSignal+0x44>
ffffffff84006656:	854a                	mv	a0,s2
ffffffff84006658:	ebdfe0ef          	jal	ra,ffffffff84005514 <cancelIPC>
ffffffff8400665c:	4585                	li	a1,1
ffffffff8400665e:	854a                	mv	a0,s2
ffffffff84006660:	c3efe0ef          	jal	ra,ffffffff84004a9e <setThreadState>
ffffffff84006664:	04993423          	sd	s1,72(s2)
ffffffff84006668:	17093703          	ld	a4,368(s2)
ffffffff8400666c:	c315                	beqz	a4,ffffffff84006690 <sendSignal+0xa8>
ffffffff8400666e:	11893783          	ld	a5,280(s2)
ffffffff84006672:	8bbd                	andi	a5,a5,15
ffffffff84006674:	17fd                	addi	a5,a5,-1
ffffffff84006676:	4685                	li	a3,1
ffffffff84006678:	f8f6e9e3          	bltu	a3,a5,ffffffff8400660a <sendSignal+0x22>
ffffffff8400667c:	633c                	ld	a5,64(a4)
ffffffff8400667e:	d7d1                	beqz	a5,ffffffff8400660a <sendSignal+0x22>
ffffffff84006680:	12093783          	ld	a5,288(s2)
ffffffff84006684:	8b85                	andi	a5,a5,1
ffffffff84006686:	f3d1                	bnez	a5,ffffffff8400660a <sendSignal+0x22>
ffffffff84006688:	854a                	mv	a0,s2
ffffffff8400668a:	eb8fe0ef          	jal	ra,ffffffff84004d42 <possibleSwitchTo>
ffffffff8400668e:	bfb5                	j	ffffffff8400660a <sendSignal+0x22>
ffffffff84006690:	701c                	ld	a5,32(s0)
ffffffff84006692:	01979713          	slli	a4,a5,0x19
ffffffff84006696:	8365                	srli	a4,a4,0x19
ffffffff84006698:	9399                	srli	a5,a5,0x26
ffffffff8400669a:	8b85                	andi	a5,a5,1
ffffffff8400669c:	c3a9                	beqz	a5,ffffffff840066de <sendSignal+0xf6>
ffffffff8400669e:	547d                	li	s0,-1
ffffffff840066a0:	141e                	slli	s0,s0,0x27
ffffffff840066a2:	8c59                	or	s0,s0,a4
ffffffff840066a4:	6c1c                	ld	a5,24(s0)
ffffffff840066a6:	f3b5                	bnez	a5,ffffffff8400660a <sendSignal+0x22>
ffffffff840066a8:	85ca                	mv	a1,s2
ffffffff840066aa:	8522                	mv	a0,s0
ffffffff840066ac:	9edfe0ef          	jal	ra,ffffffff84005098 <schedContext_donate>
ffffffff840066b0:	00019797          	auipc	a5,0x19
ffffffff840066b4:	1787b783          	ld	a5,376(a5) # ffffffff8401f828 <ksCurSC>
ffffffff840066b8:	00878563          	beq	a5,s0,ffffffff840066c2 <sendSignal+0xda>
ffffffff840066bc:	8522                	mv	a0,s0
ffffffff840066be:	9bcfd0ef          	jal	ra,ffffffff8400387a <refill_unblock_check>
ffffffff840066c2:	8522                	mv	a0,s0
ffffffff840066c4:	e18ff0ef          	jal	ra,ffffffff84005cdc <schedContext_resume>
ffffffff840066c8:	11893783          	ld	a5,280(s2)
ffffffff840066cc:	8bbd                	andi	a5,a5,15
ffffffff840066ce:	17fd                	addi	a5,a5,-1
ffffffff840066d0:	4705                	li	a4,1
ffffffff840066d2:	f2f76ce3          	bltu	a4,a5,ffffffff8400660a <sendSignal+0x22>
ffffffff840066d6:	17093703          	ld	a4,368(s2)
ffffffff840066da:	db05                	beqz	a4,ffffffff8400660a <sendSignal+0x22>
ffffffff840066dc:	b745                	j	ffffffff8400667c <sendSignal+0x94>
ffffffff840066de:	d715                	beqz	a4,ffffffff8400660a <sendSignal+0x22>
ffffffff840066e0:	843a                	mv	s0,a4
ffffffff840066e2:	b7c9                	j	ffffffff840066a4 <sendSignal+0xbc>
ffffffff840066e4:	651c                	ld	a5,8(a0)
ffffffff840066e6:	01979913          	slli	s2,a5,0x19
ffffffff840066ea:	01995913          	srli	s2,s2,0x19
ffffffff840066ee:	9399                	srli	a5,a5,0x26
ffffffff840066f0:	8b85                	andi	a5,a5,1
ffffffff840066f2:	c789                	beqz	a5,ffffffff840066fc <sendSignal+0x114>
ffffffff840066f4:	57fd                	li	a5,-1
ffffffff840066f6:	179e                	slli	a5,a5,0x27
ffffffff840066f8:	00f96933          	or	s2,s2,a5
ffffffff840066fc:	01975613          	srli	a2,a4,0x19
ffffffff84006700:	00075563          	bgez	a4,ffffffff8400670a <sendSignal+0x122>
ffffffff84006704:	57fd                	li	a5,-1
ffffffff84006706:	179e                	slli	a5,a5,0x27
ffffffff84006708:	8e5d                	or	a2,a2,a5
ffffffff8400670a:	85ca                	mv	a1,s2
ffffffff8400670c:	854a                	mv	a0,s2
ffffffff8400670e:	bb5fe0ef          	jal	ra,ffffffff840052c2 <tcbEPDequeue>
ffffffff84006712:	e02a                	sd	a0,0(sp)
ffffffff84006714:	e42e                	sd	a1,8(sp)
ffffffff84006716:	6418                	ld	a4,8(s0)
ffffffff84006718:	57fd                	li	a5,-1
ffffffff8400671a:	02779693          	slli	a3,a5,0x27
ffffffff8400671e:	8f75                	and	a4,a4,a3
ffffffff84006720:	83e5                	srli	a5,a5,0x19
ffffffff84006722:	8fe9                	and	a5,a5,a0
ffffffff84006724:	8fd9                	or	a5,a5,a4
ffffffff84006726:	e41c                	sd	a5,8(s0)
ffffffff84006728:	601c                	ld	a5,0(s0)
ffffffff8400672a:	179e                	slli	a5,a5,0x27
ffffffff8400672c:	939d                	srli	a5,a5,0x27
ffffffff8400672e:	05e6                	slli	a1,a1,0x19
ffffffff84006730:	8fcd                	or	a5,a5,a1
ffffffff84006732:	c121                	beqz	a0,ffffffff84006772 <sendSignal+0x18a>
ffffffff84006734:	e01c                	sd	a5,0(s0)
ffffffff84006736:	4585                	li	a1,1
ffffffff84006738:	854a                	mv	a0,s2
ffffffff8400673a:	b64fe0ef          	jal	ra,ffffffff84004a9e <setThreadState>
ffffffff8400673e:	04993423          	sd	s1,72(s2)
ffffffff84006742:	17093783          	ld	a5,368(s2)
ffffffff84006746:	cb8d                	beqz	a5,ffffffff84006778 <sendSignal+0x190>
ffffffff84006748:	11893783          	ld	a5,280(s2)
ffffffff8400674c:	8bbd                	andi	a5,a5,15
ffffffff8400674e:	17fd                	addi	a5,a5,-1
ffffffff84006750:	4705                	li	a4,1
ffffffff84006752:	eaf76ce3          	bltu	a4,a5,ffffffff8400660a <sendSignal+0x22>
ffffffff84006756:	17093783          	ld	a5,368(s2)
ffffffff8400675a:	63bc                	ld	a5,64(a5)
ffffffff8400675c:	ea0787e3          	beqz	a5,ffffffff8400660a <sendSignal+0x22>
ffffffff84006760:	12093783          	ld	a5,288(s2)
ffffffff84006764:	8b85                	andi	a5,a5,1
ffffffff84006766:	ea0792e3          	bnez	a5,ffffffff8400660a <sendSignal+0x22>
ffffffff8400676a:	854a                	mv	a0,s2
ffffffff8400676c:	dd6fe0ef          	jal	ra,ffffffff84004d42 <possibleSwitchTo>
ffffffff84006770:	bd69                	j	ffffffff8400660a <sendSignal+0x22>
ffffffff84006772:	9bf1                	andi	a5,a5,-4
ffffffff84006774:	e01c                	sd	a5,0(s0)
ffffffff84006776:	b7c1                	j	ffffffff84006736 <sendSignal+0x14e>
ffffffff84006778:	701c                	ld	a5,32(s0)
ffffffff8400677a:	01979713          	slli	a4,a5,0x19
ffffffff8400677e:	8365                	srli	a4,a4,0x19
ffffffff84006780:	9399                	srli	a5,a5,0x26
ffffffff84006782:	8b85                	andi	a5,a5,1
ffffffff84006784:	c3b9                	beqz	a5,ffffffff840067ca <sendSignal+0x1e2>
ffffffff84006786:	547d                	li	s0,-1
ffffffff84006788:	141e                	slli	s0,s0,0x27
ffffffff8400678a:	8c59                	or	s0,s0,a4
ffffffff8400678c:	6c1c                	ld	a5,24(s0)
ffffffff8400678e:	e6079ee3          	bnez	a5,ffffffff8400660a <sendSignal+0x22>
ffffffff84006792:	85ca                	mv	a1,s2
ffffffff84006794:	8522                	mv	a0,s0
ffffffff84006796:	903fe0ef          	jal	ra,ffffffff84005098 <schedContext_donate>
ffffffff8400679a:	00019797          	auipc	a5,0x19
ffffffff8400679e:	08e7b783          	ld	a5,142(a5) # ffffffff8401f828 <ksCurSC>
ffffffff840067a2:	00878563          	beq	a5,s0,ffffffff840067ac <sendSignal+0x1c4>
ffffffff840067a6:	8522                	mv	a0,s0
ffffffff840067a8:	8d2fd0ef          	jal	ra,ffffffff8400387a <refill_unblock_check>
ffffffff840067ac:	8522                	mv	a0,s0
ffffffff840067ae:	d2eff0ef          	jal	ra,ffffffff84005cdc <schedContext_resume>
ffffffff840067b2:	11893783          	ld	a5,280(s2)
ffffffff840067b6:	8bbd                	andi	a5,a5,15
ffffffff840067b8:	17fd                	addi	a5,a5,-1
ffffffff840067ba:	4705                	li	a4,1
ffffffff840067bc:	e4f767e3          	bltu	a4,a5,ffffffff8400660a <sendSignal+0x22>
ffffffff840067c0:	17093783          	ld	a5,368(s2)
ffffffff840067c4:	e40783e3          	beqz	a5,ffffffff8400660a <sendSignal+0x22>
ffffffff840067c8:	bf49                	j	ffffffff8400675a <sendSignal+0x172>
ffffffff840067ca:	e40700e3          	beqz	a4,ffffffff8400660a <sendSignal+0x22>
ffffffff840067ce:	843a                	mv	s0,a4
ffffffff840067d0:	bf75                	j	ffffffff8400678c <sendSignal+0x1a4>
ffffffff840067d2:	690c                	ld	a1,16(a0)
ffffffff840067d4:	8ccd                	or	s1,s1,a1
ffffffff840067d6:	e904                	sd	s1,16(a0)
ffffffff840067d8:	bd0d                	j	ffffffff8400660a <sendSignal+0x22>

ffffffff840067da <handleInterrupt>:
ffffffff840067da:	03600793          	li	a5,54
ffffffff840067de:	06a7e063          	bltu	a5,a0,ffffffff8400683e <handleInterrupt+0x64>
ffffffff840067e2:	00351713          	slli	a4,a0,0x3
ffffffff840067e6:	00007797          	auipc	a5,0x7
ffffffff840067ea:	81a78793          	addi	a5,a5,-2022 # ffffffff8400d000 <riscvKSASIDTable>
ffffffff840067ee:	97ba                	add	a5,a5,a4
ffffffff840067f0:	4587b783          	ld	a5,1112(a5)
ffffffff840067f4:	4709                	li	a4,2
ffffffff840067f6:	08e78563          	beq	a5,a4,ffffffff84006880 <handleInterrupt+0xa6>
ffffffff840067fa:	1141                	addi	sp,sp,-16
ffffffff840067fc:	e406                	sd	ra,8(sp)
ffffffff840067fe:	06f76763          	bltu	a4,a5,ffffffff8400686c <handleInterrupt+0x92>
ffffffff84006802:	cbc9                	beqz	a5,ffffffff84006894 <handleInterrupt+0xba>
ffffffff84006804:	0516                	slli	a0,a0,0x5
ffffffff84006806:	00007797          	auipc	a5,0x7
ffffffff8400680a:	7fa78793          	addi	a5,a5,2042 # ffffffff8400e000 <intStateIRQNode>
ffffffff8400680e:	97aa                	add	a5,a5,a0
ffffffff84006810:	6398                	ld	a4,0(a5)
ffffffff84006812:	03b75613          	srli	a2,a4,0x3b
ffffffff84006816:	4699                	li	a3,6
ffffffff84006818:	04d61d63          	bne	a2,a3,ffffffff84006872 <handleInterrupt+0x98>
ffffffff8400681c:	03975693          	srli	a3,a4,0x39
ffffffff84006820:	8a85                	andi	a3,a3,1
ffffffff84006822:	caa1                	beqz	a3,ffffffff84006872 <handleInterrupt+0x98>
ffffffff84006824:	01971513          	slli	a0,a4,0x19
ffffffff84006828:	8165                	srli	a0,a0,0x19
ffffffff8400682a:	9319                	srli	a4,a4,0x26
ffffffff8400682c:	8b05                	andi	a4,a4,1
ffffffff8400682e:	c701                	beqz	a4,ffffffff84006836 <handleInterrupt+0x5c>
ffffffff84006830:	577d                	li	a4,-1
ffffffff84006832:	171e                	slli	a4,a4,0x27
ffffffff84006834:	8d59                	or	a0,a0,a4
ffffffff84006836:	678c                	ld	a1,8(a5)
ffffffff84006838:	db1ff0ef          	jal	ra,ffffffff840065e8 <sendSignal>
ffffffff8400683c:	a81d                	j	ffffffff84006872 <handleInterrupt+0x98>
ffffffff8400683e:	00555713          	srli	a4,a0,0x5
ffffffff84006842:	070a                	slli	a4,a4,0x2
ffffffff84006844:	c00027b7          	lui	a5,0xc0002
ffffffff84006848:	10078793          	addi	a5,a5,256 # ffffffffc0002100 <ki_end+0x3bfdd100>
ffffffff8400684c:	973e                	add	a4,a4,a5
ffffffff8400684e:	4314                	lw	a3,0(a4)
ffffffff84006850:	897d                	andi	a0,a0,31
ffffffff84006852:	4785                	li	a5,1
ffffffff84006854:	00a79533          	sll	a0,a5,a0
ffffffff84006858:	fff54793          	not	a5,a0
ffffffff8400685c:	8ff5                	and	a5,a5,a3
ffffffff8400685e:	2781                	sext.w	a5,a5
ffffffff84006860:	c31c                	sw	a5,0(a4)
ffffffff84006862:	00019797          	auipc	a5,0x19
ffffffff84006866:	0007a723          	sw	zero,14(a5) # ffffffff8401f870 <active_irq>
ffffffff8400686a:	8082                	ret
ffffffff8400686c:	470d                	li	a4,3
ffffffff8400686e:	04e79f63          	bne	a5,a4,ffffffff840068cc <handleInterrupt+0xf2>
ffffffff84006872:	00019797          	auipc	a5,0x19
ffffffff84006876:	fe07af23          	sw	zero,-2(a5) # ffffffff8401f870 <active_irq>
ffffffff8400687a:	60a2                	ld	ra,8(sp)
ffffffff8400687c:	0141                	addi	sp,sp,16
ffffffff8400687e:	8082                	ret
ffffffff84006880:	4785                	li	a5,1
ffffffff84006882:	00019717          	auipc	a4,0x19
ffffffff84006886:	faf73b23          	sd	a5,-74(a4) # ffffffff8401f838 <ksReprogram>
ffffffff8400688a:	00019797          	auipc	a5,0x19
ffffffff8400688e:	fe07a323          	sw	zero,-26(a5) # ffffffff8401f870 <active_irq>
ffffffff84006892:	8082                	ret
ffffffff84006894:	03600793          	li	a5,54
ffffffff84006898:	00f51763          	bne	a0,a5,ffffffff840068a6 <handleInterrupt+0xcc>
ffffffff8400689c:	02000793          	li	a5,32
ffffffff840068a0:	1047b7f3          	csrrc	a5,sie,a5
ffffffff840068a4:	b7f9                	j	ffffffff84006872 <handleInterrupt+0x98>
ffffffff840068a6:	00555713          	srli	a4,a0,0x5
ffffffff840068aa:	070a                	slli	a4,a4,0x2
ffffffff840068ac:	c00027b7          	lui	a5,0xc0002
ffffffff840068b0:	10078793          	addi	a5,a5,256 # ffffffffc0002100 <ki_end+0x3bfdd100>
ffffffff840068b4:	973e                	add	a4,a4,a5
ffffffff840068b6:	4314                	lw	a3,0(a4)
ffffffff840068b8:	897d                	andi	a0,a0,31
ffffffff840068ba:	4785                	li	a5,1
ffffffff840068bc:	00a79533          	sll	a0,a5,a0
ffffffff840068c0:	fff54793          	not	a5,a0
ffffffff840068c4:	8ff5                	and	a5,a5,a3
ffffffff840068c6:	2781                	sext.w	a5,a5
ffffffff840068c8:	c31c                	sw	a5,0(a4)
ffffffff840068ca:	b765                	j	ffffffff84006872 <handleInterrupt+0x98>
ffffffff840068cc:	999fb0ef          	jal	ra,ffffffff84002264 <halt>

ffffffff840068d0 <performInvocation_Notification>:
ffffffff840068d0:	1141                	addi	sp,sp,-16
ffffffff840068d2:	e406                	sd	ra,8(sp)
ffffffff840068d4:	d15ff0ef          	jal	ra,ffffffff840065e8 <sendSignal>
ffffffff840068d8:	4501                	li	a0,0
ffffffff840068da:	60a2                	ld	ra,8(sp)
ffffffff840068dc:	0141                	addi	sp,sp,16
ffffffff840068de:	8082                	ret

ffffffff840068e0 <tcbReleaseDequeue>:
ffffffff840068e0:	00019717          	auipc	a4,0x19
ffffffff840068e4:	f8070713          	addi	a4,a4,-128 # ffffffff8401f860 <ksReleaseHead>
ffffffff840068e8:	6308                	ld	a0,0(a4)
ffffffff840068ea:	18853783          	ld	a5,392(a0)
ffffffff840068ee:	e31c                	sd	a5,0(a4)
ffffffff840068f0:	cb91                	beqz	a5,ffffffff84006904 <tcbReleaseDequeue+0x24>
ffffffff840068f2:	1807b823          	sd	zero,400(a5)
ffffffff840068f6:	18853783          	ld	a5,392(a0)
ffffffff840068fa:	c789                	beqz	a5,ffffffff84006904 <tcbReleaseDequeue+0x24>
ffffffff840068fc:	1807b823          	sd	zero,400(a5)
ffffffff84006900:	18053423          	sd	zero,392(a0)
ffffffff84006904:	12053783          	ld	a5,288(a0)
ffffffff84006908:	9bf9                	andi	a5,a5,-2
ffffffff8400690a:	12f53023          	sd	a5,288(a0)
ffffffff8400690e:	4785                	li	a5,1
ffffffff84006910:	00019717          	auipc	a4,0x19
ffffffff84006914:	f2f73423          	sd	a5,-216(a4) # ffffffff8401f838 <ksReprogram>
ffffffff84006918:	8082                	ret

ffffffff8400691a <awaken>:
ffffffff8400691a:	00019797          	auipc	a5,0x19
ffffffff8400691e:	f467b783          	ld	a5,-186(a5) # ffffffff8401f860 <ksReleaseHead>
ffffffff84006922:	e391                	bnez	a5,ffffffff84006926 <awaken+0xc>
ffffffff84006924:	8082                	ret
ffffffff84006926:	7179                	addi	sp,sp,-48
ffffffff84006928:	f406                	sd	ra,40(sp)
ffffffff8400692a:	f022                	sd	s0,32(sp)
ffffffff8400692c:	ec26                	sd	s1,24(sp)
ffffffff8400692e:	e84a                	sd	s2,16(sp)
ffffffff84006930:	e44e                	sd	s3,8(sp)
ffffffff84006932:	00019417          	auipc	s0,0x19
ffffffff84006936:	efe40413          	addi	s0,s0,-258 # ffffffff8401f830 <ksCurTime>
ffffffff8400693a:	00019997          	auipc	s3,0x19
ffffffff8400693e:	efe98993          	addi	s3,s3,-258 # ffffffff8401f838 <ksReprogram>
ffffffff84006942:	4905                	li	s2,1
ffffffff84006944:	00019497          	auipc	s1,0x19
ffffffff84006948:	f1c48493          	addi	s1,s1,-228 # ffffffff8401f860 <ksReleaseHead>
ffffffff8400694c:	1707b783          	ld	a5,368(a5)
ffffffff84006950:	67b8                	ld	a4,72(a5)
ffffffff84006952:	0712                	slli	a4,a4,0x4
ffffffff84006954:	97ba                	add	a5,a5,a4
ffffffff84006956:	6018                	ld	a4,0(s0)
ffffffff84006958:	0729                	addi	a4,a4,10
ffffffff8400695a:	6fbc                	ld	a5,88(a5)
ffffffff8400695c:	00f77963          	bgeu	a4,a5,ffffffff8400696e <awaken+0x54>
ffffffff84006960:	70a2                	ld	ra,40(sp)
ffffffff84006962:	7402                	ld	s0,32(sp)
ffffffff84006964:	64e2                	ld	s1,24(sp)
ffffffff84006966:	6942                	ld	s2,16(sp)
ffffffff84006968:	69a2                	ld	s3,8(sp)
ffffffff8400696a:	6145                	addi	sp,sp,48
ffffffff8400696c:	8082                	ret
ffffffff8400696e:	f73ff0ef          	jal	ra,ffffffff840068e0 <tcbReleaseDequeue>
ffffffff84006972:	bd0fe0ef          	jal	ra,ffffffff84004d42 <possibleSwitchTo>
ffffffff84006976:	0129b023          	sd	s2,0(s3)
ffffffff8400697a:	609c                	ld	a5,0(s1)
ffffffff8400697c:	d3f5                	beqz	a5,ffffffff84006960 <awaken+0x46>
ffffffff8400697e:	b7f9                	j	ffffffff8400694c <awaken+0x32>

ffffffff84006980 <getExtraCPtr>:
ffffffff84006980:	07a58593          	addi	a1,a1,122
ffffffff84006984:	058e                	slli	a1,a1,0x3
ffffffff84006986:	952e                	add	a0,a0,a1
ffffffff84006988:	6108                	ld	a0,0(a0)
ffffffff8400698a:	8082                	ret

ffffffff8400698c <setExtraBadge>:
ffffffff8400698c:	07a60613          	addi	a2,a2,122
ffffffff84006990:	060e                	slli	a2,a2,0x3
ffffffff84006992:	9532                	add	a0,a0,a2
ffffffff84006994:	e10c                	sd	a1,0(a0)
ffffffff84006996:	8082                	ret

ffffffff84006998 <lookupExtraCaps>:
ffffffff84006998:	c1bd                	beqz	a1,ffffffff840069fe <lookupExtraCaps+0x66>
ffffffff8400699a:	715d                	addi	sp,sp,-80
ffffffff8400699c:	e486                	sd	ra,72(sp)
ffffffff8400699e:	e0a2                	sd	s0,64(sp)
ffffffff840069a0:	fc26                	sd	s1,56(sp)
ffffffff840069a2:	f84a                	sd	s2,48(sp)
ffffffff840069a4:	f44e                	sd	s3,40(sp)
ffffffff840069a6:	f052                	sd	s4,32(sp)
ffffffff840069a8:	ec56                	sd	s5,24(sp)
ffffffff840069aa:	8a2a                	mv	s4,a0
ffffffff840069ac:	821d                	srli	a2,a2,0x7
ffffffff840069ae:	00367993          	andi	s3,a2,3
ffffffff840069b2:	02098c63          	beqz	s3,ffffffff840069ea <lookupExtraCaps+0x52>
ffffffff840069b6:	3d058413          	addi	s0,a1,976
ffffffff840069ba:	00007917          	auipc	s2,0x7
ffffffff840069be:	ed690913          	addi	s2,s2,-298 # ffffffff8400d890 <current_extra_caps>
ffffffff840069c2:	4481                	li	s1,0
ffffffff840069c4:	00043a83          	ld	s5,0(s0)
ffffffff840069c8:	85d6                	mv	a1,s5
ffffffff840069ca:	8552                	mv	a0,s4
ffffffff840069cc:	8a9fc0ef          	jal	ra,ffffffff84003274 <lookupSlot>
ffffffff840069d0:	e42e                	sd	a1,8(sp)
ffffffff840069d2:	ed05                	bnez	a0,ffffffff84006a0a <lookupExtraCaps+0x72>
ffffffff840069d4:	67a2                	ld	a5,8(sp)
ffffffff840069d6:	00f93023          	sd	a5,0(s2)
ffffffff840069da:	0485                	addi	s1,s1,1
ffffffff840069dc:	0421                	addi	s0,s0,8
ffffffff840069de:	0921                	addi	s2,s2,8
ffffffff840069e0:	ff3492e3          	bne	s1,s3,ffffffff840069c4 <lookupExtraCaps+0x2c>
ffffffff840069e4:	4789                	li	a5,2
ffffffff840069e6:	0337eb63          	bltu	a5,s3,ffffffff84006a1c <lookupExtraCaps+0x84>
ffffffff840069ea:	098e                	slli	s3,s3,0x3
ffffffff840069ec:	00007797          	auipc	a5,0x7
ffffffff840069f0:	61478793          	addi	a5,a5,1556 # ffffffff8400e000 <intStateIRQNode>
ffffffff840069f4:	99be                	add	s3,s3,a5
ffffffff840069f6:	8809b823          	sd	zero,-1904(s3)
ffffffff840069fa:	4501                	li	a0,0
ffffffff840069fc:	a005                	j	ffffffff84006a1c <lookupExtraCaps+0x84>
ffffffff840069fe:	00007797          	auipc	a5,0x7
ffffffff84006a02:	e807b923          	sd	zero,-366(a5) # ffffffff8400d890 <current_extra_caps>
ffffffff84006a06:	4501                	li	a0,0
ffffffff84006a08:	8082                	ret
ffffffff84006a0a:	00006797          	auipc	a5,0x6
ffffffff84006a0e:	5f678793          	addi	a5,a5,1526 # ffffffff8400d000 <riscvKSASIDTable>
ffffffff84006a12:	4705                	li	a4,1
ffffffff84006a14:	44e7b423          	sd	a4,1096(a5)
ffffffff84006a18:	4557b823          	sd	s5,1104(a5)
ffffffff84006a1c:	60a6                	ld	ra,72(sp)
ffffffff84006a1e:	6406                	ld	s0,64(sp)
ffffffff84006a20:	74e2                	ld	s1,56(sp)
ffffffff84006a22:	7942                	ld	s2,48(sp)
ffffffff84006a24:	79a2                	ld	s3,40(sp)
ffffffff84006a26:	7a02                	ld	s4,32(sp)
ffffffff84006a28:	6ae2                	ld	s5,24(sp)
ffffffff84006a2a:	6161                	addi	sp,sp,80
ffffffff84006a2c:	8082                	ret

ffffffff84006a2e <copyMRs>:
ffffffff84006a2e:	87aa                	mv	a5,a0
ffffffff84006a30:	853a                	mv	a0,a4
ffffffff84006a32:	cf31                	beqz	a4,ffffffff84006a8e <copyMRs+0x60>
ffffffff84006a34:	6fb8                	ld	a4,88(a5)
ffffffff84006a36:	ee38                	sd	a4,88(a2)
ffffffff84006a38:	4705                	li	a4,1
ffffffff84006a3a:	04a77463          	bgeu	a4,a0,ffffffff84006a82 <copyMRs+0x54>
ffffffff84006a3e:	73b8                	ld	a4,96(a5)
ffffffff84006a40:	f238                	sd	a4,96(a2)
ffffffff84006a42:	4709                	li	a4,2
ffffffff84006a44:	04a77163          	bgeu	a4,a0,ffffffff84006a86 <copyMRs+0x58>
ffffffff84006a48:	77b8                	ld	a4,104(a5)
ffffffff84006a4a:	f638                	sd	a4,104(a2)
ffffffff84006a4c:	470d                	li	a4,3
ffffffff84006a4e:	02a77e63          	bgeu	a4,a0,ffffffff84006a8a <copyMRs+0x5c>
ffffffff84006a52:	7bbc                	ld	a5,112(a5)
ffffffff84006a54:	fa3c                	sd	a5,112(a2)
ffffffff84006a56:	4791                	li	a5,4
ffffffff84006a58:	ce8d                	beqz	a3,ffffffff84006a92 <copyMRs+0x64>
ffffffff84006a5a:	cd95                	beqz	a1,ffffffff84006a96 <copyMRs+0x68>
ffffffff84006a5c:	02a7ff63          	bgeu	a5,a0,ffffffff84006a9a <copyMRs+0x6c>
ffffffff84006a60:	0785                	addi	a5,a5,1
ffffffff84006a62:	078e                	slli	a5,a5,0x3
ffffffff84006a64:	00150713          	addi	a4,a0,1
ffffffff84006a68:	070e                	slli	a4,a4,0x3
ffffffff84006a6a:	00f58633          	add	a2,a1,a5
ffffffff84006a6e:	00063803          	ld	a6,0(a2)
ffffffff84006a72:	00f68633          	add	a2,a3,a5
ffffffff84006a76:	01063023          	sd	a6,0(a2)
ffffffff84006a7a:	07a1                	addi	a5,a5,8
ffffffff84006a7c:	fee797e3          	bne	a5,a4,ffffffff84006a6a <copyMRs+0x3c>
ffffffff84006a80:	8082                	ret
ffffffff84006a82:	4785                	li	a5,1
ffffffff84006a84:	bfd1                	j	ffffffff84006a58 <copyMRs+0x2a>
ffffffff84006a86:	4789                	li	a5,2
ffffffff84006a88:	bfc1                	j	ffffffff84006a58 <copyMRs+0x2a>
ffffffff84006a8a:	478d                	li	a5,3
ffffffff84006a8c:	b7f1                	j	ffffffff84006a58 <copyMRs+0x2a>
ffffffff84006a8e:	87ba                	mv	a5,a4
ffffffff84006a90:	b7e1                	j	ffffffff84006a58 <copyMRs+0x2a>
ffffffff84006a92:	853e                	mv	a0,a5
ffffffff84006a94:	8082                	ret
ffffffff84006a96:	853e                	mv	a0,a5
ffffffff84006a98:	8082                	ret
ffffffff84006a9a:	853e                	mv	a0,a5
ffffffff84006a9c:	8082                	ret

ffffffff84006a9e <doNormalTransfer>:
ffffffff84006a9e:	7131                	addi	sp,sp,-192
ffffffff84006aa0:	fd06                	sd	ra,184(sp)
ffffffff84006aa2:	f922                	sd	s0,176(sp)
ffffffff84006aa4:	f526                	sd	s1,168(sp)
ffffffff84006aa6:	f14a                	sd	s2,160(sp)
ffffffff84006aa8:	ed4e                	sd	s3,152(sp)
ffffffff84006aaa:	e952                	sd	s4,144(sp)
ffffffff84006aac:	e556                	sd	s5,136(sp)
ffffffff84006aae:	e15a                	sd	s6,128(sp)
ffffffff84006ab0:	fcde                	sd	s7,120(sp)
ffffffff84006ab2:	f8e2                	sd	s8,112(sp)
ffffffff84006ab4:	f4e6                	sd	s9,104(sp)
ffffffff84006ab6:	f0ea                	sd	s10,96(sp)
ffffffff84006ab8:	ecee                	sd	s11,88(sp)
ffffffff84006aba:	892a                	mv	s2,a0
ffffffff84006abc:	8b2e                	mv	s6,a1
ffffffff84006abe:	8ab2                	mv	s5,a2
ffffffff84006ac0:	8a36                	mv	s4,a3
ffffffff84006ac2:	84be                	mv	s1,a5
ffffffff84006ac4:	89c2                	mv	s3,a6
ffffffff84006ac6:	6920                	ld	s0,80(a0)
ffffffff84006ac8:	07f47693          	andi	a3,s0,127
ffffffff84006acc:	07800793          	li	a5,120
ffffffff84006ad0:	00d7f663          	bgeu	a5,a3,ffffffff84006adc <doNormalTransfer+0x3e>
ffffffff84006ad4:	f8047413          	andi	s0,s0,-128
ffffffff84006ad8:	07846413          	ori	s0,s0,120
ffffffff84006adc:	ef39                	bnez	a4,ffffffff84006b3a <doNormalTransfer+0x9c>
ffffffff84006ade:	00007797          	auipc	a5,0x7
ffffffff84006ae2:	da07b923          	sd	zero,-590(a5) # ffffffff8400d890 <current_extra_caps>
ffffffff84006ae6:	07f47713          	andi	a4,s0,127
ffffffff84006aea:	86ce                	mv	a3,s3
ffffffff84006aec:	8626                	mv	a2,s1
ffffffff84006aee:	85da                	mv	a1,s6
ffffffff84006af0:	854a                	mv	a0,s2
ffffffff84006af2:	f3dff0ef          	jal	ra,ffffffff84006a2e <copyMRs>
ffffffff84006af6:	892a                	mv	s2,a0
ffffffff84006af8:	77fd                	lui	a5,0xfffff
ffffffff84006afa:	07f78793          	addi	a5,a5,127 # fffffffffffff07f <ki_end+0x7bfda07f>
ffffffff84006afe:	8c7d                	and	s0,s0,a5
ffffffff84006b00:	00007797          	auipc	a5,0x7
ffffffff84006b04:	d907b783          	ld	a5,-624(a5) # ffffffff8400d890 <current_extra_caps>
ffffffff84006b08:	e7a1                	bnez	a5,ffffffff84006b50 <doNormalTransfer+0xb2>
ffffffff84006b0a:	f8047413          	andi	s0,s0,-128
ffffffff84006b0e:	07f97913          	andi	s2,s2,127
ffffffff84006b12:	01246433          	or	s0,s0,s2
ffffffff84006b16:	e8a0                	sd	s0,80(s1)
ffffffff84006b18:	0544b423          	sd	s4,72(s1)
ffffffff84006b1c:	70ea                	ld	ra,184(sp)
ffffffff84006b1e:	744a                	ld	s0,176(sp)
ffffffff84006b20:	74aa                	ld	s1,168(sp)
ffffffff84006b22:	790a                	ld	s2,160(sp)
ffffffff84006b24:	69ea                	ld	s3,152(sp)
ffffffff84006b26:	6a4a                	ld	s4,144(sp)
ffffffff84006b28:	6aaa                	ld	s5,136(sp)
ffffffff84006b2a:	6b0a                	ld	s6,128(sp)
ffffffff84006b2c:	7be6                	ld	s7,120(sp)
ffffffff84006b2e:	7c46                	ld	s8,112(sp)
ffffffff84006b30:	7ca6                	ld	s9,104(sp)
ffffffff84006b32:	7d06                	ld	s10,96(sp)
ffffffff84006b34:	6de6                	ld	s11,88(sp)
ffffffff84006b36:	6129                	addi	sp,sp,192
ffffffff84006b38:	8082                	ret
ffffffff84006b3a:	8622                	mv	a2,s0
ffffffff84006b3c:	85da                	mv	a1,s6
ffffffff84006b3e:	854a                	mv	a0,s2
ffffffff84006b40:	e59ff0ef          	jal	ra,ffffffff84006998 <lookupExtraCaps>
ffffffff84006b44:	d14d                	beqz	a0,ffffffff84006ae6 <doNormalTransfer+0x48>
ffffffff84006b46:	00007797          	auipc	a5,0x7
ffffffff84006b4a:	d407b523          	sd	zero,-694(a5) # ffffffff8400d890 <current_extra_caps>
ffffffff84006b4e:	bf61                	j	ffffffff84006ae6 <doNormalTransfer+0x48>
ffffffff84006b50:	fa098de3          	beqz	s3,ffffffff84006b0a <doNormalTransfer+0x6c>
ffffffff84006b54:	85ce                	mv	a1,s3
ffffffff84006b56:	8526                	mv	a0,s1
ffffffff84006b58:	feffc0ef          	jal	ra,ffffffff84003b46 <getReceiveSlots>
ffffffff84006b5c:	8c2a                	mv	s8,a0
ffffffff84006b5e:	00007c97          	auipc	s9,0x7
ffffffff84006b62:	d32c8c93          	addi	s9,s9,-718 # ffffffff8400d890 <current_extra_caps>
ffffffff84006b66:	3d098993          	addi	s3,s3,976
ffffffff84006b6a:	4b81                	li	s7,0
ffffffff84006b6c:	5d7d                	li	s10,-1
ffffffff84006b6e:	019d5d93          	srli	s11,s10,0x19
ffffffff84006b72:	4785                	li	a5,1
ffffffff84006b74:	179a                	slli	a5,a5,0x26
ffffffff84006b76:	e43e                	sd	a5,8(sp)
ffffffff84006b78:	6785                	lui	a5,0x1
ffffffff84006b7a:	e0078793          	addi	a5,a5,-512 # e00 <KERNEL_OFFSET-0xfffffffefffff200>
ffffffff84006b7e:	e83e                	sd	a5,16(sp)
ffffffff84006b80:	77fd                	lui	a5,0xfffff
ffffffff84006b82:	1ff78793          	addi	a5,a5,511 # fffffffffffff1ff <ki_end+0x7bfda1ff>
ffffffff84006b86:	ec3e                	sd	a5,24(sp)
ffffffff84006b88:	a81d                	j	ffffffff84006bbe <doNormalTransfer+0x120>
ffffffff84006b8a:	080c0363          	beqz	s8,ffffffff84006c10 <doNormalTransfer+0x172>
ffffffff84006b8e:	f432                	sd	a2,40(sp)
ffffffff84006b90:	f836                	sd	a3,48(sp)
ffffffff84006b92:	85da                	mv	a1,s6
ffffffff84006b94:	1828                	addi	a0,sp,56
ffffffff84006b96:	941fd0ef          	jal	ra,ffffffff840044d6 <deriveCap>
ffffffff84006b9a:	77e2                	ld	a5,56(sp)
ffffffff84006b9c:	ebb5                	bnez	a5,ffffffff84006c10 <doNormalTransfer+0x172>
ffffffff84006b9e:	6786                	ld	a5,64(sp)
ffffffff84006ba0:	93ed                	srli	a5,a5,0x3b
ffffffff84006ba2:	c7bd                	beqz	a5,ffffffff84006c10 <doNormalTransfer+0x172>
ffffffff84006ba4:	86e2                	mv	a3,s8
ffffffff84006ba6:	865a                	mv	a2,s6
ffffffff84006ba8:	6506                	ld	a0,64(sp)
ffffffff84006baa:	65a6                	ld	a1,72(sp)
ffffffff84006bac:	ad9fd0ef          	jal	ra,ffffffff84004684 <cteInsert>
ffffffff84006bb0:	4c01                	li	s8,0
ffffffff84006bb2:	0b85                	addi	s7,s7,1
ffffffff84006bb4:	0ca1                	addi	s9,s9,8
ffffffff84006bb6:	09a1                	addi	s3,s3,8
ffffffff84006bb8:	478d                	li	a5,3
ffffffff84006bba:	04fb8b63          	beq	s7,a5,ffffffff84006c10 <doNormalTransfer+0x172>
ffffffff84006bbe:	000cbb03          	ld	s6,0(s9)
ffffffff84006bc2:	040b0763          	beqz	s6,ffffffff84006c10 <doNormalTransfer+0x172>
ffffffff84006bc6:	000b3603          	ld	a2,0(s6) # fffffffffe000000 <ki_end+0x79fdb000>
ffffffff84006bca:	f432                	sd	a2,40(sp)
ffffffff84006bcc:	008b3683          	ld	a3,8(s6)
ffffffff84006bd0:	f836                	sd	a3,48(sp)
ffffffff84006bd2:	03b65713          	srli	a4,a2,0x3b
ffffffff84006bd6:	4791                	li	a5,4
ffffffff84006bd8:	faf719e3          	bne	a4,a5,ffffffff84006b8a <doNormalTransfer+0xec>
ffffffff84006bdc:	01b677b3          	and	a5,a2,s11
ffffffff84006be0:	6722                	ld	a4,8(sp)
ffffffff84006be2:	8f71                	and	a4,a4,a2
ffffffff84006be4:	c701                	beqz	a4,ffffffff84006bec <doNormalTransfer+0x14e>
ffffffff84006be6:	027d1713          	slli	a4,s10,0x27
ffffffff84006bea:	8fd9                	or	a5,a5,a4
ffffffff84006bec:	f8fa9fe3          	bne	s5,a5,ffffffff84006b8a <doNormalTransfer+0xec>
ffffffff84006bf0:	00d9b023          	sd	a3,0(s3)
ffffffff84006bf4:	00945793          	srli	a5,s0,0x9
ffffffff84006bf8:	8b9d                	andi	a5,a5,7
ffffffff84006bfa:	4705                	li	a4,1
ffffffff84006bfc:	0177173b          	sllw	a4,a4,s7
ffffffff84006c00:	8fd9                	or	a5,a5,a4
ffffffff84006c02:	07a6                	slli	a5,a5,0x9
ffffffff84006c04:	6742                	ld	a4,16(sp)
ffffffff84006c06:	8ff9                	and	a5,a5,a4
ffffffff84006c08:	6762                	ld	a4,24(sp)
ffffffff84006c0a:	8c79                	and	s0,s0,a4
ffffffff84006c0c:	8c5d                	or	s0,s0,a5
ffffffff84006c0e:	b755                	j	ffffffff84006bb2 <doNormalTransfer+0x114>
ffffffff84006c10:	007b9793          	slli	a5,s7,0x7
ffffffff84006c14:	1807f793          	andi	a5,a5,384
ffffffff84006c18:	8c5d                	or	s0,s0,a5
ffffffff84006c1a:	bdc5                	j	ffffffff84006b0a <doNormalTransfer+0x6c>

ffffffff84006c1c <doIPCTransfer>:
ffffffff84006c1c:	7139                	addi	sp,sp,-64
ffffffff84006c1e:	fc06                	sd	ra,56(sp)
ffffffff84006c20:	f822                	sd	s0,48(sp)
ffffffff84006c22:	f426                	sd	s1,40(sp)
ffffffff84006c24:	f04a                	sd	s2,32(sp)
ffffffff84006c26:	ec4e                	sd	s3,24(sp)
ffffffff84006c28:	e852                	sd	s4,16(sp)
ffffffff84006c2a:	e456                	sd	s5,8(sp)
ffffffff84006c2c:	842a                	mv	s0,a0
ffffffff84006c2e:	8aae                	mv	s5,a1
ffffffff84006c30:	8932                	mv	s2,a2
ffffffff84006c32:	8a36                	mv	s4,a3
ffffffff84006c34:	84ba                	mv	s1,a4
ffffffff84006c36:	85ba                	mv	a1,a4
ffffffff84006c38:	4505                	li	a0,1
ffffffff84006c3a:	92ffb0ef          	jal	ra,ffffffff84002568 <lookupIPCBuffer>
ffffffff84006c3e:	89aa                	mv	s3,a0
ffffffff84006c40:	13843783          	ld	a5,312(s0)
ffffffff84006c44:	8bbd                	andi	a5,a5,15
ffffffff84006c46:	e79d                	bnez	a5,ffffffff84006c74 <doIPCTransfer+0x58>
ffffffff84006c48:	85a2                	mv	a1,s0
ffffffff84006c4a:	4501                	li	a0,0
ffffffff84006c4c:	91dfb0ef          	jal	ra,ffffffff84002568 <lookupIPCBuffer>
ffffffff84006c50:	85aa                	mv	a1,a0
ffffffff84006c52:	884e                	mv	a6,s3
ffffffff84006c54:	87a6                	mv	a5,s1
ffffffff84006c56:	8752                	mv	a4,s4
ffffffff84006c58:	86ca                	mv	a3,s2
ffffffff84006c5a:	8656                	mv	a2,s5
ffffffff84006c5c:	8522                	mv	a0,s0
ffffffff84006c5e:	e41ff0ef          	jal	ra,ffffffff84006a9e <doNormalTransfer>
ffffffff84006c62:	70e2                	ld	ra,56(sp)
ffffffff84006c64:	7442                	ld	s0,48(sp)
ffffffff84006c66:	74a2                	ld	s1,40(sp)
ffffffff84006c68:	7902                	ld	s2,32(sp)
ffffffff84006c6a:	69e2                	ld	s3,24(sp)
ffffffff84006c6c:	6a42                	ld	s4,16(sp)
ffffffff84006c6e:	6aa2                	ld	s5,8(sp)
ffffffff84006c70:	6121                	addi	sp,sp,64
ffffffff84006c72:	8082                	ret
ffffffff84006c74:	86aa                	mv	a3,a0
ffffffff84006c76:	8626                	mv	a2,s1
ffffffff84006c78:	85a2                	mv	a1,s0
ffffffff84006c7a:	854a                	mv	a0,s2
ffffffff84006c7c:	c6dfd0ef          	jal	ra,ffffffff840048e8 <doFaultTransfer>
ffffffff84006c80:	b7cd                	j	ffffffff84006c62 <doIPCTransfer+0x46>

ffffffff84006c82 <sendIPC>:
ffffffff84006c82:	711d                	addi	sp,sp,-96
ffffffff84006c84:	ec86                	sd	ra,88(sp)
ffffffff84006c86:	e8a2                	sd	s0,80(sp)
ffffffff84006c88:	e4a6                	sd	s1,72(sp)
ffffffff84006c8a:	e0ca                	sd	s2,64(sp)
ffffffff84006c8c:	fc4e                	sd	s3,56(sp)
ffffffff84006c8e:	f852                	sd	s4,48(sp)
ffffffff84006c90:	f456                	sd	s5,40(sp)
ffffffff84006c92:	f05a                	sd	s6,32(sp)
ffffffff84006c94:	ec5e                	sd	s7,24(sp)
ffffffff84006c96:	89ae                	mv	s3,a1
ffffffff84006c98:	8ab2                	mv	s5,a2
ffffffff84006c9a:	8936                	mv	s2,a3
ffffffff84006c9c:	8a3a                	mv	s4,a4
ffffffff84006c9e:	8b3e                	mv	s6,a5
ffffffff84006ca0:	84c2                	mv	s1,a6
ffffffff84006ca2:	8446                	mv	s0,a7
ffffffff84006ca4:	0008b803          	ld	a6,0(a7)
ffffffff84006ca8:	00287793          	andi	a5,a6,2
ffffffff84006cac:	cbe9                	beqz	a5,ffffffff84006d7e <sendIPC+0xfc>
ffffffff84006cae:	00387713          	andi	a4,a6,3
ffffffff84006cb2:	4789                	li	a5,2
ffffffff84006cb4:	0af71a63          	bne	a4,a5,ffffffff84006d68 <sendIPC+0xe6>
ffffffff84006cb8:	0088bb83          	ld	s7,8(a7)
ffffffff84006cbc:	f8000637          	lui	a2,0xf8000
ffffffff84006cc0:	8265                	srli	a2,a2,0x19
ffffffff84006cc2:	00c87633          	and	a2,a6,a2
ffffffff84006cc6:	02685813          	srli	a6,a6,0x26
ffffffff84006cca:	00187813          	andi	a6,a6,1
ffffffff84006cce:	00080563          	beqz	a6,ffffffff84006cd8 <sendIPC+0x56>
ffffffff84006cd2:	57fd                	li	a5,-1
ffffffff84006cd4:	179e                	slli	a5,a5,0x27
ffffffff84006cd6:	8e5d                	or	a2,a2,a5
ffffffff84006cd8:	85de                	mv	a1,s7
ffffffff84006cda:	855e                	mv	a0,s7
ffffffff84006cdc:	de6fe0ef          	jal	ra,ffffffff840052c2 <tcbEPDequeue>
ffffffff84006ce0:	e02a                	sd	a0,0(sp)
ffffffff84006ce2:	e42e                	sd	a1,8(sp)
ffffffff84006ce4:	e408                	sd	a0,8(s0)
ffffffff84006ce6:	601c                	ld	a5,0(s0)
ffffffff84006ce8:	577d                	li	a4,-1
ffffffff84006cea:	171e                	slli	a4,a4,0x27
ffffffff84006cec:	070d                	addi	a4,a4,3
ffffffff84006cee:	8ff9                	and	a5,a5,a4
ffffffff84006cf0:	f8000737          	lui	a4,0xf8000
ffffffff84006cf4:	8365                	srli	a4,a4,0x19
ffffffff84006cf6:	8df9                	and	a1,a1,a4
ffffffff84006cf8:	8ddd                	or	a1,a1,a5
ffffffff84006cfa:	14050863          	beqz	a0,ffffffff84006e4a <sendIPC+0x1c8>
ffffffff84006cfe:	e00c                	sd	a1,0(s0)
ffffffff84006d00:	875e                	mv	a4,s7
ffffffff84006d02:	86ca                	mv	a3,s2
ffffffff84006d04:	8656                	mv	a2,s5
ffffffff84006d06:	85a2                	mv	a1,s0
ffffffff84006d08:	8526                	mv	a0,s1
ffffffff84006d0a:	f13ff0ef          	jal	ra,ffffffff84006c1c <doIPCTransfer>
ffffffff84006d0e:	120bb703          	ld	a4,288(s7)
ffffffff84006d12:	00175793          	srli	a5,a4,0x1
ffffffff84006d16:	e0000437          	lui	s0,0xe0000
ffffffff84006d1a:	8065                	srli	s0,s0,0x19
ffffffff84006d1c:	8c7d                	and	s0,s0,a5
ffffffff84006d1e:	9399                	srli	a5,a5,0x26
ffffffff84006d20:	8b85                	andi	a5,a5,1
ffffffff84006d22:	12078763          	beqz	a5,ffffffff84006e50 <sendIPC+0x1ce>
ffffffff84006d26:	57fd                	li	a5,-1
ffffffff84006d28:	179e                	slli	a5,a5,0x27
ffffffff84006d2a:	8c5d                	or	s0,s0,a5
ffffffff84006d2c:	8aa2                	mv	s5,s0
ffffffff84006d2e:	57fd                	li	a5,-1
ffffffff84006d30:	17a2                	slli	a5,a5,0x28
ffffffff84006d32:	07fd                	addi	a5,a5,31
ffffffff84006d34:	8f7d                	and	a4,a4,a5
ffffffff84006d36:	12ebb023          	sd	a4,288(s7)
ffffffff84006d3a:	000ab023          	sd	zero,0(s5)
ffffffff84006d3e:	4581                	li	a1,0
ffffffff84006d40:	855e                	mv	a0,s7
ffffffff84006d42:	d5dfd0ef          	jal	ra,ffffffff84004a9e <setThreadState>
ffffffff84006d46:	12098b63          	beqz	s3,ffffffff84006e7c <sendIPC+0x1fa>
ffffffff84006d4a:	01496933          	or	s2,s2,s4
ffffffff84006d4e:	12091e63          	bnez	s2,ffffffff84006e8a <sendIPC+0x208>
ffffffff84006d52:	4581                	li	a1,0
ffffffff84006d54:	8526                	mv	a0,s1
ffffffff84006d56:	d49fd0ef          	jal	ra,ffffffff84004a9e <setThreadState>
ffffffff84006d5a:	4585                	li	a1,1
ffffffff84006d5c:	855e                	mv	a0,s7
ffffffff84006d5e:	d41fd0ef          	jal	ra,ffffffff84004a9e <setThreadState>
ffffffff84006d62:	855e                	mv	a0,s7
ffffffff84006d64:	fdffd0ef          	jal	ra,ffffffff84004d42 <possibleSwitchTo>
ffffffff84006d68:	60e6                	ld	ra,88(sp)
ffffffff84006d6a:	6446                	ld	s0,80(sp)
ffffffff84006d6c:	64a6                	ld	s1,72(sp)
ffffffff84006d6e:	6906                	ld	s2,64(sp)
ffffffff84006d70:	79e2                	ld	s3,56(sp)
ffffffff84006d72:	7a42                	ld	s4,48(sp)
ffffffff84006d74:	7aa2                	ld	s5,40(sp)
ffffffff84006d76:	7b02                	ld	s6,32(sp)
ffffffff84006d78:	6be2                	ld	s7,24(sp)
ffffffff84006d7a:	6125                	addi	sp,sp,96
ffffffff84006d7c:	8082                	ret
ffffffff84006d7e:	d56d                	beqz	a0,ffffffff84006d68 <sendIPC+0xe6>
ffffffff84006d80:	1184b783          	ld	a5,280(s1)
ffffffff84006d84:	939d                	srli	a5,a5,0x27
ffffffff84006d86:	179e                	slli	a5,a5,0x27
ffffffff84006d88:	e0000737          	lui	a4,0xe0000
ffffffff84006d8c:	8365                	srli	a4,a4,0x19
ffffffff84006d8e:	00e8f733          	and	a4,a7,a4
ffffffff84006d92:	8fd9                	or	a5,a5,a4
ffffffff84006d94:	0047e793          	ori	a5,a5,4
ffffffff84006d98:	10f4bc23          	sd	a5,280(s1)
ffffffff84006d9c:	12c4b423          	sd	a2,296(s1)
ffffffff84006da0:	1204b783          	ld	a5,288(s1)
ffffffff84006da4:	00469913          	slli	s2,a3,0x4
ffffffff84006da8:	01097913          	andi	s2,s2,16
ffffffff84006dac:	9b9d                	andi	a5,a5,-25
ffffffff84006dae:	0127e7b3          	or	a5,a5,s2
ffffffff84006db2:	0a0e                	slli	s4,s4,0x3
ffffffff84006db4:	008a7a13          	andi	s4,s4,8
ffffffff84006db8:	0147e7b3          	or	a5,a5,s4
ffffffff84006dbc:	9bed                	andi	a5,a5,-5
ffffffff84006dbe:	00259993          	slli	s3,a1,0x2
ffffffff84006dc2:	0049f993          	andi	s3,s3,4
ffffffff84006dc6:	0137e9b3          	or	s3,a5,s3
ffffffff84006dca:	1334b023          	sd	s3,288(s1)
ffffffff84006dce:	8526                	mv	a0,s1
ffffffff84006dd0:	c87fd0ef          	jal	ra,ffffffff84004a56 <scheduleTCB>
ffffffff84006dd4:	6410                	ld	a2,8(s0)
ffffffff84006dd6:	6018                	ld	a4,0(s0)
ffffffff84006dd8:	f80007b7          	lui	a5,0xf8000
ffffffff84006ddc:	83e5                	srli	a5,a5,0x19
ffffffff84006dde:	8ff9                	and	a5,a5,a4
ffffffff84006de0:	9319                	srli	a4,a4,0x26
ffffffff84006de2:	8b05                	andi	a4,a4,1
ffffffff84006de4:	c30d                	beqz	a4,ffffffff84006e06 <sendIPC+0x184>
ffffffff84006de6:	577d                	li	a4,-1
ffffffff84006de8:	171e                	slli	a4,a4,0x27
ffffffff84006dea:	8fd9                	or	a5,a5,a4
ffffffff84006dec:	1684b583          	ld	a1,360(s1)
ffffffff84006df0:	873e                	mv	a4,a5
ffffffff84006df2:	4681                	li	a3,0
ffffffff84006df4:	16873503          	ld	a0,360(a4) # ffffffffe0000168 <ki_end+0x5bfdb168>
ffffffff84006df8:	02b56d63          	bltu	a0,a1,ffffffff84006e32 <sendIPC+0x1b0>
ffffffff84006dfc:	18973c23          	sd	s1,408(a4)
ffffffff84006e00:	ee9d                	bnez	a3,ffffffff84006e3e <sendIPC+0x1bc>
ffffffff84006e02:	87a6                	mv	a5,s1
ffffffff84006e04:	a031                	j	ffffffff84006e10 <sendIPC+0x18e>
ffffffff84006e06:	f3fd                	bnez	a5,ffffffff84006dec <sendIPC+0x16a>
ffffffff84006e08:	8626                	mv	a2,s1
ffffffff84006e0a:	87a6                	mv	a5,s1
ffffffff84006e0c:	4681                	li	a3,0
ffffffff84006e0e:	4701                	li	a4,0
ffffffff84006e10:	18d4bc23          	sd	a3,408(s1)
ffffffff84006e14:	1ae4b023          	sd	a4,416(s1)
ffffffff84006e18:	6018                	ld	a4,0(s0)
ffffffff84006e1a:	e410                	sd	a2,8(s0)
ffffffff84006e1c:	f80006b7          	lui	a3,0xf8000
ffffffff84006e20:	82e5                	srli	a3,a3,0x19
ffffffff84006e22:	8ff5                	and	a5,a5,a3
ffffffff84006e24:	931d                	srli	a4,a4,0x27
ffffffff84006e26:	171e                	slli	a4,a4,0x27
ffffffff84006e28:	8fd9                	or	a5,a5,a4
ffffffff84006e2a:	0017e793          	ori	a5,a5,1
ffffffff84006e2e:	e01c                	sd	a5,0(s0)
ffffffff84006e30:	bf25                	j	ffffffff84006d68 <sendIPC+0xe6>
ffffffff84006e32:	1a073503          	ld	a0,416(a4)
ffffffff84006e36:	e519                	bnez	a0,ffffffff84006e44 <sendIPC+0x1c2>
ffffffff84006e38:	8626                	mv	a2,s1
ffffffff84006e3a:	86ba                	mv	a3,a4
ffffffff84006e3c:	872a                	mv	a4,a0
ffffffff84006e3e:	1a96b023          	sd	s1,416(a3) # fffffffff80001a0 <ki_end+0x73fdb1a0>
ffffffff84006e42:	b7f9                	j	ffffffff84006e10 <sendIPC+0x18e>
ffffffff84006e44:	86ba                	mv	a3,a4
ffffffff84006e46:	872a                	mv	a4,a0
ffffffff84006e48:	b775                	j	ffffffff84006df4 <sendIPC+0x172>
ffffffff84006e4a:	99f1                	andi	a1,a1,-4
ffffffff84006e4c:	e00c                	sd	a1,0(s0)
ffffffff84006e4e:	bd4d                	j	ffffffff84006d00 <sendIPC+0x7e>
ffffffff84006e50:	8aa2                	mv	s5,s0
ffffffff84006e52:	ec041ee3          	bnez	s0,ffffffff84006d2e <sendIPC+0xac>
ffffffff84006e56:	ee099ee3          	bnez	s3,ffffffff84006d52 <sendIPC+0xd0>
ffffffff84006e5a:	1384b783          	ld	a5,312(s1)
ffffffff84006e5e:	8bbd                	andi	a5,a5,15
ffffffff84006e60:	ee0799e3          	bnez	a5,ffffffff84006d52 <sendIPC+0xd0>
ffffffff84006e64:	ee0b0be3          	beqz	s6,ffffffff84006d5a <sendIPC+0xd8>
ffffffff84006e68:	170bb783          	ld	a5,368(s7)
ffffffff84006e6c:	ee0797e3          	bnez	a5,ffffffff84006d5a <sendIPC+0xd8>
ffffffff84006e70:	85de                	mv	a1,s7
ffffffff84006e72:	1704b503          	ld	a0,368(s1)
ffffffff84006e76:	a22fe0ef          	jal	ra,ffffffff84005098 <schedContext_donate>
ffffffff84006e7a:	b5c5                	j	ffffffff84006d5a <sendIPC+0xd8>
ffffffff84006e7c:	1384b783          	ld	a5,312(s1)
ffffffff84006e80:	8bbd                	andi	a5,a5,15
ffffffff84006e82:	d3ed                	beqz	a5,ffffffff84006e64 <sendIPC+0x1e2>
ffffffff84006e84:	ec0413e3          	bnez	s0,ffffffff84006d4a <sendIPC+0xc8>
ffffffff84006e88:	b5e9                	j	ffffffff84006d52 <sendIPC+0xd0>
ffffffff84006e8a:	86da                	mv	a3,s6
ffffffff84006e8c:	8656                	mv	a2,s5
ffffffff84006e8e:	85de                	mv	a1,s7
ffffffff84006e90:	8526                	mv	a0,s1
ffffffff84006e92:	a56fe0ef          	jal	ra,ffffffff840050e8 <reply_push>
ffffffff84006e96:	b5d1                	j	ffffffff84006d5a <sendIPC+0xd8>

ffffffff84006e98 <sendFaultIPC>:
ffffffff84006e98:	1101                	addi	sp,sp,-32
ffffffff84006e9a:	ec06                	sd	ra,24(sp)
ffffffff84006e9c:	e432                	sd	a2,8(sp)
ffffffff84006e9e:	87b6                	mv	a5,a3
ffffffff84006ea0:	03b5d693          	srli	a3,a1,0x3b
ffffffff84006ea4:	4711                	li	a4,4
ffffffff84006ea6:	00e68663          	beq	a3,a4,ffffffff84006eb2 <sendFaultIPC+0x1a>
ffffffff84006eaa:	4501                	li	a0,0
ffffffff84006eac:	60e2                	ld	ra,24(sp)
ffffffff84006eae:	6105                	addi	sp,sp,32
ffffffff84006eb0:	8082                	ret
ffffffff84006eb2:	00006717          	auipc	a4,0x6
ffffffff84006eb6:	14e70713          	addi	a4,a4,334 # ffffffff8400d000 <riscvKSASIDTable>
ffffffff84006eba:	44873683          	ld	a3,1096(a4)
ffffffff84006ebe:	12d53c23          	sd	a3,312(a0)
ffffffff84006ec2:	45073703          	ld	a4,1104(a4)
ffffffff84006ec6:	14e53023          	sd	a4,320(a0)
ffffffff84006eca:	0395d693          	srli	a3,a1,0x39
ffffffff84006ece:	8a85                	andi	a3,a3,1
ffffffff84006ed0:	03a5d713          	srli	a4,a1,0x3a
ffffffff84006ed4:	8b05                	andi	a4,a4,1
ffffffff84006ed6:	01959893          	slli	a7,a1,0x19
ffffffff84006eda:	0198d893          	srli	a7,a7,0x19
ffffffff84006ede:	9199                	srli	a1,a1,0x26
ffffffff84006ee0:	8985                	andi	a1,a1,1
ffffffff84006ee2:	c589                	beqz	a1,ffffffff84006eec <sendFaultIPC+0x54>
ffffffff84006ee4:	55fd                	li	a1,-1
ffffffff84006ee6:	159e                	slli	a1,a1,0x27
ffffffff84006ee8:	00b8e8b3          	or	a7,a7,a1
ffffffff84006eec:	882a                	mv	a6,a0
ffffffff84006eee:	4581                	li	a1,0
ffffffff84006ef0:	4505                	li	a0,1
ffffffff84006ef2:	d91ff0ef          	jal	ra,ffffffff84006c82 <sendIPC>
ffffffff84006ef6:	4505                	li	a0,1
ffffffff84006ef8:	bf55                	j	ffffffff84006eac <sendFaultIPC+0x14>

ffffffff84006efa <handleFault>:
ffffffff84006efa:	1141                	addi	sp,sp,-16
ffffffff84006efc:	e406                	sd	ra,8(sp)
ffffffff84006efe:	e022                	sd	s0,0(sp)
ffffffff84006f00:	842a                	mv	s0,a0
ffffffff84006f02:	17053683          	ld	a3,368(a0)
ffffffff84006f06:	c0057793          	andi	a5,a0,-1024
ffffffff84006f0a:	00d036b3          	snez	a3,a3
ffffffff84006f0e:	73ac                	ld	a1,96(a5)
ffffffff84006f10:	77b0                	ld	a2,104(a5)
ffffffff84006f12:	f87ff0ef          	jal	ra,ffffffff84006e98 <sendFaultIPC>
ffffffff84006f16:	c509                	beqz	a0,ffffffff84006f20 <handleFault+0x26>
ffffffff84006f18:	60a2                	ld	ra,8(sp)
ffffffff84006f1a:	6402                	ld	s0,0(sp)
ffffffff84006f1c:	0141                	addi	sp,sp,16
ffffffff84006f1e:	8082                	ret
ffffffff84006f20:	8522                	mv	a0,s0
ffffffff84006f22:	c5ffd0ef          	jal	ra,ffffffff84004b80 <handleNoFaultHandler>
ffffffff84006f26:	bfcd                	j	ffffffff84006f18 <handleFault+0x1e>

ffffffff84006f28 <handleTimeout>:
ffffffff84006f28:	1141                	addi	sp,sp,-16
ffffffff84006f2a:	e406                	sd	ra,8(sp)
ffffffff84006f2c:	c0057793          	andi	a5,a0,-1024
ffffffff84006f30:	4681                	li	a3,0
ffffffff84006f32:	63cc                	ld	a1,128(a5)
ffffffff84006f34:	67d0                	ld	a2,136(a5)
ffffffff84006f36:	f63ff0ef          	jal	ra,ffffffff84006e98 <sendFaultIPC>
ffffffff84006f3a:	60a2                	ld	ra,8(sp)
ffffffff84006f3c:	0141                	addi	sp,sp,16
ffffffff84006f3e:	8082                	ret

ffffffff84006f40 <endTimeslice>:
ffffffff84006f40:	1141                	addi	sp,sp,-16
ffffffff84006f42:	e406                	sd	ra,8(sp)
ffffffff84006f44:	c115                	beqz	a0,ffffffff84006f68 <endTimeslice+0x28>
ffffffff84006f46:	00019797          	auipc	a5,0x19
ffffffff84006f4a:	8e27b783          	ld	a5,-1822(a5) # ffffffff8401f828 <ksCurSC>
ffffffff84006f4e:	6398                	ld	a4,0(a5)
ffffffff84006f50:	cf01                	beqz	a4,ffffffff84006f68 <endTimeslice+0x28>
ffffffff84006f52:	00019517          	auipc	a0,0x19
ffffffff84006f56:	90653503          	ld	a0,-1786(a0) # ffffffff8401f858 <ksCurThread>
ffffffff84006f5a:	c0057713          	andi	a4,a0,-1024
ffffffff84006f5e:	6358                	ld	a4,128(a4)
ffffffff84006f60:	936d                	srli	a4,a4,0x3b
ffffffff84006f62:	4691                	li	a3,4
ffffffff84006f64:	02d70c63          	beq	a4,a3,ffffffff84006f9c <endTimeslice+0x5c>
ffffffff84006f68:	00019517          	auipc	a0,0x19
ffffffff84006f6c:	8c053503          	ld	a0,-1856(a0) # ffffffff8401f828 <ksCurSC>
ffffffff84006f70:	653c                	ld	a5,72(a0)
ffffffff84006f72:	0792                	slli	a5,a5,0x4
ffffffff84006f74:	05850713          	addi	a4,a0,88
ffffffff84006f78:	97ba                	add	a5,a5,a4
ffffffff84006f7a:	00019717          	auipc	a4,0x19
ffffffff84006f7e:	8b673703          	ld	a4,-1866(a4) # ffffffff8401f830 <ksCurTime>
ffffffff84006f82:	0729                	addi	a4,a4,10
ffffffff84006f84:	6394                	ld	a3,0(a5)
ffffffff84006f86:	00d76663          	bltu	a4,a3,ffffffff84006f92 <endTimeslice+0x52>
ffffffff84006f8a:	6798                	ld	a4,8(a5)
ffffffff84006f8c:	47cd                	li	a5,19
ffffffff84006f8e:	02e7e463          	bltu	a5,a4,ffffffff84006fb6 <endTimeslice+0x76>
ffffffff84006f92:	d25fe0ef          	jal	ra,ffffffff84005cb6 <postpone>
ffffffff84006f96:	60a2                	ld	ra,8(sp)
ffffffff84006f98:	0141                	addi	sp,sp,16
ffffffff84006f9a:	8082                	ret
ffffffff84006f9c:	7b98                	ld	a4,48(a5)
ffffffff84006f9e:	00006797          	auipc	a5,0x6
ffffffff84006fa2:	06278793          	addi	a5,a5,98 # ffffffff8400d000 <riscvKSASIDTable>
ffffffff84006fa6:	4695                	li	a3,5
ffffffff84006fa8:	44d7b423          	sd	a3,1096(a5)
ffffffff84006fac:	44e7b823          	sd	a4,1104(a5)
ffffffff84006fb0:	f79ff0ef          	jal	ra,ffffffff84006f28 <handleTimeout>
ffffffff84006fb4:	b7cd                	j	ffffffff84006f96 <endTimeslice+0x56>
ffffffff84006fb6:	00019517          	auipc	a0,0x19
ffffffff84006fba:	8a253503          	ld	a0,-1886(a0) # ffffffff8401f858 <ksCurThread>
ffffffff84006fbe:	ee9fd0ef          	jal	ra,ffffffff84004ea6 <tcbSchedAppend>
ffffffff84006fc2:	bfd1                	j	ffffffff84006f96 <endTimeslice+0x56>

ffffffff84006fc4 <chargeBudget>:
ffffffff84006fc4:	1101                	addi	sp,sp,-32
ffffffff84006fc6:	ec06                	sd	ra,24(sp)
ffffffff84006fc8:	e822                	sd	s0,16(sp)
ffffffff84006fca:	e426                	sd	s1,8(sp)
ffffffff84006fcc:	e04a                	sd	s2,0(sp)
ffffffff84006fce:	842a                	mv	s0,a0
ffffffff84006fd0:	892e                	mv	s2,a1
ffffffff84006fd2:	84b6                	mv	s1,a3
ffffffff84006fd4:	00019717          	auipc	a4,0x19
ffffffff84006fd8:	85473703          	ld	a4,-1964(a4) # ffffffff8401f828 <ksCurSC>
ffffffff84006fdc:	631c                	ld	a5,0(a4)
ffffffff84006fde:	e3d1                	bnez	a5,ffffffff84007062 <chargeBudget+0x9e>
ffffffff84006fe0:	05870693          	addi	a3,a4,88
ffffffff84006fe4:	673c                	ld	a5,72(a4)
ffffffff84006fe6:	0792                	slli	a5,a5,0x4
ffffffff84006fe8:	97b6                	add	a5,a5,a3
ffffffff84006fea:	6b30                	ld	a2,80(a4)
ffffffff84006fec:	0612                	slli	a2,a2,0x4
ffffffff84006fee:	9636                	add	a2,a2,a3
ffffffff84006ff0:	678c                	ld	a1,8(a5)
ffffffff84006ff2:	6610                	ld	a2,8(a2)
ffffffff84006ff4:	962e                	add	a2,a2,a1
ffffffff84006ff6:	e790                	sd	a2,8(a5)
ffffffff84006ff8:	6b3c                	ld	a5,80(a4)
ffffffff84006ffa:	0792                	slli	a5,a5,0x4
ffffffff84006ffc:	97b6                	add	a5,a5,a3
ffffffff84006ffe:	0007b423          	sd	zero,8(a5)
ffffffff84007002:	00019797          	auipc	a5,0x19
ffffffff84007006:	8267b783          	ld	a5,-2010(a5) # ffffffff8401f828 <ksCurSC>
ffffffff8400700a:	6788                	ld	a0,8(a5)
ffffffff8400700c:	942a                	add	s0,s0,a0
ffffffff8400700e:	e780                	sd	s0,8(a5)
ffffffff84007010:	00019797          	auipc	a5,0x19
ffffffff84007014:	8207b823          	sd	zero,-2000(a5) # ffffffff8401f840 <ksConsumed>
ffffffff84007018:	cc9d                	beqz	s1,ffffffff84007056 <chargeBudget+0x92>
ffffffff8400701a:	00019717          	auipc	a4,0x19
ffffffff8400701e:	83e73703          	ld	a4,-1986(a4) # ffffffff8401f858 <ksCurThread>
ffffffff84007022:	11873783          	ld	a5,280(a4)
ffffffff84007026:	8bbd                	andi	a5,a5,15
ffffffff84007028:	17fd                	addi	a5,a5,-1
ffffffff8400702a:	4685                	li	a3,1
ffffffff8400702c:	02f6e563          	bltu	a3,a5,ffffffff84007056 <chargeBudget+0x92>
ffffffff84007030:	17073783          	ld	a5,368(a4)
ffffffff84007034:	c38d                	beqz	a5,ffffffff84007056 <chargeBudget+0x92>
ffffffff84007036:	63bc                	ld	a5,64(a5)
ffffffff84007038:	cf99                	beqz	a5,ffffffff84007056 <chargeBudget+0x92>
ffffffff8400703a:	12073783          	ld	a5,288(a4)
ffffffff8400703e:	8b85                	andi	a5,a5,1
ffffffff84007040:	eb99                	bnez	a5,ffffffff84007056 <chargeBudget+0x92>
ffffffff84007042:	854a                	mv	a0,s2
ffffffff84007044:	efdff0ef          	jal	ra,ffffffff84006f40 <endTimeslice>
ffffffff84007048:	9bdfd0ef          	jal	ra,ffffffff84004a04 <rescheduleRequired>
ffffffff8400704c:	4785                	li	a5,1
ffffffff8400704e:	00018717          	auipc	a4,0x18
ffffffff84007052:	7ef73523          	sd	a5,2026(a4) # ffffffff8401f838 <ksReprogram>
ffffffff84007056:	60e2                	ld	ra,24(sp)
ffffffff84007058:	6442                	ld	s0,16(sp)
ffffffff8400705a:	64a2                	ld	s1,8(sp)
ffffffff8400705c:	6902                	ld	s2,0(sp)
ffffffff8400705e:	6105                	addi	sp,sp,32
ffffffff84007060:	8082                	ret
ffffffff84007062:	eacfc0ef          	jal	ra,ffffffff8400370e <refill_budget_check>
ffffffff84007066:	bf71                	j	ffffffff84007002 <chargeBudget+0x3e>

ffffffff84007068 <mcsIRQ>:
ffffffff84007068:	1141                	addi	sp,sp,-16
ffffffff8400706a:	e406                	sd	ra,8(sp)
ffffffff8400706c:	03600793          	li	a5,54
ffffffff84007070:	02f50663          	beq	a0,a5,ffffffff8400709c <mcsIRQ+0x34>
ffffffff84007074:	00018717          	auipc	a4,0x18
ffffffff84007078:	7e473703          	ld	a4,2020(a4) # ffffffff8401f858 <ksCurThread>
ffffffff8400707c:	11873783          	ld	a5,280(a4)
ffffffff84007080:	8bbd                	andi	a5,a5,15
ffffffff84007082:	17fd                	addi	a5,a5,-1
ffffffff84007084:	4685                	li	a3,1
ffffffff84007086:	02f6fc63          	bgeu	a3,a5,ffffffff840070be <mcsIRQ+0x56>
ffffffff8400708a:	00018797          	auipc	a5,0x18
ffffffff8400708e:	79e7b783          	ld	a5,1950(a5) # ffffffff8401f828 <ksCurSC>
ffffffff84007092:	63bc                	ld	a5,64(a5)
ffffffff84007094:	e7dd                	bnez	a5,ffffffff84007142 <mcsIRQ+0xda>
ffffffff84007096:	60a2                	ld	ra,8(sp)
ffffffff84007098:	0141                	addi	sp,sp,16
ffffffff8400709a:	8082                	ret
ffffffff8400709c:	00018717          	auipc	a4,0x18
ffffffff840070a0:	79470713          	addi	a4,a4,1940 # ffffffff8401f830 <ksCurTime>
ffffffff840070a4:	6310                	ld	a2,0(a4)
ffffffff840070a6:	c01026f3          	rdtime	a3
ffffffff840070aa:	e314                	sd	a3,0(a4)
ffffffff840070ac:	00018717          	auipc	a4,0x18
ffffffff840070b0:	79470713          	addi	a4,a4,1940 # ffffffff8401f840 <ksConsumed>
ffffffff840070b4:	631c                	ld	a5,0(a4)
ffffffff840070b6:	8f91                	sub	a5,a5,a2
ffffffff840070b8:	97b6                	add	a5,a5,a3
ffffffff840070ba:	e31c                	sd	a5,0(a4)
ffffffff840070bc:	bf65                	j	ffffffff84007074 <mcsIRQ+0xc>
ffffffff840070be:	17073783          	ld	a5,368(a4)
ffffffff840070c2:	d7e1                	beqz	a5,ffffffff8400708a <mcsIRQ+0x22>
ffffffff840070c4:	63bc                	ld	a5,64(a5)
ffffffff840070c6:	d3f1                	beqz	a5,ffffffff8400708a <mcsIRQ+0x22>
ffffffff840070c8:	12073783          	ld	a5,288(a4)
ffffffff840070cc:	8b85                	andi	a5,a5,1
ffffffff840070ce:	ffd5                	bnez	a5,ffffffff8400708a <mcsIRQ+0x22>
ffffffff840070d0:	00018717          	auipc	a4,0x18
ffffffff840070d4:	75873703          	ld	a4,1880(a4) # ffffffff8401f828 <ksCurSC>
ffffffff840070d8:	00018517          	auipc	a0,0x18
ffffffff840070dc:	76853503          	ld	a0,1896(a0) # ffffffff8401f840 <ksConsumed>
ffffffff840070e0:	6734                	ld	a3,72(a4)
ffffffff840070e2:	00469793          	slli	a5,a3,0x4
ffffffff840070e6:	97ba                	add	a5,a5,a4
ffffffff840070e8:	73bc                	ld	a5,96(a5)
ffffffff840070ea:	04a7e263          	bltu	a5,a0,ffffffff8400712e <mcsIRQ+0xc6>
ffffffff840070ee:	8f89                	sub	a5,a5,a0
ffffffff840070f0:	464d                	li	a2,19
ffffffff840070f2:	02f67e63          	bgeu	a2,a5,ffffffff8400712e <mcsIRQ+0xc6>
ffffffff840070f6:	631c                	ld	a5,0(a4)
ffffffff840070f8:	e385                	bnez	a5,ffffffff84007118 <mcsIRQ+0xb0>
ffffffff840070fa:	0551                	addi	a0,a0,20
ffffffff840070fc:	00018797          	auipc	a5,0x18
ffffffff84007100:	7147b783          	ld	a5,1812(a5) # ffffffff8401f810 <ksDomainTime>
ffffffff84007104:	f8a7f9e3          	bgeu	a5,a0,ffffffff84007096 <mcsIRQ+0x2e>
ffffffff84007108:	4785                	li	a5,1
ffffffff8400710a:	00018717          	auipc	a4,0x18
ffffffff8400710e:	72f73723          	sd	a5,1838(a4) # ffffffff8401f838 <ksReprogram>
ffffffff84007112:	8f3fd0ef          	jal	ra,ffffffff84004a04 <rescheduleRequired>
ffffffff84007116:	b741                	j	ffffffff84007096 <mcsIRQ+0x2e>
ffffffff84007118:	6b3c                	ld	a5,80(a4)
ffffffff8400711a:	02d7f063          	bgeu	a5,a3,ffffffff8400713a <mcsIRQ+0xd2>
ffffffff8400711e:	6330                	ld	a2,64(a4)
ffffffff84007120:	97b2                	add	a5,a5,a2
ffffffff84007122:	0785                	addi	a5,a5,1
ffffffff84007124:	40d786b3          	sub	a3,a5,a3
ffffffff84007128:	633c                	ld	a5,64(a4)
ffffffff8400712a:	fcd798e3          	bne	a5,a3,ffffffff840070fa <mcsIRQ+0x92>
ffffffff8400712e:	4685                	li	a3,1
ffffffff84007130:	4601                	li	a2,0
ffffffff84007132:	4585                	li	a1,1
ffffffff84007134:	e91ff0ef          	jal	ra,ffffffff84006fc4 <chargeBudget>
ffffffff84007138:	bfb9                	j	ffffffff84007096 <mcsIRQ+0x2e>
ffffffff8400713a:	0785                	addi	a5,a5,1
ffffffff8400713c:	40d786b3          	sub	a3,a5,a3
ffffffff84007140:	b7e5                	j	ffffffff84007128 <mcsIRQ+0xc0>
ffffffff84007142:	4685                	li	a3,1
ffffffff84007144:	4601                	li	a2,0
ffffffff84007146:	4581                	li	a1,0
ffffffff84007148:	00018517          	auipc	a0,0x18
ffffffff8400714c:	6f853503          	ld	a0,1784(a0) # ffffffff8401f840 <ksConsumed>
ffffffff84007150:	e75ff0ef          	jal	ra,ffffffff84006fc4 <chargeBudget>
ffffffff84007154:	b789                	j	ffffffff84007096 <mcsIRQ+0x2e>

ffffffff84007156 <preemptionPoint>:
ffffffff84007156:	00018797          	auipc	a5,0x18
ffffffff8400715a:	6ca7b783          	ld	a5,1738(a5) # ffffffff8401f820 <ksWorkUnitsCompleted>
ffffffff8400715e:	0785                	addi	a5,a5,1
ffffffff84007160:	06300713          	li	a4,99
ffffffff84007164:	0af77763          	bgeu	a4,a5,ffffffff84007212 <preemptionPoint+0xbc>
ffffffff84007168:	00018797          	auipc	a5,0x18
ffffffff8400716c:	6a07bc23          	sd	zero,1720(a5) # ffffffff8401f820 <ksWorkUnitsCompleted>
ffffffff84007170:	14402573          	csrr	a0,sip
ffffffff84007174:	22057513          	andi	a0,a0,544
ffffffff84007178:	e15d                	bnez	a0,ffffffff8400721e <preemptionPoint+0xc8>
ffffffff8400717a:	1141                	addi	sp,sp,-16
ffffffff8400717c:	e406                	sd	ra,8(sp)
ffffffff8400717e:	00018717          	auipc	a4,0x18
ffffffff84007182:	6b270713          	addi	a4,a4,1714 # ffffffff8401f830 <ksCurTime>
ffffffff84007186:	6310                	ld	a2,0(a4)
ffffffff84007188:	c01026f3          	rdtime	a3
ffffffff8400718c:	e314                	sd	a3,0(a4)
ffffffff8400718e:	00018717          	auipc	a4,0x18
ffffffff84007192:	6b270713          	addi	a4,a4,1714 # ffffffff8401f840 <ksConsumed>
ffffffff84007196:	631c                	ld	a5,0(a4)
ffffffff84007198:	8f91                	sub	a5,a5,a2
ffffffff8400719a:	97b6                	add	a5,a5,a3
ffffffff8400719c:	e31c                	sd	a5,0(a4)
ffffffff8400719e:	00018697          	auipc	a3,0x18
ffffffff840071a2:	68a6b683          	ld	a3,1674(a3) # ffffffff8401f828 <ksCurSC>
ffffffff840071a6:	66b0                	ld	a2,72(a3)
ffffffff840071a8:	00461713          	slli	a4,a2,0x4
ffffffff840071ac:	9736                	add	a4,a4,a3
ffffffff840071ae:	7338                	ld	a4,96(a4)
ffffffff840071b0:	02f76d63          	bltu	a4,a5,ffffffff840071ea <preemptionPoint+0x94>
ffffffff840071b4:	8f1d                	sub	a4,a4,a5
ffffffff840071b6:	45cd                	li	a1,19
ffffffff840071b8:	02e5f963          	bgeu	a1,a4,ffffffff840071ea <preemptionPoint+0x94>
ffffffff840071bc:	6298                	ld	a4,0(a3)
ffffffff840071be:	eb19                	bnez	a4,ffffffff840071d4 <preemptionPoint+0x7e>
ffffffff840071c0:	07d1                	addi	a5,a5,20
ffffffff840071c2:	00018717          	auipc	a4,0x18
ffffffff840071c6:	64e73703          	ld	a4,1614(a4) # ffffffff8401f810 <ksDomainTime>
ffffffff840071ca:	02f76c63          	bltu	a4,a5,ffffffff84007202 <preemptionPoint+0xac>
ffffffff840071ce:	60a2                	ld	ra,8(sp)
ffffffff840071d0:	0141                	addi	sp,sp,16
ffffffff840071d2:	8082                	ret
ffffffff840071d4:	6ab8                	ld	a4,80(a3)
ffffffff840071d6:	02c77263          	bgeu	a4,a2,ffffffff840071fa <preemptionPoint+0xa4>
ffffffff840071da:	62ac                	ld	a1,64(a3)
ffffffff840071dc:	972e                	add	a4,a4,a1
ffffffff840071de:	0705                	addi	a4,a4,1
ffffffff840071e0:	40c70633          	sub	a2,a4,a2
ffffffff840071e4:	62b8                	ld	a4,64(a3)
ffffffff840071e6:	fcc71de3          	bne	a4,a2,ffffffff840071c0 <preemptionPoint+0x6a>
ffffffff840071ea:	4685                	li	a3,1
ffffffff840071ec:	4601                	li	a2,0
ffffffff840071ee:	4585                	li	a1,1
ffffffff840071f0:	853e                	mv	a0,a5
ffffffff840071f2:	dd3ff0ef          	jal	ra,ffffffff84006fc4 <chargeBudget>
ffffffff840071f6:	4511                	li	a0,4
ffffffff840071f8:	bfd9                	j	ffffffff840071ce <preemptionPoint+0x78>
ffffffff840071fa:	0705                	addi	a4,a4,1
ffffffff840071fc:	40c70633          	sub	a2,a4,a2
ffffffff84007200:	b7d5                	j	ffffffff840071e4 <preemptionPoint+0x8e>
ffffffff84007202:	4785                	li	a5,1
ffffffff84007204:	00018717          	auipc	a4,0x18
ffffffff84007208:	62f73a23          	sd	a5,1588(a4) # ffffffff8401f838 <ksReprogram>
ffffffff8400720c:	ff8fd0ef          	jal	ra,ffffffff84004a04 <rescheduleRequired>
ffffffff84007210:	b7dd                	j	ffffffff840071f6 <preemptionPoint+0xa0>
ffffffff84007212:	00018717          	auipc	a4,0x18
ffffffff84007216:	60f73723          	sd	a5,1550(a4) # ffffffff8401f820 <ksWorkUnitsCompleted>
ffffffff8400721a:	4501                	li	a0,0
ffffffff8400721c:	8082                	ret
ffffffff8400721e:	4511                	li	a0,4
ffffffff84007220:	8082                	ret

ffffffff84007222 <cteDelete>:
ffffffff84007222:	7135                	addi	sp,sp,-160
ffffffff84007224:	ed06                	sd	ra,152(sp)
ffffffff84007226:	e922                	sd	s0,144(sp)
ffffffff84007228:	e526                	sd	s1,136(sp)
ffffffff8400722a:	e14a                	sd	s2,128(sp)
ffffffff8400722c:	fcce                	sd	s3,120(sp)
ffffffff8400722e:	f8d2                	sd	s4,112(sp)
ffffffff84007230:	f4d6                	sd	s5,104(sp)
ffffffff84007232:	f0da                	sd	s6,96(sp)
ffffffff84007234:	ecde                	sd	s7,88(sp)
ffffffff84007236:	e8e2                	sd	s8,80(sp)
ffffffff84007238:	e4e6                	sd	s9,72(sp)
ffffffff8400723a:	842a                	mv	s0,a0
ffffffff8400723c:	8a2e                	mv	s4,a1
ffffffff8400723e:	4949                	li	s2,18
ffffffff84007240:	04000993          	li	s3,64
ffffffff84007244:	4b11                	li	s6,4
ffffffff84007246:	5afd                	li	s5,-1
ffffffff84007248:	4485                	li	s1,1
ffffffff8400724a:	a081                	j	ffffffff8400728a <cteDelete+0x68>
ffffffff8400724c:	865a                	mv	a2,s6
ffffffff8400724e:	a895                	j	ffffffff840072c2 <cteDelete+0xa0>
ffffffff84007250:	e1c5                	bnez	a1,ffffffff840072f0 <cteDelete+0xce>
ffffffff84007252:	6682                	ld	a3,0(sp)
ffffffff84007254:	e014                	sd	a3,0(s0)
ffffffff84007256:	66a2                	ld	a3,8(sp)
ffffffff84007258:	e414                	sd	a3,8(s0)
ffffffff8400725a:	0e0a1e63          	bnez	s4,ffffffff84007356 <cteDelete+0x134>
ffffffff8400725e:	09270c63          	beq	a4,s2,ffffffff840072f6 <cteDelete+0xd4>
ffffffff84007262:	601c                	ld	a5,0(s0)
ffffffff84007264:	6418                	ld	a4,8(s0)
ffffffff84007266:	07f7f693          	andi	a3,a5,127
ffffffff8400726a:	17368963          	beq	a3,s3,ffffffff840073dc <cteDelete+0x1ba>
ffffffff8400726e:	03f7f513          	andi	a0,a5,63
ffffffff84007272:	2505                	addiw	a0,a0,1
ffffffff84007274:	00a49533          	sll	a0,s1,a0
ffffffff84007278:	40a00533          	neg	a0,a0
ffffffff8400727c:	8d79                	and	a0,a0,a4
ffffffff8400727e:	85a2                	mv	a1,s0
ffffffff84007280:	835fc0ef          	jal	ra,ffffffff84003ab4 <capSwapForDelete>
ffffffff84007284:	ed3ff0ef          	jal	ra,ffffffff84007156 <preemptionPoint>
ffffffff84007288:	e54d                	bnez	a0,ffffffff84007332 <cteDelete+0x110>
ffffffff8400728a:	601c                	ld	a5,0(s0)
ffffffff8400728c:	93ed                	srli	a5,a5,0x3b
ffffffff8400728e:	cbd1                	beqz	a5,ffffffff84007322 <cteDelete+0x100>
ffffffff84007290:	8522                	mv	a0,s0
ffffffff84007292:	b08fd0ef          	jal	ra,ffffffff8400459a <isFinalCapability>
ffffffff84007296:	86aa                	mv	a3,a0
ffffffff84007298:	4701                	li	a4,0
ffffffff8400729a:	600c                	ld	a1,0(s0)
ffffffff8400729c:	6410                	ld	a2,8(s0)
ffffffff8400729e:	850a                	mv	a0,sp
ffffffff840072a0:	da4fe0ef          	jal	ra,ffffffff84005844 <finaliseCap>
ffffffff840072a4:	68c2                	ld	a7,16(sp)
ffffffff840072a6:	6862                	ld	a6,24(sp)
ffffffff840072a8:	6782                	ld	a5,0(sp)
ffffffff840072aa:	6522                	ld	a0,8(sp)
ffffffff840072ac:	03b7d713          	srli	a4,a5,0x3b
ffffffff840072b0:	c321                	beqz	a4,ffffffff840072f0 <cteDelete+0xce>
ffffffff840072b2:	03271d63          	bne	a4,s2,ffffffff840072ec <cteDelete+0xca>
ffffffff840072b6:	07f7f693          	andi	a3,a5,127
ffffffff840072ba:	f93689e3          	beq	a3,s3,ffffffff8400724c <cteDelete+0x2a>
ffffffff840072be:	03f7f613          	andi	a2,a5,63
ffffffff840072c2:	0605                	addi	a2,a2,1
ffffffff840072c4:	00ca96b3          	sll	a3,s5,a2
ffffffff840072c8:	fff6c693          	not	a3,a3
ffffffff840072cc:	8ee9                	and	a3,a3,a0
ffffffff840072ce:	85a6                	mv	a1,s1
ffffffff840072d0:	d2c1                	beqz	a3,ffffffff84007250 <cteDelete+0x2e>
ffffffff840072d2:	4581                	li	a1,0
ffffffff840072d4:	f6969ee3          	bne	a3,s1,ffffffff84007250 <cteDelete+0x2e>
ffffffff840072d8:	00c496b3          	sll	a3,s1,a2
ffffffff840072dc:	40d006b3          	neg	a3,a3
ffffffff840072e0:	8ee9                	and	a3,a3,a0
ffffffff840072e2:	40d406b3          	sub	a3,s0,a3
ffffffff840072e6:	0016b593          	seqz	a1,a3
ffffffff840072ea:	b79d                	j	ffffffff84007250 <cteDelete+0x2e>
ffffffff840072ec:	f79fa0ef          	jal	ra,ffffffff84002264 <halt>
ffffffff840072f0:	f846                	sd	a7,48(sp)
ffffffff840072f2:	fc42                	sd	a6,56(sp)
ffffffff840072f4:	a80d                	j	ffffffff84007326 <cteDelete+0x104>
ffffffff840072f6:	07f7f713          	andi	a4,a5,127
ffffffff840072fa:	01370e63          	beq	a4,s3,ffffffff84007316 <cteDelete+0xf4>
ffffffff840072fe:	03f7f793          	andi	a5,a5,63
ffffffff84007302:	2785                	addiw	a5,a5,1
ffffffff84007304:	00f497b3          	sll	a5,s1,a5
ffffffff84007308:	40f007b3          	neg	a5,a5
ffffffff8400730c:	8fe9                	and	a5,a5,a0
ffffffff8400730e:	f4f41ae3          	bne	s0,a5,ffffffff84007262 <cteDelete+0x40>
ffffffff84007312:	8552                	mv	a0,s4
ffffffff84007314:	a839                	j	ffffffff84007332 <cteDelete+0x110>
ffffffff84007316:	87da                	mv	a5,s6
ffffffff84007318:	b7ed                	j	ffffffff84007302 <cteDelete+0xe0>
ffffffff8400731a:	87da                	mv	a5,s6
ffffffff8400731c:	a849                	j	ffffffff840073ae <cteDelete+0x18c>
ffffffff8400731e:	f47fa0ef          	jal	ra,ffffffff84002264 <halt>
ffffffff84007322:	f802                	sd	zero,48(sp)
ffffffff84007324:	fc02                	sd	zero,56(sp)
ffffffff84007326:	75c2                	ld	a1,48(sp)
ffffffff84007328:	7662                	ld	a2,56(sp)
ffffffff8400732a:	8522                	mv	a0,s0
ffffffff8400732c:	931fc0ef          	jal	ra,ffffffff84003c5c <emptySlot>
ffffffff84007330:	4501                	li	a0,0
ffffffff84007332:	60ea                	ld	ra,152(sp)
ffffffff84007334:	644a                	ld	s0,144(sp)
ffffffff84007336:	64aa                	ld	s1,136(sp)
ffffffff84007338:	690a                	ld	s2,128(sp)
ffffffff8400733a:	79e6                	ld	s3,120(sp)
ffffffff8400733c:	7a46                	ld	s4,112(sp)
ffffffff8400733e:	7aa6                	ld	s5,104(sp)
ffffffff84007340:	7b06                	ld	s6,96(sp)
ffffffff84007342:	6be6                	ld	s7,88(sp)
ffffffff84007344:	6c46                	ld	s8,80(sp)
ffffffff84007346:	6ca6                	ld	s9,72(sp)
ffffffff84007348:	610d                	addi	sp,sp,160
ffffffff8400734a:	8082                	ret
ffffffff8400734c:	fe0cfc13          	andi	s8,s9,-32
ffffffff84007350:	01fcfc93          	andi	s9,s9,31
ffffffff84007354:	a03d                	j	ffffffff84007382 <cteDelete+0x160>
ffffffff84007356:	601c                	ld	a5,0(s0)
ffffffff84007358:	00843c83          	ld	s9,8(s0) # ffffffffe0000008 <ki_end+0x5bfdb008>
ffffffff8400735c:	07f7fb93          	andi	s7,a5,127
ffffffff84007360:	ff3b86e3          	beq	s7,s3,ffffffff8400734c <cteDelete+0x12a>
ffffffff84007364:	03f7f793          	andi	a5,a5,63
ffffffff84007368:	0785                	addi	a5,a5,1
ffffffff8400736a:	00f49c33          	sll	s8,s1,a5
ffffffff8400736e:	41800c33          	neg	s8,s8
ffffffff84007372:	019c7c33          	and	s8,s8,s9
ffffffff84007376:	00fa97b3          	sll	a5,s5,a5
ffffffff8400737a:	fff7c793          	not	a5,a5
ffffffff8400737e:	0197fcb3          	and	s9,a5,s9
ffffffff84007382:	005c9513          	slli	a0,s9,0x5
ffffffff84007386:	1501                	addi	a0,a0,-32
ffffffff84007388:	4581                	li	a1,0
ffffffff8400738a:	9562                	add	a0,a0,s8
ffffffff8400738c:	e97ff0ef          	jal	ra,ffffffff84007222 <cteDelete>
ffffffff84007390:	f14d                	bnez	a0,ffffffff84007332 <cteDelete+0x110>
ffffffff84007392:	601c                	ld	a5,0(s0)
ffffffff84007394:	03b7d713          	srli	a4,a5,0x3b
ffffffff84007398:	ee0706e3          	beqz	a4,ffffffff84007284 <cteDelete+0x62>
ffffffff8400739c:	f92711e3          	bne	a4,s2,ffffffff8400731e <cteDelete+0xfc>
ffffffff840073a0:	6414                	ld	a3,8(s0)
ffffffff840073a2:	07f7f613          	andi	a2,a5,127
ffffffff840073a6:	f7360ae3          	beq	a2,s3,ffffffff8400731a <cteDelete+0xf8>
ffffffff840073aa:	03f7f793          	andi	a5,a5,63
ffffffff840073ae:	0785                	addi	a5,a5,1
ffffffff840073b0:	00f49733          	sll	a4,s1,a5
ffffffff840073b4:	40e00733          	neg	a4,a4
ffffffff840073b8:	8f75                	and	a4,a4,a3
ffffffff840073ba:	ecec15e3          	bne	s8,a4,ffffffff84007284 <cteDelete+0x62>
ffffffff840073be:	00fa97b3          	sll	a5,s5,a5
ffffffff840073c2:	fff7c793          	not	a5,a5
ffffffff840073c6:	8efd                	and	a3,a3,a5
ffffffff840073c8:	eb969ee3          	bne	a3,s9,ffffffff84007284 <cteDelete+0x62>
ffffffff840073cc:	eb761ce3          	bne	a2,s7,ffffffff84007284 <cteDelete+0x62>
ffffffff840073d0:	1cfd                	addi	s9,s9,-1
ffffffff840073d2:	00fcf7b3          	and	a5,s9,a5
ffffffff840073d6:	8f5d                	or	a4,a4,a5
ffffffff840073d8:	e418                	sd	a4,8(s0)
ffffffff840073da:	b56d                	j	ffffffff84007284 <cteDelete+0x62>
ffffffff840073dc:	fe077513          	andi	a0,a4,-32
ffffffff840073e0:	bd79                	j	ffffffff8400727e <cteDelete+0x5c>

ffffffff840073e2 <invokeCNodeDelete>:
ffffffff840073e2:	1141                	addi	sp,sp,-16
ffffffff840073e4:	e406                	sd	ra,8(sp)
ffffffff840073e6:	4585                	li	a1,1
ffffffff840073e8:	e3bff0ef          	jal	ra,ffffffff84007222 <cteDelete>
ffffffff840073ec:	60a2                	ld	ra,8(sp)
ffffffff840073ee:	0141                	addi	sp,sp,16
ffffffff840073f0:	8082                	ret

ffffffff840073f2 <installTCBCap>:
ffffffff840073f2:	715d                	addi	sp,sp,-80
ffffffff840073f4:	e486                	sd	ra,72(sp)
ffffffff840073f6:	e0a2                	sd	s0,64(sp)
ffffffff840073f8:	fc26                	sd	s1,56(sp)
ffffffff840073fa:	f84a                	sd	s2,48(sp)
ffffffff840073fc:	f44e                	sd	s3,40(sp)
ffffffff840073fe:	e82e                	sd	a1,16(sp)
ffffffff84007400:	ec32                	sd	a2,24(sp)
ffffffff84007402:	89b6                	mv	s3,a3
ffffffff84007404:	e03e                	sd	a5,0(sp)
ffffffff84007406:	e442                	sd	a6,8(sp)
ffffffff84007408:	8946                	mv	s2,a7
ffffffff8400740a:	0716                	slli	a4,a4,0x5
ffffffff8400740c:	c0057513          	andi	a0,a0,-1024
ffffffff84007410:	00a70433          	add	s0,a4,a0
ffffffff84007414:	4585                	li	a1,1
ffffffff84007416:	8522                	mv	a0,s0
ffffffff84007418:	e0bff0ef          	jal	ra,ffffffff84007222 <cteDelete>
ffffffff8400741c:	84aa                	mv	s1,a0
ffffffff8400741e:	e11d                	bnez	a0,ffffffff84007444 <installTCBCap+0x52>
ffffffff84007420:	00093603          	ld	a2,0(s2)
ffffffff84007424:	00893683          	ld	a3,8(s2)
ffffffff84007428:	6502                	ld	a0,0(sp)
ffffffff8400742a:	65a2                	ld	a1,8(sp)
ffffffff8400742c:	916fd0ef          	jal	ra,ffffffff84004542 <sameObjectAs>
ffffffff84007430:	c911                	beqz	a0,ffffffff84007444 <installTCBCap+0x52>
ffffffff84007432:	0009b603          	ld	a2,0(s3)
ffffffff84007436:	0089b683          	ld	a3,8(s3)
ffffffff8400743a:	6542                	ld	a0,16(sp)
ffffffff8400743c:	65e2                	ld	a1,24(sp)
ffffffff8400743e:	904fd0ef          	jal	ra,ffffffff84004542 <sameObjectAs>
ffffffff84007442:	e909                	bnez	a0,ffffffff84007454 <installTCBCap+0x62>
ffffffff84007444:	8526                	mv	a0,s1
ffffffff84007446:	60a6                	ld	ra,72(sp)
ffffffff84007448:	6406                	ld	s0,64(sp)
ffffffff8400744a:	74e2                	ld	s1,56(sp)
ffffffff8400744c:	7942                	ld	s2,48(sp)
ffffffff8400744e:	79a2                	ld	s3,40(sp)
ffffffff84007450:	6161                	addi	sp,sp,80
ffffffff84007452:	8082                	ret
ffffffff84007454:	86a2                	mv	a3,s0
ffffffff84007456:	864a                	mv	a2,s2
ffffffff84007458:	6502                	ld	a0,0(sp)
ffffffff8400745a:	65a2                	ld	a1,8(sp)
ffffffff8400745c:	a28fd0ef          	jal	ra,ffffffff84004684 <cteInsert>
ffffffff84007460:	b7d5                	j	ffffffff84007444 <installTCBCap+0x52>

ffffffff84007462 <cteRevoke>:
ffffffff84007462:	7139                	addi	sp,sp,-64
ffffffff84007464:	fc06                	sd	ra,56(sp)
ffffffff84007466:	f822                	sd	s0,48(sp)
ffffffff84007468:	f426                	sd	s1,40(sp)
ffffffff8400746a:	f04a                	sd	s2,32(sp)
ffffffff8400746c:	ec4e                	sd	s3,24(sp)
ffffffff8400746e:	e852                	sd	s4,16(sp)
ffffffff84007470:	e456                	sd	s5,8(sp)
ffffffff84007472:	84aa                	mv	s1,a0
ffffffff84007474:	6d18                	ld	a4,24(a0)
ffffffff84007476:	f80007b7          	lui	a5,0xf8000
ffffffff8400747a:	83e5                	srli	a5,a5,0x19
ffffffff8400747c:	00f77533          	and	a0,a4,a5
ffffffff84007480:	9319                	srli	a4,a4,0x26
ffffffff84007482:	8b05                	andi	a4,a4,1
ffffffff84007484:	c339                	beqz	a4,ffffffff840074ca <cteRevoke+0x68>
ffffffff84007486:	547d                	li	s0,-1
ffffffff84007488:	141e                	slli	s0,s0,0x27
ffffffff8400748a:	8c49                	or	s0,s0,a0
ffffffff8400748c:	4985                	li	s3,1
ffffffff8400748e:	f8000937          	lui	s2,0xf8000
ffffffff84007492:	01995913          	srli	s2,s2,0x19
ffffffff84007496:	02699a93          	slli	s5,s3,0x26
ffffffff8400749a:	5a7d                	li	s4,-1
ffffffff8400749c:	1a1e                	slli	s4,s4,0x27
ffffffff8400749e:	85a2                	mv	a1,s0
ffffffff840074a0:	8526                	mv	a0,s1
ffffffff840074a2:	f7ffc0ef          	jal	ra,ffffffff84004420 <isMDBParentOf>
ffffffff840074a6:	c505                	beqz	a0,ffffffff840074ce <cteRevoke+0x6c>
ffffffff840074a8:	85ce                	mv	a1,s3
ffffffff840074aa:	8522                	mv	a0,s0
ffffffff840074ac:	d77ff0ef          	jal	ra,ffffffff84007222 <cteDelete>
ffffffff840074b0:	ed19                	bnez	a0,ffffffff840074ce <cteRevoke+0x6c>
ffffffff840074b2:	ca5ff0ef          	jal	ra,ffffffff84007156 <preemptionPoint>
ffffffff840074b6:	ed01                	bnez	a0,ffffffff840074ce <cteRevoke+0x6c>
ffffffff840074b8:	6c9c                	ld	a5,24(s1)
ffffffff840074ba:	0127f533          	and	a0,a5,s2
ffffffff840074be:	0157f7b3          	and	a5,a5,s5
ffffffff840074c2:	cf99                	beqz	a5,ffffffff840074e0 <cteRevoke+0x7e>
ffffffff840074c4:	01456433          	or	s0,a0,s4
ffffffff840074c8:	bfd9                	j	ffffffff8400749e <cteRevoke+0x3c>
ffffffff840074ca:	842a                	mv	s0,a0
ffffffff840074cc:	f161                	bnez	a0,ffffffff8400748c <cteRevoke+0x2a>
ffffffff840074ce:	70e2                	ld	ra,56(sp)
ffffffff840074d0:	7442                	ld	s0,48(sp)
ffffffff840074d2:	74a2                	ld	s1,40(sp)
ffffffff840074d4:	7902                	ld	s2,32(sp)
ffffffff840074d6:	69e2                	ld	s3,24(sp)
ffffffff840074d8:	6a42                	ld	s4,16(sp)
ffffffff840074da:	6aa2                	ld	s5,8(sp)
ffffffff840074dc:	6121                	addi	sp,sp,64
ffffffff840074de:	8082                	ret
ffffffff840074e0:	d57d                	beqz	a0,ffffffff840074ce <cteRevoke+0x6c>
ffffffff840074e2:	842a                	mv	s0,a0
ffffffff840074e4:	bf6d                	j	ffffffff8400749e <cteRevoke+0x3c>

ffffffff840074e6 <invokeCNodeRevoke>:
ffffffff840074e6:	1141                	addi	sp,sp,-16
ffffffff840074e8:	e406                	sd	ra,8(sp)
ffffffff840074ea:	f79ff0ef          	jal	ra,ffffffff84007462 <cteRevoke>
ffffffff840074ee:	60a2                	ld	ra,8(sp)
ffffffff840074f0:	0141                	addi	sp,sp,16
ffffffff840074f2:	8082                	ret

ffffffff840074f4 <decodeCNodeInvocation>:
ffffffff840074f4:	7115                	addi	sp,sp,-224
ffffffff840074f6:	ed86                	sd	ra,216(sp)
ffffffff840074f8:	e9a2                	sd	s0,208(sp)
ffffffff840074fa:	e5a6                	sd	s1,200(sp)
ffffffff840074fc:	e1ca                	sd	s2,192(sp)
ffffffff840074fe:	fd4e                	sd	s3,184(sp)
ffffffff84007500:	f952                	sd	s4,176(sp)
ffffffff84007502:	f556                	sd	s5,168(sp)
ffffffff84007504:	f15a                	sd	s6,160(sp)
ffffffff84007506:	ed5e                	sd	s7,152(sp)
ffffffff84007508:	e032                	sd	a2,0(sp)
ffffffff8400750a:	e436                	sd	a3,8(sp)
ffffffff8400750c:	fef50693          	addi	a3,a0,-17
ffffffff84007510:	479d                	li	a5,7
ffffffff84007512:	0ad7ea63          	bltu	a5,a3,ffffffff840075c6 <decodeCNodeInvocation+0xd2>
ffffffff84007516:	84aa                	mv	s1,a0
ffffffff84007518:	892e                	mv	s2,a1
ffffffff8400751a:	89ba                	mv	s3,a4
ffffffff8400751c:	4785                	li	a5,1
ffffffff8400751e:	0ab7fb63          	bgeu	a5,a1,ffffffff840075d4 <decodeCNodeInvocation+0xe0>
ffffffff84007522:	00018797          	auipc	a5,0x18
ffffffff84007526:	3367b783          	ld	a5,822(a5) # ffffffff8401f858 <ksCurThread>
ffffffff8400752a:	73b4                	ld	a3,96(a5)
ffffffff8400752c:	6fb0                	ld	a2,88(a5)
ffffffff8400752e:	6502                	ld	a0,0(sp)
ffffffff84007530:	65a2                	ld	a1,8(sp)
ffffffff84007532:	ec7fb0ef          	jal	ra,ffffffff840033f8 <lookupTargetSlot>
ffffffff84007536:	f8aa                	sd	a0,112(sp)
ffffffff84007538:	fcae                	sd	a1,120(sp)
ffffffff8400753a:	842a                	mv	s0,a0
ffffffff8400753c:	e155                	bnez	a0,ffffffff840075e0 <decodeCNodeInvocation+0xec>
ffffffff8400753e:	8a2e                	mv	s4,a1
ffffffff84007540:	fec48793          	addi	a5,s1,-20
ffffffff84007544:	470d                	li	a4,3
ffffffff84007546:	1ef76e63          	bltu	a4,a5,ffffffff84007742 <decodeCNodeInvocation+0x24e>
ffffffff8400754a:	478d                	li	a5,3
ffffffff8400754c:	0b27f663          	bgeu	a5,s2,ffffffff840075f8 <decodeCNodeInvocation+0x104>
ffffffff84007550:	00006797          	auipc	a5,0x6
ffffffff84007554:	3407b783          	ld	a5,832(a5) # ffffffff8400d890 <current_extra_caps>
ffffffff84007558:	c3c5                	beqz	a5,ffffffff840075f8 <decodeCNodeInvocation+0x104>
ffffffff8400755a:	00018717          	auipc	a4,0x18
ffffffff8400755e:	2fe73703          	ld	a4,766(a4) # ffffffff8401f858 <ksCurThread>
ffffffff84007562:	06873b03          	ld	s6,104(a4)
ffffffff84007566:	07073a83          	ld	s5,112(a4)
ffffffff8400756a:	6398                	ld	a4,0(a5)
ffffffff8400756c:	ec3a                	sd	a4,24(sp)
ffffffff8400756e:	679c                	ld	a5,8(a5)
ffffffff84007570:	f03e                	sd	a5,32(sp)
ffffffff84007572:	852e                	mv	a0,a1
ffffffff84007574:	dbcfc0ef          	jal	ra,ffffffff84003b30 <ensureEmptySlot>
ffffffff84007578:	842a                	mv	s0,a0
ffffffff8400757a:	e13d                	bnez	a0,ffffffff840075e0 <decodeCNodeInvocation+0xec>
ffffffff8400757c:	86d6                	mv	a3,s5
ffffffff8400757e:	865a                	mv	a2,s6
ffffffff84007580:	6562                	ld	a0,24(sp)
ffffffff84007582:	7582                	ld	a1,32(sp)
ffffffff84007584:	e5bfb0ef          	jal	ra,ffffffff840033de <lookupSourceSlot>
ffffffff84007588:	f8aa                	sd	a0,112(sp)
ffffffff8400758a:	fcae                	sd	a1,120(sp)
ffffffff8400758c:	842a                	mv	s0,a0
ffffffff8400758e:	e929                	bnez	a0,ffffffff840075e0 <decodeCNodeInvocation+0xec>
ffffffff84007590:	8b2e                	mv	s6,a1
ffffffff84007592:	0005bb83          	ld	s7,0(a1)
ffffffff84007596:	03bbd793          	srli	a5,s7,0x3b
ffffffff8400759a:	c7b5                	beqz	a5,ffffffff84007606 <decodeCNodeInvocation+0x112>
ffffffff8400759c:	47d9                	li	a5,22
ffffffff8400759e:	12f48b63          	beq	s1,a5,ffffffff840076d4 <decodeCNodeInvocation+0x1e0>
ffffffff840075a2:	1497ee63          	bltu	a5,s1,ffffffff840076fe <decodeCNodeInvocation+0x20a>
ffffffff840075a6:	47d1                	li	a5,20
ffffffff840075a8:	08f48563          	beq	s1,a5,ffffffff84007632 <decodeCNodeInvocation+0x13e>
ffffffff840075ac:	47d5                	li	a5,21
ffffffff840075ae:	02f49963          	bne	s1,a5,ffffffff840075e0 <decodeCNodeInvocation+0xec>
ffffffff840075b2:	4795                	li	a5,5
ffffffff840075b4:	0f27e263          	bltu	a5,s2,ffffffff84007698 <decodeCNodeInvocation+0x1a4>
ffffffff840075b8:	479d                	li	a5,7
ffffffff840075ba:	00006717          	auipc	a4,0x6
ffffffff840075be:	e8f73323          	sd	a5,-378(a4) # ffffffff8400d440 <current_syscall_error+0x30>
ffffffff840075c2:	440d                	li	s0,3
ffffffff840075c4:	a831                	j	ffffffff840075e0 <decodeCNodeInvocation+0xec>
ffffffff840075c6:	478d                	li	a5,3
ffffffff840075c8:	00006717          	auipc	a4,0x6
ffffffff840075cc:	e6f73c23          	sd	a5,-392(a4) # ffffffff8400d440 <current_syscall_error+0x30>
ffffffff840075d0:	440d                	li	s0,3
ffffffff840075d2:	a039                	j	ffffffff840075e0 <decodeCNodeInvocation+0xec>
ffffffff840075d4:	479d                	li	a5,7
ffffffff840075d6:	00006717          	auipc	a4,0x6
ffffffff840075da:	e6f73523          	sd	a5,-406(a4) # ffffffff8400d440 <current_syscall_error+0x30>
ffffffff840075de:	440d                	li	s0,3
ffffffff840075e0:	8522                	mv	a0,s0
ffffffff840075e2:	60ee                	ld	ra,216(sp)
ffffffff840075e4:	644e                	ld	s0,208(sp)
ffffffff840075e6:	64ae                	ld	s1,200(sp)
ffffffff840075e8:	690e                	ld	s2,192(sp)
ffffffff840075ea:	79ea                	ld	s3,184(sp)
ffffffff840075ec:	7a4a                	ld	s4,176(sp)
ffffffff840075ee:	7aaa                	ld	s5,168(sp)
ffffffff840075f0:	7b0a                	ld	s6,160(sp)
ffffffff840075f2:	6bea                	ld	s7,152(sp)
ffffffff840075f4:	612d                	addi	sp,sp,224
ffffffff840075f6:	8082                	ret
ffffffff840075f8:	479d                	li	a5,7
ffffffff840075fa:	00006717          	auipc	a4,0x6
ffffffff840075fe:	e4f73323          	sd	a5,-442(a4) # ffffffff8400d440 <current_syscall_error+0x30>
ffffffff84007602:	440d                	li	s0,3
ffffffff84007604:	bff1                	j	ffffffff840075e0 <decodeCNodeInvocation+0xec>
ffffffff84007606:	00006717          	auipc	a4,0x6
ffffffff8400760a:	9fa70713          	addi	a4,a4,-1542 # ffffffff8400d000 <riscvKSASIDTable>
ffffffff8400760e:	4799                	li	a5,6
ffffffff84007610:	44f73023          	sd	a5,1088(a4)
ffffffff84007614:	4785                	li	a5,1
ffffffff84007616:	42f73c23          	sd	a5,1080(a4)
ffffffff8400761a:	002a9793          	slli	a5,s5,0x2
ffffffff8400761e:	1fc7f793          	andi	a5,a5,508
ffffffff84007622:	0017e793          	ori	a5,a5,1
ffffffff84007626:	40f73023          	sd	a5,1024(a4)
ffffffff8400762a:	40073423          	sd	zero,1032(a4)
ffffffff8400762e:	440d                	li	s0,3
ffffffff84007630:	bf45                	j	ffffffff840075e0 <decodeCNodeInvocation+0xec>
ffffffff84007632:	4791                	li	a5,4
ffffffff84007634:	0127e963          	bltu	a5,s2,ffffffff84007646 <decodeCNodeInvocation+0x152>
ffffffff84007638:	479d                	li	a5,7
ffffffff8400763a:	00006717          	auipc	a4,0x6
ffffffff8400763e:	e0f73323          	sd	a5,-506(a4) # ffffffff8400d440 <current_syscall_error+0x30>
ffffffff84007642:	440d                	li	s0,3
ffffffff84007644:	bf71                	j	ffffffff840075e0 <decodeCNodeInvocation+0xec>
ffffffff84007646:	618c                	ld	a1,0(a1)
ffffffff84007648:	008b3603          	ld	a2,8(s6)
ffffffff8400764c:	0289b503          	ld	a0,40(s3)
ffffffff84007650:	ff0fc0ef          	jal	ra,ffffffff84003e40 <maskCapRights>
ffffffff84007654:	862a                	mv	a2,a0
ffffffff84007656:	86ae                	mv	a3,a1
ffffffff84007658:	fc2a                	sd	a0,56(sp)
ffffffff8400765a:	e0ae                	sd	a1,64(sp)
ffffffff8400765c:	85da                	mv	a1,s6
ffffffff8400765e:	08a8                	addi	a0,sp,88
ffffffff84007660:	e77fc0ef          	jal	ra,ffffffff840044d6 <deriveCap>
ffffffff84007664:	67e6                	ld	a5,88(sp)
ffffffff84007666:	ebf1                	bnez	a5,ffffffff8400773a <decodeCNodeInvocation+0x246>
ffffffff84007668:	7486                	ld	s1,96(sp)
ffffffff8400766a:	f426                	sd	s1,40(sp)
ffffffff8400766c:	77a6                	ld	a5,104(sp)
ffffffff8400766e:	f83e                	sd	a5,48(sp)
ffffffff84007670:	03b4d793          	srli	a5,s1,0x3b
ffffffff84007674:	c7cd                	beqz	a5,ffffffff8400771e <decodeCNodeInvocation+0x22a>
ffffffff84007676:	4589                	li	a1,2
ffffffff84007678:	00018517          	auipc	a0,0x18
ffffffff8400767c:	1e053503          	ld	a0,480(a0) # ffffffff8401f858 <ksCurThread>
ffffffff84007680:	c1efd0ef          	jal	ra,ffffffff84004a9e <setThreadState>
ffffffff84007684:	f426                	sd	s1,40(sp)
ffffffff84007686:	e4a6                	sd	s1,72(sp)
ffffffff84007688:	75c2                	ld	a1,48(sp)
ffffffff8400768a:	e8ae                	sd	a1,80(sp)
ffffffff8400768c:	86d2                	mv	a3,s4
ffffffff8400768e:	865a                	mv	a2,s6
ffffffff84007690:	8526                	mv	a0,s1
ffffffff84007692:	ff3fc0ef          	jal	ra,ffffffff84004684 <cteInsert>
ffffffff84007696:	b7a9                	j	ffffffff840075e0 <decodeCNodeInvocation+0xec>
ffffffff84007698:	0309b483          	ld	s1,48(s3)
ffffffff8400769c:	618c                	ld	a1,0(a1)
ffffffff8400769e:	008b3603          	ld	a2,8(s6)
ffffffff840076a2:	0289b503          	ld	a0,40(s3)
ffffffff840076a6:	f9afc0ef          	jal	ra,ffffffff84003e40 <maskCapRights>
ffffffff840076aa:	862a                	mv	a2,a0
ffffffff840076ac:	86ae                	mv	a3,a1
ffffffff840076ae:	fc2a                	sd	a0,56(sp)
ffffffff840076b0:	e0ae                	sd	a1,64(sp)
ffffffff840076b2:	85a6                	mv	a1,s1
ffffffff840076b4:	4501                	li	a0,0
ffffffff840076b6:	efafc0ef          	jal	ra,ffffffff84003db0 <updateCapData>
ffffffff840076ba:	862a                	mv	a2,a0
ffffffff840076bc:	86ae                	mv	a3,a1
ffffffff840076be:	85da                	mv	a1,s6
ffffffff840076c0:	08a8                	addi	a0,sp,88
ffffffff840076c2:	e15fc0ef          	jal	ra,ffffffff840044d6 <deriveCap>
ffffffff840076c6:	67e6                	ld	a5,88(sp)
ffffffff840076c8:	ebbd                	bnez	a5,ffffffff8400773e <decodeCNodeInvocation+0x24a>
ffffffff840076ca:	7486                	ld	s1,96(sp)
ffffffff840076cc:	f426                	sd	s1,40(sp)
ffffffff840076ce:	77a6                	ld	a5,104(sp)
ffffffff840076d0:	f83e                	sd	a5,48(sp)
ffffffff840076d2:	bf79                	j	ffffffff84007670 <decodeCNodeInvocation+0x17c>
ffffffff840076d4:	619c                	ld	a5,0(a1)
ffffffff840076d6:	f43e                	sd	a5,40(sp)
ffffffff840076d8:	659c                	ld	a5,8(a1)
ffffffff840076da:	f83e                	sd	a5,48(sp)
ffffffff840076dc:	4589                	li	a1,2
ffffffff840076de:	00018517          	auipc	a0,0x18
ffffffff840076e2:	17a53503          	ld	a0,378(a0) # ffffffff8401f858 <ksCurThread>
ffffffff840076e6:	bb8fd0ef          	jal	ra,ffffffff84004a9e <setThreadState>
ffffffff840076ea:	f45e                	sd	s7,40(sp)
ffffffff840076ec:	ecde                	sd	s7,88(sp)
ffffffff840076ee:	75c2                	ld	a1,48(sp)
ffffffff840076f0:	f0ae                	sd	a1,96(sp)
ffffffff840076f2:	86d2                	mv	a3,s4
ffffffff840076f4:	865a                	mv	a2,s6
ffffffff840076f6:	855e                	mv	a0,s7
ffffffff840076f8:	a80fc0ef          	jal	ra,ffffffff84003978 <cteMove>
ffffffff840076fc:	b5d5                	j	ffffffff840075e0 <decodeCNodeInvocation+0xec>
ffffffff840076fe:	4791                	li	a5,4
ffffffff84007700:	0327f663          	bgeu	a5,s2,ffffffff8400772c <decodeCNodeInvocation+0x238>
ffffffff84007704:	6190                	ld	a2,0(a1)
ffffffff84007706:	6594                	ld	a3,8(a1)
ffffffff84007708:	0289b583          	ld	a1,40(s3)
ffffffff8400770c:	4505                	li	a0,1
ffffffff8400770e:	ea2fc0ef          	jal	ra,ffffffff84003db0 <updateCapData>
ffffffff84007712:	f42a                	sd	a0,40(sp)
ffffffff84007714:	f82e                	sd	a1,48(sp)
ffffffff84007716:	8baa                	mv	s7,a0
ffffffff84007718:	916d                	srli	a0,a0,0x3b
ffffffff8400771a:	22051863          	bnez	a0,ffffffff8400794a <decodeCNodeInvocation+0x456>
ffffffff8400771e:	478d                	li	a5,3
ffffffff84007720:	00006717          	auipc	a4,0x6
ffffffff84007724:	d2f73023          	sd	a5,-736(a4) # ffffffff8400d440 <current_syscall_error+0x30>
ffffffff84007728:	440d                	li	s0,3
ffffffff8400772a:	bd5d                	j	ffffffff840075e0 <decodeCNodeInvocation+0xec>
ffffffff8400772c:	479d                	li	a5,7
ffffffff8400772e:	00006717          	auipc	a4,0x6
ffffffff84007732:	d0f73923          	sd	a5,-750(a4) # ffffffff8400d440 <current_syscall_error+0x30>
ffffffff84007736:	440d                	li	s0,3
ffffffff84007738:	b565                	j	ffffffff840075e0 <decodeCNodeInvocation+0xec>
ffffffff8400773a:	843e                	mv	s0,a5
ffffffff8400773c:	b555                	j	ffffffff840075e0 <decodeCNodeInvocation+0xec>
ffffffff8400773e:	843e                	mv	s0,a5
ffffffff84007740:	b545                	j	ffffffff840075e0 <decodeCNodeInvocation+0xec>
ffffffff84007742:	47c5                	li	a5,17
ffffffff84007744:	0ef48e63          	beq	s1,a5,ffffffff84007840 <decodeCNodeInvocation+0x34c>
ffffffff84007748:	47c9                	li	a5,18
ffffffff8400774a:	10f48763          	beq	s1,a5,ffffffff84007858 <decodeCNodeInvocation+0x364>
ffffffff8400774e:	47cd                	li	a5,19
ffffffff84007750:	12f48063          	beq	s1,a5,ffffffff84007870 <decodeCNodeInvocation+0x37c>
ffffffff84007754:	47e1                	li	a5,24
ffffffff84007756:	e8f495e3          	bne	s1,a5,ffffffff840075e0 <decodeCNodeInvocation+0xec>
ffffffff8400775a:	479d                	li	a5,7
ffffffff8400775c:	1527f563          	bgeu	a5,s2,ffffffff840078a6 <decodeCNodeInvocation+0x3b2>
ffffffff84007760:	00006797          	auipc	a5,0x6
ffffffff84007764:	1307b783          	ld	a5,304(a5) # ffffffff8400d890 <current_extra_caps>
ffffffff84007768:	12078f63          	beqz	a5,ffffffff840078a6 <decodeCNodeInvocation+0x3b2>
ffffffff8400776c:	00006717          	auipc	a4,0x6
ffffffff84007770:	12c73703          	ld	a4,300(a4) # ffffffff8400d898 <current_extra_caps+0x8>
ffffffff84007774:	12070963          	beqz	a4,ffffffff840078a6 <decodeCNodeInvocation+0x3b2>
ffffffff84007778:	00018697          	auipc	a3,0x18
ffffffff8400777c:	0e06b683          	ld	a3,224(a3) # ffffffff8401f858 <ksCurThread>
ffffffff84007780:	0686ba83          	ld	s5,104(a3)
ffffffff84007784:	0706bb83          	ld	s7,112(a3)
ffffffff84007788:	0289b903          	ld	s2,40(s3)
ffffffff8400778c:	0309bb03          	ld	s6,48(s3)
ffffffff84007790:	0409b483          	ld	s1,64(s3)
ffffffff84007794:	6394                	ld	a3,0(a5)
ffffffff84007796:	f436                	sd	a3,40(sp)
ffffffff84007798:	679c                	ld	a5,8(a5)
ffffffff8400779a:	f83e                	sd	a5,48(sp)
ffffffff8400779c:	6308                	ld	a0,0(a4)
ffffffff8400779e:	fc2a                	sd	a0,56(sp)
ffffffff840077a0:	670c                	ld	a1,8(a4)
ffffffff840077a2:	e0ae                	sd	a1,64(sp)
ffffffff840077a4:	86a6                	mv	a3,s1
ffffffff840077a6:	0389b603          	ld	a2,56(s3)
ffffffff840077aa:	c35fb0ef          	jal	ra,ffffffff840033de <lookupSourceSlot>
ffffffff840077ae:	fcae                	sd	a1,120(sp)
ffffffff840077b0:	842a                	mv	s0,a0
ffffffff840077b2:	e20517e3          	bnez	a0,ffffffff840075e0 <decodeCNodeInvocation+0xec>
ffffffff840077b6:	89ae                	mv	s3,a1
ffffffff840077b8:	86ca                	mv	a3,s2
ffffffff840077ba:	865e                	mv	a2,s7
ffffffff840077bc:	7522                	ld	a0,40(sp)
ffffffff840077be:	75c2                	ld	a1,48(sp)
ffffffff840077c0:	c53fb0ef          	jal	ra,ffffffff84003412 <lookupPivotSlot>
ffffffff840077c4:	f8aa                	sd	a0,112(sp)
ffffffff840077c6:	fcae                	sd	a1,120(sp)
ffffffff840077c8:	842a                	mv	s0,a0
ffffffff840077ca:	e0051be3          	bnez	a0,ffffffff840075e0 <decodeCNodeInvocation+0xec>
ffffffff840077ce:	8bae                	mv	s7,a1
ffffffff840077d0:	0eb98263          	beq	s3,a1,ffffffff840078b4 <decodeCNodeInvocation+0x3c0>
ffffffff840077d4:	0eba0063          	beq	s4,a1,ffffffff840078b4 <decodeCNodeInvocation+0x3c0>
ffffffff840077d8:	013a0863          	beq	s4,s3,ffffffff840077e8 <decodeCNodeInvocation+0x2f4>
ffffffff840077dc:	8552                	mv	a0,s4
ffffffff840077de:	b52fc0ef          	jal	ra,ffffffff84003b30 <ensureEmptySlot>
ffffffff840077e2:	842a                	mv	s0,a0
ffffffff840077e4:	de051ee3          	bnez	a0,ffffffff840075e0 <decodeCNodeInvocation+0xec>
ffffffff840077e8:	0009b783          	ld	a5,0(s3)
ffffffff840077ec:	93ed                	srli	a5,a5,0x3b
ffffffff840077ee:	cbf1                	beqz	a5,ffffffff840078c2 <decodeCNodeInvocation+0x3ce>
ffffffff840077f0:	000bb783          	ld	a5,0(s7)
ffffffff840077f4:	93ed                	srli	a5,a5,0x3b
ffffffff840077f6:	0e078c63          	beqz	a5,ffffffff840078ee <decodeCNodeInvocation+0x3fa>
ffffffff840077fa:	0009b603          	ld	a2,0(s3)
ffffffff840077fe:	0089b683          	ld	a3,8(s3)
ffffffff84007802:	85da                	mv	a1,s6
ffffffff84007804:	4505                	li	a0,1
ffffffff84007806:	daafc0ef          	jal	ra,ffffffff84003db0 <updateCapData>
ffffffff8400780a:	842a                	mv	s0,a0
ffffffff8400780c:	e4aa                	sd	a0,72(sp)
ffffffff8400780e:	e8ae                	sd	a1,80(sp)
ffffffff84007810:	000bb603          	ld	a2,0(s7)
ffffffff84007814:	008bb683          	ld	a3,8(s7)
ffffffff84007818:	85d6                	mv	a1,s5
ffffffff8400781a:	4505                	li	a0,1
ffffffff8400781c:	d94fc0ef          	jal	ra,ffffffff84003db0 <updateCapData>
ffffffff84007820:	ecaa                	sd	a0,88(sp)
ffffffff84007822:	f0ae                	sd	a1,96(sp)
ffffffff84007824:	906d                	srli	s0,s0,0x3b
ffffffff84007826:	0e040963          	beqz	s0,ffffffff84007918 <decodeCNodeInvocation+0x424>
ffffffff8400782a:	67e6                	ld	a5,88(sp)
ffffffff8400782c:	93ed                	srli	a5,a5,0x3b
ffffffff8400782e:	0e079c63          	bnez	a5,ffffffff84007926 <decodeCNodeInvocation+0x432>
ffffffff84007832:	478d                	li	a5,3
ffffffff84007834:	00006717          	auipc	a4,0x6
ffffffff84007838:	c0f73623          	sd	a5,-1012(a4) # ffffffff8400d440 <current_syscall_error+0x30>
ffffffff8400783c:	440d                	li	s0,3
ffffffff8400783e:	b34d                	j	ffffffff840075e0 <decodeCNodeInvocation+0xec>
ffffffff84007840:	4589                	li	a1,2
ffffffff84007842:	00018517          	auipc	a0,0x18
ffffffff84007846:	01653503          	ld	a0,22(a0) # ffffffff8401f858 <ksCurThread>
ffffffff8400784a:	a54fd0ef          	jal	ra,ffffffff84004a9e <setThreadState>
ffffffff8400784e:	8552                	mv	a0,s4
ffffffff84007850:	c13ff0ef          	jal	ra,ffffffff84007462 <cteRevoke>
ffffffff84007854:	842a                	mv	s0,a0
ffffffff84007856:	b369                	j	ffffffff840075e0 <decodeCNodeInvocation+0xec>
ffffffff84007858:	4589                	li	a1,2
ffffffff8400785a:	00018517          	auipc	a0,0x18
ffffffff8400785e:	ffe53503          	ld	a0,-2(a0) # ffffffff8401f858 <ksCurThread>
ffffffff84007862:	a3cfd0ef          	jal	ra,ffffffff84004a9e <setThreadState>
ffffffff84007866:	8552                	mv	a0,s4
ffffffff84007868:	b7bff0ef          	jal	ra,ffffffff840073e2 <invokeCNodeDelete>
ffffffff8400786c:	842a                	mv	s0,a0
ffffffff8400786e:	bb8d                	j	ffffffff840075e0 <decodeCNodeInvocation+0xec>
ffffffff84007870:	6188                	ld	a0,0(a1)
ffffffff84007872:	ecaa                	sd	a0,88(sp)
ffffffff84007874:	658c                	ld	a1,8(a1)
ffffffff84007876:	f0ae                	sd	a1,96(sp)
ffffffff84007878:	d06fc0ef          	jal	ra,ffffffff84003d7e <hasCancelSendRights>
ffffffff8400787c:	e901                	bnez	a0,ffffffff8400788c <decodeCNodeInvocation+0x398>
ffffffff8400787e:	478d                	li	a5,3
ffffffff84007880:	00006717          	auipc	a4,0x6
ffffffff84007884:	bcf73023          	sd	a5,-1088(a4) # ffffffff8400d440 <current_syscall_error+0x30>
ffffffff84007888:	440d                	li	s0,3
ffffffff8400788a:	bb99                	j	ffffffff840075e0 <decodeCNodeInvocation+0xec>
ffffffff8400788c:	4589                	li	a1,2
ffffffff8400788e:	00018517          	auipc	a0,0x18
ffffffff84007892:	fca53503          	ld	a0,-54(a0) # ffffffff8401f858 <ksCurThread>
ffffffff84007896:	a08fd0ef          	jal	ra,ffffffff84004a9e <setThreadState>
ffffffff8400789a:	6566                	ld	a0,88(sp)
ffffffff8400789c:	7586                	ld	a1,96(sp)
ffffffff8400789e:	b49fd0ef          	jal	ra,ffffffff840053e6 <invokeCNodeCancelBadgedSends>
ffffffff840078a2:	842a                	mv	s0,a0
ffffffff840078a4:	bb35                	j	ffffffff840075e0 <decodeCNodeInvocation+0xec>
ffffffff840078a6:	479d                	li	a5,7
ffffffff840078a8:	00006717          	auipc	a4,0x6
ffffffff840078ac:	b8f73c23          	sd	a5,-1128(a4) # ffffffff8400d440 <current_syscall_error+0x30>
ffffffff840078b0:	440d                	li	s0,3
ffffffff840078b2:	b33d                	j	ffffffff840075e0 <decodeCNodeInvocation+0xec>
ffffffff840078b4:	478d                	li	a5,3
ffffffff840078b6:	00006717          	auipc	a4,0x6
ffffffff840078ba:	b8f73523          	sd	a5,-1142(a4) # ffffffff8400d440 <current_syscall_error+0x30>
ffffffff840078be:	440d                	li	s0,3
ffffffff840078c0:	b305                	j	ffffffff840075e0 <decodeCNodeInvocation+0xec>
ffffffff840078c2:	00005717          	auipc	a4,0x5
ffffffff840078c6:	73e70713          	addi	a4,a4,1854 # ffffffff8400d000 <riscvKSASIDTable>
ffffffff840078ca:	4799                	li	a5,6
ffffffff840078cc:	44f73023          	sd	a5,1088(a4)
ffffffff840078d0:	4785                	li	a5,1
ffffffff840078d2:	42f73c23          	sd	a5,1080(a4)
ffffffff840078d6:	00249793          	slli	a5,s1,0x2
ffffffff840078da:	1fc7f793          	andi	a5,a5,508
ffffffff840078de:	0017e793          	ori	a5,a5,1
ffffffff840078e2:	40f73023          	sd	a5,1024(a4)
ffffffff840078e6:	40073423          	sd	zero,1032(a4)
ffffffff840078ea:	440d                	li	s0,3
ffffffff840078ec:	b9d5                	j	ffffffff840075e0 <decodeCNodeInvocation+0xec>
ffffffff840078ee:	00005717          	auipc	a4,0x5
ffffffff840078f2:	71270713          	addi	a4,a4,1810 # ffffffff8400d000 <riscvKSASIDTable>
ffffffff840078f6:	4799                	li	a5,6
ffffffff840078f8:	44f73023          	sd	a5,1088(a4)
ffffffff840078fc:	42073c23          	sd	zero,1080(a4)
ffffffff84007900:	00291793          	slli	a5,s2,0x2
ffffffff84007904:	1fc7f793          	andi	a5,a5,508
ffffffff84007908:	0017e793          	ori	a5,a5,1
ffffffff8400790c:	40f73023          	sd	a5,1024(a4)
ffffffff84007910:	40073423          	sd	zero,1032(a4)
ffffffff84007914:	440d                	li	s0,3
ffffffff84007916:	b1e9                	j	ffffffff840075e0 <decodeCNodeInvocation+0xec>
ffffffff84007918:	478d                	li	a5,3
ffffffff8400791a:	00006717          	auipc	a4,0x6
ffffffff8400791e:	b2f73323          	sd	a5,-1242(a4) # ffffffff8400d440 <current_syscall_error+0x30>
ffffffff84007922:	440d                	li	s0,3
ffffffff84007924:	b975                	j	ffffffff840075e0 <decodeCNodeInvocation+0xec>
ffffffff84007926:	4589                	li	a1,2
ffffffff84007928:	00018517          	auipc	a0,0x18
ffffffff8400792c:	f3053503          	ld	a0,-208(a0) # ffffffff8401f858 <ksCurThread>
ffffffff84007930:	96efd0ef          	jal	ra,ffffffff84004a9e <setThreadState>
ffffffff84007934:	8852                	mv	a6,s4
ffffffff84007936:	87de                	mv	a5,s7
ffffffff84007938:	874e                	mv	a4,s3
ffffffff8400793a:	6666                	ld	a2,88(sp)
ffffffff8400793c:	7686                	ld	a3,96(sp)
ffffffff8400793e:	6526                	ld	a0,72(sp)
ffffffff84007940:	65c6                	ld	a1,80(sp)
ffffffff84007942:	92afc0ef          	jal	ra,ffffffff84003a6c <invokeCNodeRotate>
ffffffff84007946:	842a                	mv	s0,a0
ffffffff84007948:	b961                	j	ffffffff840075e0 <decodeCNodeInvocation+0xec>
ffffffff8400794a:	4589                	li	a1,2
ffffffff8400794c:	00018517          	auipc	a0,0x18
ffffffff84007950:	f0c53503          	ld	a0,-244(a0) # ffffffff8401f858 <ksCurThread>
ffffffff84007954:	94afd0ef          	jal	ra,ffffffff84004a9e <setThreadState>
ffffffff84007958:	bb49                	j	ffffffff840076ea <decodeCNodeInvocation+0x1f6>

ffffffff8400795a <performInvocation_Endpoint>:
ffffffff8400795a:	1141                	addi	sp,sp,-16
ffffffff8400795c:	e406                	sd	ra,8(sp)
ffffffff8400795e:	88aa                	mv	a7,a0
ffffffff84007960:	832e                	mv	t1,a1
ffffffff84007962:	853a                	mv	a0,a4
ffffffff84007964:	85be                	mv	a1,a5
ffffffff84007966:	87c2                	mv	a5,a6
ffffffff84007968:	00018817          	auipc	a6,0x18
ffffffff8400796c:	ef083803          	ld	a6,-272(a6) # ffffffff8401f858 <ksCurThread>
ffffffff84007970:	8736                	mv	a4,a3
ffffffff84007972:	86b2                	mv	a3,a2
ffffffff84007974:	861a                	mv	a2,t1
ffffffff84007976:	b0cff0ef          	jal	ra,ffffffff84006c82 <sendIPC>
ffffffff8400797a:	4501                	li	a0,0
ffffffff8400797c:	60a2                	ld	ra,8(sp)
ffffffff8400797e:	0141                	addi	sp,sp,16
ffffffff84007980:	8082                	ret

ffffffff84007982 <doReplyTransfer>:
ffffffff84007982:	7179                	addi	sp,sp,-48
ffffffff84007984:	f406                	sd	ra,40(sp)
ffffffff84007986:	f022                	sd	s0,32(sp)
ffffffff84007988:	ec26                	sd	s1,24(sp)
ffffffff8400798a:	e84a                	sd	s2,16(sp)
ffffffff8400798c:	e44e                	sd	s3,8(sp)
ffffffff8400798e:	6180                	ld	s0,0(a1)
ffffffff84007990:	c811                	beqz	s0,ffffffff840079a4 <doReplyTransfer+0x22>
ffffffff84007992:	84aa                	mv	s1,a0
ffffffff84007994:	852e                	mv	a0,a1
ffffffff84007996:	8932                	mv	s2,a2
ffffffff84007998:	11843783          	ld	a5,280(s0)
ffffffff8400799c:	8bbd                	andi	a5,a5,15
ffffffff8400799e:	4715                	li	a4,5
ffffffff840079a0:	00e78963          	beq	a5,a4,ffffffff840079b2 <doReplyTransfer+0x30>
ffffffff840079a4:	70a2                	ld	ra,40(sp)
ffffffff840079a6:	7402                	ld	s0,32(sp)
ffffffff840079a8:	64e2                	ld	s1,24(sp)
ffffffff840079aa:	6942                	ld	s2,16(sp)
ffffffff840079ac:	69a2                	ld	s3,8(sp)
ffffffff840079ae:	6145                	addi	sp,sp,48
ffffffff840079b0:	8082                	ret
ffffffff840079b2:	85a2                	mv	a1,s0
ffffffff840079b4:	865fd0ef          	jal	ra,ffffffff84005218 <reply_remove>
ffffffff840079b8:	13843983          	ld	s3,312(s0)
ffffffff840079bc:	00f9f993          	andi	s3,s3,15
ffffffff840079c0:	06099563          	bnez	s3,ffffffff84007a2a <doReplyTransfer+0xa8>
ffffffff840079c4:	8722                	mv	a4,s0
ffffffff840079c6:	86ca                	mv	a3,s2
ffffffff840079c8:	4601                	li	a2,0
ffffffff840079ca:	4581                	li	a1,0
ffffffff840079cc:	8526                	mv	a0,s1
ffffffff840079ce:	a4eff0ef          	jal	ra,ffffffff84006c1c <doIPCTransfer>
ffffffff840079d2:	4585                	li	a1,1
ffffffff840079d4:	8522                	mv	a0,s0
ffffffff840079d6:	8c8fd0ef          	jal	ra,ffffffff84004a9e <setThreadState>
ffffffff840079da:	17043503          	ld	a0,368(s0)
ffffffff840079de:	d179                	beqz	a0,ffffffff840079a4 <doReplyTransfer+0x22>
ffffffff840079e0:	11843783          	ld	a5,280(s0)
ffffffff840079e4:	8bbd                	andi	a5,a5,15
ffffffff840079e6:	17fd                	addi	a5,a5,-1
ffffffff840079e8:	4705                	li	a4,1
ffffffff840079ea:	faf76de3          	bltu	a4,a5,ffffffff840079a4 <doReplyTransfer+0x22>
ffffffff840079ee:	653c                	ld	a5,72(a0)
ffffffff840079f0:	0792                	slli	a5,a5,0x4
ffffffff840079f2:	05850713          	addi	a4,a0,88
ffffffff840079f6:	97ba                	add	a5,a5,a4
ffffffff840079f8:	00018717          	auipc	a4,0x18
ffffffff840079fc:	e3873703          	ld	a4,-456(a4) # ffffffff8401f830 <ksCurTime>
ffffffff84007a00:	0729                	addi	a4,a4,10
ffffffff84007a02:	6394                	ld	a3,0(a5)
ffffffff84007a04:	00d76663          	bltu	a4,a3,ffffffff84007a10 <doReplyTransfer+0x8e>
ffffffff84007a08:	6798                	ld	a4,8(a5)
ffffffff84007a0a:	47cd                	li	a5,19
ffffffff84007a0c:	04e7e263          	bltu	a5,a4,ffffffff84007a50 <doReplyTransfer+0xce>
ffffffff84007a10:	c0047793          	andi	a5,s0,-1024
ffffffff84007a14:	63dc                	ld	a5,128(a5)
ffffffff84007a16:	93ed                	srli	a5,a5,0x3b
ffffffff84007a18:	4711                	li	a4,4
ffffffff84007a1a:	00e79563          	bne	a5,a4,ffffffff84007a24 <doReplyTransfer+0xa2>
ffffffff84007a1e:	4795                	li	a5,5
ffffffff84007a20:	02f99c63          	bne	s3,a5,ffffffff84007a58 <doReplyTransfer+0xd6>
ffffffff84007a24:	a92fe0ef          	jal	ra,ffffffff84005cb6 <postpone>
ffffffff84007a28:	bfb5                	j	ffffffff840079a4 <doReplyTransfer+0x22>
ffffffff84007a2a:	85a6                	mv	a1,s1
ffffffff84007a2c:	8522                	mv	a0,s0
ffffffff84007a2e:	bcbfa0ef          	jal	ra,ffffffff840025f8 <handleFaultReply>
ffffffff84007a32:	12043c23          	sd	zero,312(s0)
ffffffff84007a36:	14043023          	sd	zero,320(s0)
ffffffff84007a3a:	c511                	beqz	a0,ffffffff84007a46 <doReplyTransfer+0xc4>
ffffffff84007a3c:	4589                	li	a1,2
ffffffff84007a3e:	8522                	mv	a0,s0
ffffffff84007a40:	85efd0ef          	jal	ra,ffffffff84004a9e <setThreadState>
ffffffff84007a44:	bf59                	j	ffffffff840079da <doReplyTransfer+0x58>
ffffffff84007a46:	4581                	li	a1,0
ffffffff84007a48:	8522                	mv	a0,s0
ffffffff84007a4a:	854fd0ef          	jal	ra,ffffffff84004a9e <setThreadState>
ffffffff84007a4e:	b771                	j	ffffffff840079da <doReplyTransfer+0x58>
ffffffff84007a50:	8522                	mv	a0,s0
ffffffff84007a52:	af0fd0ef          	jal	ra,ffffffff84004d42 <possibleSwitchTo>
ffffffff84007a56:	b7b9                	j	ffffffff840079a4 <doReplyTransfer+0x22>
ffffffff84007a58:	7918                	ld	a4,48(a0)
ffffffff84007a5a:	00005797          	auipc	a5,0x5
ffffffff84007a5e:	5a678793          	addi	a5,a5,1446 # ffffffff8400d000 <riscvKSASIDTable>
ffffffff84007a62:	4695                	li	a3,5
ffffffff84007a64:	44d7b423          	sd	a3,1096(a5)
ffffffff84007a68:	44e7b823          	sd	a4,1104(a5)
ffffffff84007a6c:	8522                	mv	a0,s0
ffffffff84007a6e:	cbaff0ef          	jal	ra,ffffffff84006f28 <handleTimeout>
ffffffff84007a72:	bf0d                	j	ffffffff840079a4 <doReplyTransfer+0x22>

ffffffff84007a74 <performInvocation_Reply>:
ffffffff84007a74:	1141                	addi	sp,sp,-16
ffffffff84007a76:	e406                	sd	ra,8(sp)
ffffffff84007a78:	f0bff0ef          	jal	ra,ffffffff84007982 <doReplyTransfer>
ffffffff84007a7c:	4501                	li	a0,0
ffffffff84007a7e:	60a2                	ld	ra,8(sp)
ffffffff84007a80:	0141                	addi	sp,sp,16
ffffffff84007a82:	8082                	ret

ffffffff84007a84 <receiveIPC>:
ffffffff84007a84:	7159                	addi	sp,sp,-112
ffffffff84007a86:	f486                	sd	ra,104(sp)
ffffffff84007a88:	f0a2                	sd	s0,96(sp)
ffffffff84007a8a:	eca6                	sd	s1,88(sp)
ffffffff84007a8c:	e8ca                	sd	s2,80(sp)
ffffffff84007a8e:	e4ce                	sd	s3,72(sp)
ffffffff84007a90:	e0d2                	sd	s4,64(sp)
ffffffff84007a92:	fc56                	sd	s5,56(sp)
ffffffff84007a94:	842a                	mv	s0,a0
ffffffff84007a96:	e82e                	sd	a1,16(sp)
ffffffff84007a98:	ec32                	sd	a2,24(sp)
ffffffff84007a9a:	89b6                	mv	s3,a3
ffffffff84007a9c:	e03a                	sd	a4,0(sp)
ffffffff84007a9e:	e43e                	sd	a5,8(sp)
ffffffff84007aa0:	01959493          	slli	s1,a1,0x19
ffffffff84007aa4:	80e5                	srli	s1,s1,0x19
ffffffff84007aa6:	9199                	srli	a1,a1,0x26
ffffffff84007aa8:	8985                	andi	a1,a1,1
ffffffff84007aaa:	c581                	beqz	a1,ffffffff84007ab2 <receiveIPC+0x2e>
ffffffff84007aac:	57fd                	li	a5,-1
ffffffff84007aae:	179e                	slli	a5,a5,0x27
ffffffff84007ab0:	8cdd                	or	s1,s1,a5
ffffffff84007ab2:	8926                	mv	s2,s1
ffffffff84007ab4:	6782                	ld	a5,0(sp)
ffffffff84007ab6:	93ed                	srli	a5,a5,0x3b
ffffffff84007ab8:	4721                	li	a4,8
ffffffff84007aba:	4a01                	li	s4,0
ffffffff84007abc:	02e78f63          	beq	a5,a4,ffffffff84007afa <receiveIPC+0x76>
ffffffff84007ac0:	13043503          	ld	a0,304(s0)
ffffffff84007ac4:	cd49                	beqz	a0,ffffffff84007b5e <receiveIPC+0xda>
ffffffff84007ac6:	611c                	ld	a5,0(a0)
ffffffff84007ac8:	8b8d                	andi	a5,a5,3
ffffffff84007aca:	4709                	li	a4,2
ffffffff84007acc:	04e78063          	beq	a5,a4,ffffffff84007b0c <receiveIPC+0x88>
ffffffff84007ad0:	04099263          	bnez	s3,ffffffff84007b14 <receiveIPC+0x90>
ffffffff84007ad4:	00093783          	ld	a5,0(s2) # fffffffff8000000 <ki_end+0x73fdb000>
ffffffff84007ad8:	0037f693          	andi	a3,a5,3
ffffffff84007adc:	4705                	li	a4,1
ffffffff84007ade:	16e68163          	beq	a3,a4,ffffffff84007c40 <receiveIPC+0x1bc>
ffffffff84007ae2:	8b85                	andi	a5,a5,1
ffffffff84007ae4:	14078b63          	beqz	a5,ffffffff84007c3a <receiveIPC+0x1b6>
ffffffff84007ae8:	70a6                	ld	ra,104(sp)
ffffffff84007aea:	7406                	ld	s0,96(sp)
ffffffff84007aec:	64e6                	ld	s1,88(sp)
ffffffff84007aee:	6946                	ld	s2,80(sp)
ffffffff84007af0:	69a6                	ld	s3,72(sp)
ffffffff84007af2:	6a06                	ld	s4,64(sp)
ffffffff84007af4:	7ae2                	ld	s5,56(sp)
ffffffff84007af6:	6165                	addi	sp,sp,112
ffffffff84007af8:	8082                	ret
ffffffff84007afa:	6a22                	ld	s4,8(sp)
ffffffff84007afc:	000a3503          	ld	a0,0(s4)
ffffffff84007b00:	d161                	beqz	a0,ffffffff84007ac0 <receiveIPC+0x3c>
ffffffff84007b02:	fa850fe3          	beq	a0,s0,ffffffff84007ac0 <receiveIPC+0x3c>
ffffffff84007b06:	a0ffd0ef          	jal	ra,ffffffff84005514 <cancelIPC>
ffffffff84007b0a:	bf5d                	j	ffffffff84007ac0 <receiveIPC+0x3c>
ffffffff84007b0c:	85a2                	mv	a1,s0
ffffffff84007b0e:	8edfe0ef          	jal	ra,ffffffff840063fa <completeSignal>
ffffffff84007b12:	bfd9                	j	ffffffff84007ae8 <receiveIPC+0x64>
ffffffff84007b14:	711c                	ld	a5,32(a0)
ffffffff84007b16:	01979713          	slli	a4,a5,0x19
ffffffff84007b1a:	8365                	srli	a4,a4,0x19
ffffffff84007b1c:	9399                	srli	a5,a5,0x26
ffffffff84007b1e:	8b85                	andi	a5,a5,1
ffffffff84007b20:	c781                	beqz	a5,ffffffff84007b28 <receiveIPC+0xa4>
ffffffff84007b22:	57fd                	li	a5,-1
ffffffff84007b24:	179e                	slli	a5,a5,0x27
ffffffff84007b26:	8f5d                	or	a4,a4,a5
ffffffff84007b28:	17043783          	ld	a5,368(s0)
ffffffff84007b2c:	00e78c63          	beq	a5,a4,ffffffff84007b44 <receiveIPC+0xc0>
ffffffff84007b30:	00093783          	ld	a5,0(s2)
ffffffff84007b34:	0037f693          	andi	a3,a5,3
ffffffff84007b38:	4705                	li	a4,1
ffffffff84007b3a:	10e68363          	beq	a3,a4,ffffffff84007c40 <receiveIPC+0x1bc>
ffffffff84007b3e:	8b85                	andi	a5,a5,1
ffffffff84007b40:	f7c5                	bnez	a5,ffffffff84007ae8 <receiveIPC+0x64>
ffffffff84007b42:	a80d                	j	ffffffff84007b74 <receiveIPC+0xf0>
ffffffff84007b44:	16043823          	sd	zero,368(s0)
ffffffff84007b48:	00073c23          	sd	zero,24(a4)
ffffffff84007b4c:	00018797          	auipc	a5,0x18
ffffffff84007b50:	d0c7b783          	ld	a5,-756(a5) # ffffffff8401f858 <ksCurThread>
ffffffff84007b54:	fcf41ee3          	bne	s0,a5,ffffffff84007b30 <receiveIPC+0xac>
ffffffff84007b58:	eadfc0ef          	jal	ra,ffffffff84004a04 <rescheduleRequired>
ffffffff84007b5c:	bfd1                	j	ffffffff84007b30 <receiveIPC+0xac>
ffffffff84007b5e:	00093783          	ld	a5,0(s2)
ffffffff84007b62:	0037f693          	andi	a3,a5,3
ffffffff84007b66:	4705                	li	a4,1
ffffffff84007b68:	0ce68c63          	beq	a3,a4,ffffffff84007c40 <receiveIPC+0x1bc>
ffffffff84007b6c:	8b85                	andi	a5,a5,1
ffffffff84007b6e:	ffad                	bnez	a5,ffffffff84007ae8 <receiveIPC+0x64>
ffffffff84007b70:	0c098563          	beqz	s3,ffffffff84007c3a <receiveIPC+0x1b6>
ffffffff84007b74:	11843783          	ld	a5,280(s0)
ffffffff84007b78:	577d                	li	a4,-1
ffffffff84007b7a:	02771693          	slli	a3,a4,0x27
ffffffff84007b7e:	8ff5                	and	a5,a5,a3
ffffffff84007b80:	e00006b7          	lui	a3,0xe0000
ffffffff84007b84:	0196d613          	srli	a2,a3,0x19
ffffffff84007b88:	8cf1                	and	s1,s1,a2
ffffffff84007b8a:	8cdd                	or	s1,s1,a5
ffffffff84007b8c:	0034e493          	ori	s1,s1,3
ffffffff84007b90:	10943c23          	sd	s1,280(s0)
ffffffff84007b94:	12043783          	ld	a5,288(s0)
ffffffff84007b98:	1722                	slli	a4,a4,0x28
ffffffff84007b9a:	077d                	addi	a4,a4,31
ffffffff84007b9c:	8f7d                	and	a4,a4,a5
ffffffff84007b9e:	001a1793          	slli	a5,s4,0x1
ffffffff84007ba2:	82e1                	srli	a3,a3,0x18
ffffffff84007ba4:	8ff5                	and	a5,a5,a3
ffffffff84007ba6:	8f5d                	or	a4,a4,a5
ffffffff84007ba8:	12e43023          	sd	a4,288(s0)
ffffffff84007bac:	000a0463          	beqz	s4,ffffffff84007bb4 <receiveIPC+0x130>
ffffffff84007bb0:	008a3023          	sd	s0,0(s4)
ffffffff84007bb4:	8522                	mv	a0,s0
ffffffff84007bb6:	ea1fc0ef          	jal	ra,ffffffff84004a56 <scheduleTCB>
ffffffff84007bba:	00893603          	ld	a2,8(s2)
ffffffff84007bbe:	00093703          	ld	a4,0(s2)
ffffffff84007bc2:	f80007b7          	lui	a5,0xf8000
ffffffff84007bc6:	83e5                	srli	a5,a5,0x19
ffffffff84007bc8:	8ff9                	and	a5,a5,a4
ffffffff84007bca:	9319                	srli	a4,a4,0x26
ffffffff84007bcc:	8b05                	andi	a4,a4,1
ffffffff84007bce:	c30d                	beqz	a4,ffffffff84007bf0 <receiveIPC+0x16c>
ffffffff84007bd0:	577d                	li	a4,-1
ffffffff84007bd2:	171e                	slli	a4,a4,0x27
ffffffff84007bd4:	8fd9                	or	a5,a5,a4
ffffffff84007bd6:	16843583          	ld	a1,360(s0)
ffffffff84007bda:	873e                	mv	a4,a5
ffffffff84007bdc:	4681                	li	a3,0
ffffffff84007bde:	16873503          	ld	a0,360(a4)
ffffffff84007be2:	04b56063          	bltu	a0,a1,ffffffff84007c22 <receiveIPC+0x19e>
ffffffff84007be6:	18873c23          	sd	s0,408(a4)
ffffffff84007bea:	e2b1                	bnez	a3,ffffffff84007c2e <receiveIPC+0x1aa>
ffffffff84007bec:	87a2                	mv	a5,s0
ffffffff84007bee:	a031                	j	ffffffff84007bfa <receiveIPC+0x176>
ffffffff84007bf0:	f3fd                	bnez	a5,ffffffff84007bd6 <receiveIPC+0x152>
ffffffff84007bf2:	8622                	mv	a2,s0
ffffffff84007bf4:	87a2                	mv	a5,s0
ffffffff84007bf6:	4701                	li	a4,0
ffffffff84007bf8:	4681                	li	a3,0
ffffffff84007bfa:	18d43c23          	sd	a3,408(s0)
ffffffff84007bfe:	1ae43023          	sd	a4,416(s0)
ffffffff84007c02:	00093703          	ld	a4,0(s2)
ffffffff84007c06:	00c93423          	sd	a2,8(s2)
ffffffff84007c0a:	931d                	srli	a4,a4,0x27
ffffffff84007c0c:	171e                	slli	a4,a4,0x27
ffffffff84007c0e:	f80006b7          	lui	a3,0xf8000
ffffffff84007c12:	82e5                	srli	a3,a3,0x19
ffffffff84007c14:	8ff5                	and	a5,a5,a3
ffffffff84007c16:	8fd9                	or	a5,a5,a4
ffffffff84007c18:	0027e793          	ori	a5,a5,2
ffffffff84007c1c:	00f93023          	sd	a5,0(s2)
ffffffff84007c20:	b5e1                	j	ffffffff84007ae8 <receiveIPC+0x64>
ffffffff84007c22:	1a073503          	ld	a0,416(a4)
ffffffff84007c26:	e519                	bnez	a0,ffffffff84007c34 <receiveIPC+0x1b0>
ffffffff84007c28:	8622                	mv	a2,s0
ffffffff84007c2a:	86ba                	mv	a3,a4
ffffffff84007c2c:	872a                	mv	a4,a0
ffffffff84007c2e:	1a86b023          	sd	s0,416(a3) # fffffffff80001a0 <ki_end+0x73fdb1a0>
ffffffff84007c32:	b7e1                	j	ffffffff84007bfa <receiveIPC+0x176>
ffffffff84007c34:	86ba                	mv	a3,a4
ffffffff84007c36:	872a                	mv	a4,a0
ffffffff84007c38:	b75d                	j	ffffffff84007bde <receiveIPC+0x15a>
ffffffff84007c3a:	04043423          	sd	zero,72(s0)
ffffffff84007c3e:	b56d                	j	ffffffff84007ae8 <receiveIPC+0x64>
ffffffff84007c40:	00893483          	ld	s1,8(s2)
ffffffff84007c44:	f8000637          	lui	a2,0xf8000
ffffffff84007c48:	8265                	srli	a2,a2,0x19
ffffffff84007c4a:	8e7d                	and	a2,a2,a5
ffffffff84007c4c:	9399                	srli	a5,a5,0x26
ffffffff84007c4e:	8b85                	andi	a5,a5,1
ffffffff84007c50:	c781                	beqz	a5,ffffffff84007c58 <receiveIPC+0x1d4>
ffffffff84007c52:	57fd                	li	a5,-1
ffffffff84007c54:	179e                	slli	a5,a5,0x27
ffffffff84007c56:	8e5d                	or	a2,a2,a5
ffffffff84007c58:	85a6                	mv	a1,s1
ffffffff84007c5a:	8526                	mv	a0,s1
ffffffff84007c5c:	e66fd0ef          	jal	ra,ffffffff840052c2 <tcbEPDequeue>
ffffffff84007c60:	f02a                	sd	a0,32(sp)
ffffffff84007c62:	f42e                	sd	a1,40(sp)
ffffffff84007c64:	00a93423          	sd	a0,8(s2)
ffffffff84007c68:	00093783          	ld	a5,0(s2)
ffffffff84007c6c:	577d                	li	a4,-1
ffffffff84007c6e:	171e                	slli	a4,a4,0x27
ffffffff84007c70:	070d                	addi	a4,a4,3
ffffffff84007c72:	8ff9                	and	a5,a5,a4
ffffffff84007c74:	f8000737          	lui	a4,0xf8000
ffffffff84007c78:	8365                	srli	a4,a4,0x19
ffffffff84007c7a:	8df9                	and	a1,a1,a4
ffffffff84007c7c:	8ddd                	or	a1,a1,a5
ffffffff84007c7e:	c12d                	beqz	a0,ffffffff84007ce0 <receiveIPC+0x25c>
ffffffff84007c80:	00b93023          	sd	a1,0(s2)
ffffffff84007c84:	1204b783          	ld	a5,288(s1)
ffffffff84007c88:	0047da93          	srli	s5,a5,0x4
ffffffff84007c8c:	0037d993          	srli	s3,a5,0x3
ffffffff84007c90:	8722                	mv	a4,s0
ffffffff84007c92:	001af693          	andi	a3,s5,1
ffffffff84007c96:	1284b603          	ld	a2,296(s1)
ffffffff84007c9a:	85ca                	mv	a1,s2
ffffffff84007c9c:	8526                	mv	a0,s1
ffffffff84007c9e:	f7ffe0ef          	jal	ra,ffffffff84006c1c <doIPCTransfer>
ffffffff84007ca2:	1204b783          	ld	a5,288(s1)
ffffffff84007ca6:	8389                	srli	a5,a5,0x2
ffffffff84007ca8:	8b85                	andi	a5,a5,1
ffffffff84007caa:	e789                	bnez	a5,ffffffff84007cb4 <receiveIPC+0x230>
ffffffff84007cac:	1384b783          	ld	a5,312(s1)
ffffffff84007cb0:	8bbd                	andi	a5,a5,15
ffffffff84007cb2:	c3a1                	beqz	a5,ffffffff84007cf2 <receiveIPC+0x26e>
ffffffff84007cb4:	0159e7b3          	or	a5,s3,s5
ffffffff84007cb8:	8b85                	andi	a5,a5,1
ffffffff84007cba:	c79d                	beqz	a5,ffffffff84007ce8 <receiveIPC+0x264>
ffffffff84007cbc:	020a0663          	beqz	s4,ffffffff84007ce8 <receiveIPC+0x264>
ffffffff84007cc0:	1704b783          	ld	a5,368(s1)
ffffffff84007cc4:	4681                	li	a3,0
ffffffff84007cc6:	c799                	beqz	a5,ffffffff84007cd4 <receiveIPC+0x250>
ffffffff84007cc8:	1384b683          	ld	a3,312(s1)
ffffffff84007ccc:	8abd                	andi	a3,a3,15
ffffffff84007cce:	16ed                	addi	a3,a3,-5
ffffffff84007cd0:	00d036b3          	snez	a3,a3
ffffffff84007cd4:	8652                	mv	a2,s4
ffffffff84007cd6:	85a2                	mv	a1,s0
ffffffff84007cd8:	8526                	mv	a0,s1
ffffffff84007cda:	c0efd0ef          	jal	ra,ffffffff840050e8 <reply_push>
ffffffff84007cde:	b529                	j	ffffffff84007ae8 <receiveIPC+0x64>
ffffffff84007ce0:	99f1                	andi	a1,a1,-4
ffffffff84007ce2:	00b93023          	sd	a1,0(s2)
ffffffff84007ce6:	bf79                	j	ffffffff84007c84 <receiveIPC+0x200>
ffffffff84007ce8:	4581                	li	a1,0
ffffffff84007cea:	8526                	mv	a0,s1
ffffffff84007cec:	db3fc0ef          	jal	ra,ffffffff84004a9e <setThreadState>
ffffffff84007cf0:	bbe5                	j	ffffffff84007ae8 <receiveIPC+0x64>
ffffffff84007cf2:	4585                	li	a1,1
ffffffff84007cf4:	8526                	mv	a0,s1
ffffffff84007cf6:	da9fc0ef          	jal	ra,ffffffff84004a9e <setThreadState>
ffffffff84007cfa:	8526                	mv	a0,s1
ffffffff84007cfc:	846fd0ef          	jal	ra,ffffffff84004d42 <possibleSwitchTo>
ffffffff84007d00:	b3e5                	j	ffffffff84007ae8 <receiveIPC+0x64>

ffffffff84007d02 <handleRecv>:
ffffffff84007d02:	7159                	addi	sp,sp,-112
ffffffff84007d04:	f486                	sd	ra,104(sp)
ffffffff84007d06:	f0a2                	sd	s0,96(sp)
ffffffff84007d08:	eca6                	sd	s1,88(sp)
ffffffff84007d0a:	e8ca                	sd	s2,80(sp)
ffffffff84007d0c:	842a                	mv	s0,a0
ffffffff84007d0e:	84ae                	mv	s1,a1
ffffffff84007d10:	00018597          	auipc	a1,0x18
ffffffff84007d14:	b485b583          	ld	a1,-1208(a1) # ffffffff8401f858 <ksCurThread>
ffffffff84007d18:	0485b903          	ld	s2,72(a1)
ffffffff84007d1c:	864a                	mv	a2,s2
ffffffff84007d1e:	1828                	addi	a0,sp,56
ffffffff84007d20:	d76fb0ef          	jal	ra,ffffffff84003296 <lookupCap>
ffffffff84007d24:	6786                	ld	a5,64(sp)
ffffffff84007d26:	7762                	ld	a4,56(sp)
ffffffff84007d28:	e729                	bnez	a4,ffffffff84007d72 <handleRecv+0x70>
ffffffff84007d2a:	03b7d713          	srli	a4,a5,0x3b
ffffffff84007d2e:	4691                	li	a3,4
ffffffff84007d30:	06d70363          	beq	a4,a3,ffffffff84007d96 <handleRecv+0x94>
ffffffff84007d34:	4699                	li	a3,6
ffffffff84007d36:	12d70563          	beq	a4,a3,ffffffff84007e60 <handleRecv+0x15e>
ffffffff84007d3a:	00005717          	auipc	a4,0x5
ffffffff84007d3e:	2c670713          	addi	a4,a4,710 # ffffffff8400d000 <riscvKSASIDTable>
ffffffff84007d42:	4785                	li	a5,1
ffffffff84007d44:	40f73023          	sd	a5,1024(a4)
ffffffff84007d48:	40073423          	sd	zero,1032(a4)
ffffffff84007d4c:	57fd                	li	a5,-1
ffffffff84007d4e:	17fe                	slli	a5,a5,0x3f
ffffffff84007d50:	0785                	addi	a5,a5,1
ffffffff84007d52:	44f73423          	sd	a5,1096(a4)
ffffffff84007d56:	45273823          	sd	s2,1104(a4)
ffffffff84007d5a:	00018517          	auipc	a0,0x18
ffffffff84007d5e:	afe53503          	ld	a0,-1282(a0) # ffffffff8401f858 <ksCurThread>
ffffffff84007d62:	998ff0ef          	jal	ra,ffffffff84006efa <handleFault>
ffffffff84007d66:	70a6                	ld	ra,104(sp)
ffffffff84007d68:	7406                	ld	s0,96(sp)
ffffffff84007d6a:	64e6                	ld	s1,88(sp)
ffffffff84007d6c:	6946                	ld	s2,80(sp)
ffffffff84007d6e:	6165                	addi	sp,sp,112
ffffffff84007d70:	8082                	ret
ffffffff84007d72:	00005717          	auipc	a4,0x5
ffffffff84007d76:	28e70713          	addi	a4,a4,654 # ffffffff8400d000 <riscvKSASIDTable>
ffffffff84007d7a:	57fd                	li	a5,-1
ffffffff84007d7c:	17fe                	slli	a5,a5,0x3f
ffffffff84007d7e:	0785                	addi	a5,a5,1
ffffffff84007d80:	44f73423          	sd	a5,1096(a4)
ffffffff84007d84:	45273823          	sd	s2,1104(a4)
ffffffff84007d88:	00018517          	auipc	a0,0x18
ffffffff84007d8c:	ad053503          	ld	a0,-1328(a0) # ffffffff8401f858 <ksCurThread>
ffffffff84007d90:	96aff0ef          	jal	ra,ffffffff84006efa <handleFault>
ffffffff84007d94:	bfc9                	j	ffffffff84007d66 <handleRecv+0x64>
ffffffff84007d96:	0387d713          	srli	a4,a5,0x38
ffffffff84007d9a:	8b05                	andi	a4,a4,1
ffffffff84007d9c:	c739                	beqz	a4,ffffffff84007dea <handleRecv+0xe8>
ffffffff84007d9e:	e03e                	sd	a5,0(sp)
ffffffff84007da0:	67a6                	ld	a5,72(sp)
ffffffff84007da2:	e43e                	sd	a5,8(sp)
ffffffff84007da4:	e802                	sd	zero,16(sp)
ffffffff84007da6:	ec02                	sd	zero,24(sp)
ffffffff84007da8:	c48d                	beqz	s1,ffffffff84007dd2 <handleRecv+0xd0>
ffffffff84007daa:	00018597          	auipc	a1,0x18
ffffffff84007dae:	aae5b583          	ld	a1,-1362(a1) # ffffffff8401f858 <ksCurThread>
ffffffff84007db2:	7da4                	ld	s1,120(a1)
ffffffff84007db4:	8626                	mv	a2,s1
ffffffff84007db6:	1008                	addi	a0,sp,32
ffffffff84007db8:	cdefb0ef          	jal	ra,ffffffff84003296 <lookupCap>
ffffffff84007dbc:	7782                	ld	a5,32(sp)
ffffffff84007dbe:	efa9                	bnez	a5,ffffffff84007e18 <handleRecv+0x116>
ffffffff84007dc0:	77a2                	ld	a5,40(sp)
ffffffff84007dc2:	03b7d693          	srli	a3,a5,0x3b
ffffffff84007dc6:	4721                	li	a4,8
ffffffff84007dc8:	06e69a63          	bne	a3,a4,ffffffff84007e3c <handleRecv+0x13a>
ffffffff84007dcc:	e83e                	sd	a5,16(sp)
ffffffff84007dce:	77c2                	ld	a5,48(sp)
ffffffff84007dd0:	ec3e                	sd	a5,24(sp)
ffffffff84007dd2:	6742                	ld	a4,16(sp)
ffffffff84007dd4:	67e2                	ld	a5,24(sp)
ffffffff84007dd6:	86a2                	mv	a3,s0
ffffffff84007dd8:	6582                	ld	a1,0(sp)
ffffffff84007dda:	6622                	ld	a2,8(sp)
ffffffff84007ddc:	00018517          	auipc	a0,0x18
ffffffff84007de0:	a7c53503          	ld	a0,-1412(a0) # ffffffff8401f858 <ksCurThread>
ffffffff84007de4:	ca1ff0ef          	jal	ra,ffffffff84007a84 <receiveIPC>
ffffffff84007de8:	bfbd                	j	ffffffff84007d66 <handleRecv+0x64>
ffffffff84007dea:	00005717          	auipc	a4,0x5
ffffffff84007dee:	21670713          	addi	a4,a4,534 # ffffffff8400d000 <riscvKSASIDTable>
ffffffff84007df2:	4785                	li	a5,1
ffffffff84007df4:	40f73023          	sd	a5,1024(a4)
ffffffff84007df8:	40073423          	sd	zero,1032(a4)
ffffffff84007dfc:	57fd                	li	a5,-1
ffffffff84007dfe:	17fe                	slli	a5,a5,0x3f
ffffffff84007e00:	0785                	addi	a5,a5,1
ffffffff84007e02:	44f73423          	sd	a5,1096(a4)
ffffffff84007e06:	45273823          	sd	s2,1104(a4)
ffffffff84007e0a:	00018517          	auipc	a0,0x18
ffffffff84007e0e:	a4e53503          	ld	a0,-1458(a0) # ffffffff8401f858 <ksCurThread>
ffffffff84007e12:	8e8ff0ef          	jal	ra,ffffffff84006efa <handleFault>
ffffffff84007e16:	bf81                	j	ffffffff84007d66 <handleRecv+0x64>
ffffffff84007e18:	00005717          	auipc	a4,0x5
ffffffff84007e1c:	1e870713          	addi	a4,a4,488 # ffffffff8400d000 <riscvKSASIDTable>
ffffffff84007e20:	57fd                	li	a5,-1
ffffffff84007e22:	17fe                	slli	a5,a5,0x3f
ffffffff84007e24:	0785                	addi	a5,a5,1
ffffffff84007e26:	44f73423          	sd	a5,1096(a4)
ffffffff84007e2a:	44973823          	sd	s1,1104(a4)
ffffffff84007e2e:	00018517          	auipc	a0,0x18
ffffffff84007e32:	a2a53503          	ld	a0,-1494(a0) # ffffffff8401f858 <ksCurThread>
ffffffff84007e36:	8c4ff0ef          	jal	ra,ffffffff84006efa <handleFault>
ffffffff84007e3a:	b735                	j	ffffffff84007d66 <handleRecv+0x64>
ffffffff84007e3c:	00005717          	auipc	a4,0x5
ffffffff84007e40:	1c470713          	addi	a4,a4,452 # ffffffff8400d000 <riscvKSASIDTable>
ffffffff84007e44:	57fd                	li	a5,-1
ffffffff84007e46:	17fe                	slli	a5,a5,0x3f
ffffffff84007e48:	0785                	addi	a5,a5,1
ffffffff84007e4a:	44f73423          	sd	a5,1096(a4)
ffffffff84007e4e:	44973823          	sd	s1,1104(a4)
ffffffff84007e52:	00018517          	auipc	a0,0x18
ffffffff84007e56:	a0653503          	ld	a0,-1530(a0) # ffffffff8401f858 <ksCurThread>
ffffffff84007e5a:	8a0ff0ef          	jal	ra,ffffffff84006efa <handleFault>
ffffffff84007e5e:	b721                	j	ffffffff84007d66 <handleRecv+0x64>
ffffffff84007e60:	01979713          	slli	a4,a5,0x19
ffffffff84007e64:	8365                	srli	a4,a4,0x19
ffffffff84007e66:	0267d693          	srli	a3,a5,0x26
ffffffff84007e6a:	8a85                	andi	a3,a3,1
ffffffff84007e6c:	c681                	beqz	a3,ffffffff84007e74 <handleRecv+0x172>
ffffffff84007e6e:	56fd                	li	a3,-1
ffffffff84007e70:	169e                	slli	a3,a3,0x27
ffffffff84007e72:	8f55                	or	a4,a4,a3
ffffffff84007e74:	6f18                	ld	a4,24(a4)
ffffffff84007e76:	01971693          	slli	a3,a4,0x19
ffffffff84007e7a:	82e5                	srli	a3,a3,0x19
ffffffff84007e7c:	9319                	srli	a4,a4,0x26
ffffffff84007e7e:	8b05                	andi	a4,a4,1
ffffffff84007e80:	c729                	beqz	a4,ffffffff84007eca <handleRecv+0x1c8>
ffffffff84007e82:	93e9                	srli	a5,a5,0x3a
ffffffff84007e84:	8b85                	andi	a5,a5,1
ffffffff84007e86:	eb85                	bnez	a5,ffffffff84007eb6 <handleRecv+0x1b4>
ffffffff84007e88:	00005717          	auipc	a4,0x5
ffffffff84007e8c:	17870713          	addi	a4,a4,376 # ffffffff8400d000 <riscvKSASIDTable>
ffffffff84007e90:	4785                	li	a5,1
ffffffff84007e92:	40f73023          	sd	a5,1024(a4)
ffffffff84007e96:	40073423          	sd	zero,1032(a4)
ffffffff84007e9a:	57fd                	li	a5,-1
ffffffff84007e9c:	17fe                	slli	a5,a5,0x3f
ffffffff84007e9e:	0785                	addi	a5,a5,1
ffffffff84007ea0:	44f73423          	sd	a5,1096(a4)
ffffffff84007ea4:	45273823          	sd	s2,1104(a4)
ffffffff84007ea8:	00018517          	auipc	a0,0x18
ffffffff84007eac:	9b053503          	ld	a0,-1616(a0) # ffffffff8401f858 <ksCurThread>
ffffffff84007eb0:	84aff0ef          	jal	ra,ffffffff84006efa <handleFault>
ffffffff84007eb4:	bd4d                	j	ffffffff84007d66 <handleRecv+0x64>
ffffffff84007eb6:	57fd                	li	a5,-1
ffffffff84007eb8:	179e                	slli	a5,a5,0x27
ffffffff84007eba:	8edd                	or	a3,a3,a5
ffffffff84007ebc:	00018797          	auipc	a5,0x18
ffffffff84007ec0:	99c7b783          	ld	a5,-1636(a5) # ffffffff8401f858 <ksCurThread>
ffffffff84007ec4:	00d78763          	beq	a5,a3,ffffffff84007ed2 <handleRecv+0x1d0>
ffffffff84007ec8:	b7c1                	j	ffffffff84007e88 <handleRecv+0x186>
ffffffff84007eca:	93e9                	srli	a5,a5,0x3a
ffffffff84007ecc:	8b85                	andi	a5,a5,1
ffffffff84007ece:	dfcd                	beqz	a5,ffffffff84007e88 <handleRecv+0x186>
ffffffff84007ed0:	f6f5                	bnez	a3,ffffffff84007ebc <handleRecv+0x1ba>
ffffffff84007ed2:	86a2                	mv	a3,s0
ffffffff84007ed4:	6586                	ld	a1,64(sp)
ffffffff84007ed6:	6626                	ld	a2,72(sp)
ffffffff84007ed8:	00018517          	auipc	a0,0x18
ffffffff84007edc:	98053503          	ld	a0,-1664(a0) # ffffffff8401f858 <ksCurThread>
ffffffff84007ee0:	d86fe0ef          	jal	ra,ffffffff84006466 <receiveSignal>
ffffffff84007ee4:	b549                	j	ffffffff84007d66 <handleRecv+0x64>

ffffffff84007ee6 <decodeDomainInvocation>:
ffffffff84007ee6:	47f5                	li	a5,29
ffffffff84007ee8:	04f51f63          	bne	a0,a5,ffffffff84007f46 <decodeDomainInvocation+0x60>
ffffffff84007eec:	c5a5                	beqz	a1,ffffffff84007f54 <decodeDomainInvocation+0x6e>
ffffffff84007eee:	1101                	addi	sp,sp,-32
ffffffff84007ef0:	ec06                	sd	ra,24(sp)
ffffffff84007ef2:	e822                	sd	s0,16(sp)
ffffffff84007ef4:	e426                	sd	s1,8(sp)
ffffffff84007ef6:	00018517          	auipc	a0,0x18
ffffffff84007efa:	96253503          	ld	a0,-1694(a0) # ffffffff8401f858 <ksCurThread>
ffffffff84007efe:	6d24                	ld	s1,88(a0)
ffffffff84007f00:	47bd                	li	a5,15
ffffffff84007f02:	0697e063          	bltu	a5,s1,ffffffff84007f62 <decodeDomainInvocation+0x7c>
ffffffff84007f06:	00006797          	auipc	a5,0x6
ffffffff84007f0a:	98a7b783          	ld	a5,-1654(a5) # ffffffff8400d890 <current_extra_caps>
ffffffff84007f0e:	c7ad                	beqz	a5,ffffffff84007f78 <decodeDomainInvocation+0x92>
ffffffff84007f10:	6380                	ld	s0,0(a5)
ffffffff84007f12:	03b45713          	srli	a4,s0,0x3b
ffffffff84007f16:	47b1                	li	a5,12
ffffffff84007f18:	06f71763          	bne	a4,a5,ffffffff84007f86 <decodeDomainInvocation+0xa0>
ffffffff84007f1c:	4589                	li	a1,2
ffffffff84007f1e:	b81fc0ef          	jal	ra,ffffffff84004a9e <setThreadState>
ffffffff84007f22:	01941513          	slli	a0,s0,0x19
ffffffff84007f26:	8165                	srli	a0,a0,0x19
ffffffff84007f28:	9019                	srli	s0,s0,0x26
ffffffff84007f2a:	8805                	andi	s0,s0,1
ffffffff84007f2c:	c401                	beqz	s0,ffffffff84007f34 <decodeDomainInvocation+0x4e>
ffffffff84007f2e:	57fd                	li	a5,-1
ffffffff84007f30:	179e                	slli	a5,a5,0x27
ffffffff84007f32:	8d5d                	or	a0,a0,a5
ffffffff84007f34:	85a6                	mv	a1,s1
ffffffff84007f36:	90afd0ef          	jal	ra,ffffffff84005040 <setDomain>
ffffffff84007f3a:	4501                	li	a0,0
ffffffff84007f3c:	60e2                	ld	ra,24(sp)
ffffffff84007f3e:	6442                	ld	s0,16(sp)
ffffffff84007f40:	64a2                	ld	s1,8(sp)
ffffffff84007f42:	6105                	addi	sp,sp,32
ffffffff84007f44:	8082                	ret
ffffffff84007f46:	478d                	li	a5,3
ffffffff84007f48:	00005717          	auipc	a4,0x5
ffffffff84007f4c:	4ef73c23          	sd	a5,1272(a4) # ffffffff8400d440 <current_syscall_error+0x30>
ffffffff84007f50:	450d                	li	a0,3
ffffffff84007f52:	8082                	ret
ffffffff84007f54:	479d                	li	a5,7
ffffffff84007f56:	00005717          	auipc	a4,0x5
ffffffff84007f5a:	4ef73523          	sd	a5,1258(a4) # ffffffff8400d440 <current_syscall_error+0x30>
ffffffff84007f5e:	450d                	li	a0,3
ffffffff84007f60:	8082                	ret
ffffffff84007f62:	00005797          	auipc	a5,0x5
ffffffff84007f66:	09e78793          	addi	a5,a5,158 # ffffffff8400d000 <riscvKSASIDTable>
ffffffff84007f6a:	4705                	li	a4,1
ffffffff84007f6c:	44e7b023          	sd	a4,1088(a5)
ffffffff84007f70:	4007b823          	sd	zero,1040(a5)
ffffffff84007f74:	450d                	li	a0,3
ffffffff84007f76:	b7d9                	j	ffffffff84007f3c <decodeDomainInvocation+0x56>
ffffffff84007f78:	479d                	li	a5,7
ffffffff84007f7a:	00005717          	auipc	a4,0x5
ffffffff84007f7e:	4cf73323          	sd	a5,1222(a4) # ffffffff8400d440 <current_syscall_error+0x30>
ffffffff84007f82:	450d                	li	a0,3
ffffffff84007f84:	bf65                	j	ffffffff84007f3c <decodeDomainInvocation+0x56>
ffffffff84007f86:	00005797          	auipc	a5,0x5
ffffffff84007f8a:	07a78793          	addi	a5,a5,122 # ffffffff8400d000 <riscvKSASIDTable>
ffffffff84007f8e:	4705                	li	a4,1
ffffffff84007f90:	44e7b023          	sd	a4,1088(a5)
ffffffff84007f94:	40e7b823          	sd	a4,1040(a5)
ffffffff84007f98:	450d                	li	a0,3
ffffffff84007f9a:	b74d                	j	ffffffff84007f3c <decodeDomainInvocation+0x56>

ffffffff84007f9c <invokeTCB_Suspend>:
ffffffff84007f9c:	1141                	addi	sp,sp,-16
ffffffff84007f9e:	e406                	sd	ra,8(sp)
ffffffff84007fa0:	815fd0ef          	jal	ra,ffffffff840057b4 <suspend>
ffffffff84007fa4:	4501                	li	a0,0
ffffffff84007fa6:	60a2                	ld	ra,8(sp)
ffffffff84007fa8:	0141                	addi	sp,sp,16
ffffffff84007faa:	8082                	ret

ffffffff84007fac <invokeTCB_Resume>:
ffffffff84007fac:	1141                	addi	sp,sp,-16
ffffffff84007fae:	e406                	sd	ra,8(sp)
ffffffff84007fb0:	d83fd0ef          	jal	ra,ffffffff84005d32 <restart>
ffffffff84007fb4:	4501                	li	a0,0
ffffffff84007fb6:	60a2                	ld	ra,8(sp)
ffffffff84007fb8:	0141                	addi	sp,sp,16
ffffffff84007fba:	8082                	ret

ffffffff84007fbc <invokeTCB_ThreadControlCaps>:
ffffffff84007fbc:	711d                	addi	sp,sp,-96
ffffffff84007fbe:	ec86                	sd	ra,88(sp)
ffffffff84007fc0:	e8a2                	sd	s0,80(sp)
ffffffff84007fc2:	e4a6                	sd	s1,72(sp)
ffffffff84007fc4:	e0ca                	sd	s2,64(sp)
ffffffff84007fc6:	fc4e                	sd	s3,56(sp)
ffffffff84007fc8:	f852                	sd	s4,48(sp)
ffffffff84007fca:	84aa                	mv	s1,a0
ffffffff84007fcc:	89ae                	mv	s3,a1
ffffffff84007fce:	e832                	sd	a2,16(sp)
ffffffff84007fd0:	ec36                	sd	a3,24(sp)
ffffffff84007fd2:	e03e                	sd	a5,0(sp)
ffffffff84007fd4:	e442                	sd	a6,8(sp)
ffffffff84007fd6:	8a46                	mv	s4,a7
ffffffff84007fd8:	794a                	ld	s2,176(sp)
ffffffff84007fda:	01951793          	slli	a5,a0,0x19
ffffffff84007fde:	83e5                	srli	a5,a5,0x19
ffffffff84007fe0:	468d                	li	a3,3
ffffffff84007fe2:	16f6                	slli	a3,a3,0x3d
ffffffff84007fe4:	8fd5                	or	a5,a5,a3
ffffffff84007fe6:	f03e                	sd	a5,32(sp)
ffffffff84007fe8:	f402                	sd	zero,40(sp)
ffffffff84007fea:	00497793          	andi	a5,s2,4
ffffffff84007fee:	e39d                	bnez	a5,ffffffff84008014 <invokeTCB_ThreadControlCaps+0x58>
ffffffff84007ff0:	00897793          	andi	a5,s2,8
ffffffff84007ff4:	ef85                	bnez	a5,ffffffff8400802c <invokeTCB_ThreadControlCaps+0x70>
ffffffff84007ff6:	00297793          	andi	a5,s2,2
ffffffff84007ffa:	e7b1                	bnez	a5,ffffffff84008046 <invokeTCB_ThreadControlCaps+0x8a>
ffffffff84007ffc:	00197413          	andi	s0,s2,1
ffffffff84008000:	ec25                	bnez	s0,ffffffff84008078 <invokeTCB_ThreadControlCaps+0xbc>
ffffffff84008002:	8522                	mv	a0,s0
ffffffff84008004:	60e6                	ld	ra,88(sp)
ffffffff84008006:	6446                	ld	s0,80(sp)
ffffffff84008008:	64a6                	ld	s1,72(sp)
ffffffff8400800a:	6906                	ld	s2,64(sp)
ffffffff8400800c:	79e2                	ld	s3,56(sp)
ffffffff8400800e:	7a42                	ld	s4,48(sp)
ffffffff84008010:	6125                	addi	sp,sp,96
ffffffff84008012:	8082                	ret
ffffffff84008014:	88ba                	mv	a7,a4
ffffffff84008016:	87b2                	mv	a5,a2
ffffffff84008018:	6862                	ld	a6,24(sp)
ffffffff8400801a:	470d                	li	a4,3
ffffffff8400801c:	86ae                	mv	a3,a1
ffffffff8400801e:	7582                	ld	a1,32(sp)
ffffffff84008020:	4601                	li	a2,0
ffffffff84008022:	bd0ff0ef          	jal	ra,ffffffff840073f2 <installTCBCap>
ffffffff84008026:	842a                	mv	s0,a0
ffffffff84008028:	d561                	beqz	a0,ffffffff84007ff0 <invokeTCB_ThreadControlCaps+0x34>
ffffffff8400802a:	bfe1                	j	ffffffff84008002 <invokeTCB_ThreadControlCaps+0x46>
ffffffff8400802c:	88d2                	mv	a7,s4
ffffffff8400802e:	6782                	ld	a5,0(sp)
ffffffff84008030:	6822                	ld	a6,8(sp)
ffffffff84008032:	4711                	li	a4,4
ffffffff84008034:	86ce                	mv	a3,s3
ffffffff84008036:	7582                	ld	a1,32(sp)
ffffffff84008038:	7622                	ld	a2,40(sp)
ffffffff8400803a:	8526                	mv	a0,s1
ffffffff8400803c:	bb6ff0ef          	jal	ra,ffffffff840073f2 <installTCBCap>
ffffffff84008040:	842a                	mv	s0,a0
ffffffff84008042:	d955                	beqz	a0,ffffffff84007ff6 <invokeTCB_ThreadControlCaps+0x3a>
ffffffff84008044:	bf7d                	j	ffffffff84008002 <invokeTCB_ThreadControlCaps+0x46>
ffffffff84008046:	78c6                	ld	a7,112(sp)
ffffffff84008048:	7786                	ld	a5,96(sp)
ffffffff8400804a:	7826                	ld	a6,104(sp)
ffffffff8400804c:	4701                	li	a4,0
ffffffff8400804e:	86ce                	mv	a3,s3
ffffffff84008050:	7582                	ld	a1,32(sp)
ffffffff84008052:	7622                	ld	a2,40(sp)
ffffffff84008054:	8526                	mv	a0,s1
ffffffff84008056:	b9cff0ef          	jal	ra,ffffffff840073f2 <installTCBCap>
ffffffff8400805a:	842a                	mv	s0,a0
ffffffff8400805c:	f15d                	bnez	a0,ffffffff84008002 <invokeTCB_ThreadControlCaps+0x46>
ffffffff8400805e:	68aa                	ld	a7,136(sp)
ffffffff84008060:	77e6                	ld	a5,120(sp)
ffffffff84008062:	680a                	ld	a6,128(sp)
ffffffff84008064:	4705                	li	a4,1
ffffffff84008066:	86ce                	mv	a3,s3
ffffffff84008068:	7582                	ld	a1,32(sp)
ffffffff8400806a:	7622                	ld	a2,40(sp)
ffffffff8400806c:	8526                	mv	a0,s1
ffffffff8400806e:	b84ff0ef          	jal	ra,ffffffff840073f2 <installTCBCap>
ffffffff84008072:	842a                	mv	s0,a0
ffffffff84008074:	d541                	beqz	a0,ffffffff84007ffc <invokeTCB_ThreadControlCaps+0x40>
ffffffff84008076:	b771                	j	ffffffff84008002 <invokeTCB_ThreadControlCaps+0x46>
ffffffff84008078:	c004f913          	andi	s2,s1,-1024
ffffffff8400807c:	04090913          	addi	s2,s2,64
ffffffff84008080:	4585                	li	a1,1
ffffffff84008082:	854a                	mv	a0,s2
ffffffff84008084:	99eff0ef          	jal	ra,ffffffff84007222 <cteDelete>
ffffffff84008088:	842a                	mv	s0,a0
ffffffff8400808a:	fd25                	bnez	a0,ffffffff84008002 <invokeTCB_ThreadControlCaps+0x46>
ffffffff8400808c:	67ca                	ld	a5,144(sp)
ffffffff8400808e:	18f4b023          	sd	a5,384(s1)
ffffffff84008092:	77aa                	ld	a5,168(sp)
ffffffff84008094:	c38d                	beqz	a5,ffffffff840080b6 <invokeTCB_ThreadControlCaps+0xfa>
ffffffff84008096:	6390                	ld	a2,0(a5)
ffffffff84008098:	6794                	ld	a3,8(a5)
ffffffff8400809a:	656a                	ld	a0,152(sp)
ffffffff8400809c:	758a                	ld	a1,160(sp)
ffffffff8400809e:	ca4fc0ef          	jal	ra,ffffffff84004542 <sameObjectAs>
ffffffff840080a2:	c911                	beqz	a0,ffffffff840080b6 <invokeTCB_ThreadControlCaps+0xfa>
ffffffff840080a4:	0009b603          	ld	a2,0(s3)
ffffffff840080a8:	0089b683          	ld	a3,8(s3)
ffffffff840080ac:	7502                	ld	a0,32(sp)
ffffffff840080ae:	75a2                	ld	a1,40(sp)
ffffffff840080b0:	c92fc0ef          	jal	ra,ffffffff84004542 <sameObjectAs>
ffffffff840080b4:	e911                	bnez	a0,ffffffff840080c8 <invokeTCB_ThreadControlCaps+0x10c>
ffffffff840080b6:	00017797          	auipc	a5,0x17
ffffffff840080ba:	7a27b783          	ld	a5,1954(a5) # ffffffff8401f858 <ksCurThread>
ffffffff840080be:	f49792e3          	bne	a5,s1,ffffffff84008002 <invokeTCB_ThreadControlCaps+0x46>
ffffffff840080c2:	943fc0ef          	jal	ra,ffffffff84004a04 <rescheduleRequired>
ffffffff840080c6:	bf35                	j	ffffffff84008002 <invokeTCB_ThreadControlCaps+0x46>
ffffffff840080c8:	86ca                	mv	a3,s2
ffffffff840080ca:	762a                	ld	a2,168(sp)
ffffffff840080cc:	656a                	ld	a0,152(sp)
ffffffff840080ce:	758a                	ld	a1,160(sp)
ffffffff840080d0:	db4fc0ef          	jal	ra,ffffffff84004684 <cteInsert>
ffffffff840080d4:	b7cd                	j	ffffffff840080b6 <invokeTCB_ThreadControlCaps+0xfa>

ffffffff840080d6 <decodeTCBConfigure>:
ffffffff840080d6:	7169                	addi	sp,sp,-304
ffffffff840080d8:	f606                	sd	ra,296(sp)
ffffffff840080da:	f222                	sd	s0,288(sp)
ffffffff840080dc:	ee26                	sd	s1,280(sp)
ffffffff840080de:	ea4a                	sd	s2,272(sp)
ffffffff840080e0:	e64e                	sd	s3,264(sp)
ffffffff840080e2:	e252                	sd	s4,256(sp)
ffffffff840080e4:	fdd6                	sd	s5,248(sp)
ffffffff840080e6:	f9da                	sd	s6,240(sp)
ffffffff840080e8:	f5de                	sd	s7,232(sp)
ffffffff840080ea:	f1e2                	sd	s8,224(sp)
ffffffff840080ec:	ede6                	sd	s9,216(sp)
ffffffff840080ee:	e9ea                	sd	s10,208(sp)
ffffffff840080f0:	f0aa                	sd	a0,96(sp)
ffffffff840080f2:	f4ae                	sd	a1,104(sp)
ffffffff840080f4:	4789                	li	a5,2
ffffffff840080f6:	14c7f363          	bgeu	a5,a2,ffffffff8400823c <decodeTCBConfigure+0x166>
ffffffff840080fa:	8436                	mv	s0,a3
ffffffff840080fc:	00005497          	auipc	s1,0x5
ffffffff84008100:	7944b483          	ld	s1,1940(s1) # ffffffff8400d890 <current_extra_caps>
ffffffff84008104:	12048c63          	beqz	s1,ffffffff8400823c <decodeTCBConfigure+0x166>
ffffffff84008108:	00005997          	auipc	s3,0x5
ffffffff8400810c:	7909b983          	ld	s3,1936(s3) # ffffffff8400d898 <current_extra_caps+0x8>
ffffffff84008110:	12098663          	beqz	s3,ffffffff8400823c <decodeTCBConfigure+0x166>
ffffffff84008114:	00005917          	auipc	s2,0x5
ffffffff84008118:	78c93903          	ld	s2,1932(s2) # ffffffff8400d8a0 <current_extra_caps+0x10>
ffffffff8400811c:	12090063          	beqz	s2,ffffffff8400823c <decodeTCBConfigure+0x166>
ffffffff84008120:	00017797          	auipc	a5,0x17
ffffffff84008124:	7387b783          	ld	a5,1848(a5) # ffffffff8401f858 <ksCurThread>
ffffffff84008128:	0587bb83          	ld	s7,88(a5)
ffffffff8400812c:	0607bc03          	ld	s8,96(a5)
ffffffff84008130:	0687ba83          	ld	s5,104(a5)
ffffffff84008134:	0004ba03          	ld	s4,0(s1)
ffffffff84008138:	f152                	sd	s4,160(sp)
ffffffff8400813a:	649c                	ld	a5,8(s1)
ffffffff8400813c:	f53e                	sd	a5,168(sp)
ffffffff8400813e:	8b52                	mv	s6,s4
ffffffff84008140:	0009b783          	ld	a5,0(s3)
ffffffff84008144:	e93e                	sd	a5,144(sp)
ffffffff84008146:	0089b783          	ld	a5,8(s3)
ffffffff8400814a:	ed3e                	sd	a5,152(sp)
ffffffff8400814c:	00093783          	ld	a5,0(s2)
ffffffff84008150:	f93e                	sd	a5,176(sp)
ffffffff84008152:	00893783          	ld	a5,8(s2)
ffffffff84008156:	fd3e                	sd	a5,184(sp)
ffffffff84008158:	100a9663          	bnez	s5,ffffffff84008264 <decodeTCBConfigure+0x18e>
ffffffff8400815c:	4901                	li	s2,0
ffffffff8400815e:	7786                	ld	a5,96(sp)
ffffffff84008160:	01979c93          	slli	s9,a5,0x19
ffffffff84008164:	019cdc93          	srli	s9,s9,0x19
ffffffff84008168:	9399                	srli	a5,a5,0x26
ffffffff8400816a:	8b85                	andi	a5,a5,1
ffffffff8400816c:	c789                	beqz	a5,ffffffff84008176 <decodeTCBConfigure+0xa0>
ffffffff8400816e:	57fd                	li	a5,-1
ffffffff84008170:	179e                	slli	a5,a5,0x27
ffffffff84008172:	00fcecb3          	or	s9,s9,a5
ffffffff84008176:	c00cfd13          	andi	s10,s9,-1024
ffffffff8400817a:	856a                	mv	a0,s10
ffffffff8400817c:	c74fc0ef          	jal	ra,ffffffff840045f0 <slotCapLongRunningDelete>
ffffffff84008180:	10051463          	bnez	a0,ffffffff84008288 <decodeTCBConfigure+0x1b2>
ffffffff84008184:	020d0513          	addi	a0,s10,32 # 2020 <KERNEL_OFFSET-0xfffffffeffffdfe0>
ffffffff84008188:	c68fc0ef          	jal	ra,ffffffff840045f0 <slotCapLongRunningDelete>
ffffffff8400818c:	0e051e63          	bnez	a0,ffffffff84008288 <decodeTCBConfigure+0x1b2>
ffffffff84008190:	000b8a63          	beqz	s7,ffffffff840081a4 <decodeTCBConfigure+0xce>
ffffffff84008194:	8652                	mv	a2,s4
ffffffff84008196:	76aa                	ld	a3,168(sp)
ffffffff84008198:	85de                	mv	a1,s7
ffffffff8400819a:	4501                	li	a0,0
ffffffff8400819c:	c15fb0ef          	jal	ra,ffffffff84003db0 <updateCapData>
ffffffff840081a0:	f52e                	sd	a1,168(sp)
ffffffff840081a2:	8b2a                	mv	s6,a0
ffffffff840081a4:	865a                	mv	a2,s6
ffffffff840081a6:	76aa                	ld	a3,168(sp)
ffffffff840081a8:	85a6                	mv	a1,s1
ffffffff840081aa:	18a8                	addi	a0,sp,120
ffffffff840081ac:	b2afc0ef          	jal	ra,ffffffff840044d6 <deriveCap>
ffffffff840081b0:	7566                	ld	a0,120(sp)
ffffffff840081b2:	e959                	bnez	a0,ffffffff84008248 <decodeTCBConfigure+0x172>
ffffffff840081b4:	6a0a                	ld	s4,128(sp)
ffffffff840081b6:	67aa                	ld	a5,136(sp)
ffffffff840081b8:	f53e                	sd	a5,168(sp)
ffffffff840081ba:	03ba5713          	srli	a4,s4,0x3b
ffffffff840081be:	47a9                	li	a5,10
ffffffff840081c0:	0cf71b63          	bne	a4,a5,ffffffff84008296 <decodeTCBConfigure+0x1c0>
ffffffff840081c4:	000c0a63          	beqz	s8,ffffffff840081d8 <decodeTCBConfigure+0x102>
ffffffff840081c8:	664a                	ld	a2,144(sp)
ffffffff840081ca:	66ea                	ld	a3,152(sp)
ffffffff840081cc:	85e2                	mv	a1,s8
ffffffff840081ce:	4501                	li	a0,0
ffffffff840081d0:	be1fb0ef          	jal	ra,ffffffff84003db0 <updateCapData>
ffffffff840081d4:	e92a                	sd	a0,144(sp)
ffffffff840081d6:	ed2e                	sd	a1,152(sp)
ffffffff840081d8:	664a                	ld	a2,144(sp)
ffffffff840081da:	66ea                	ld	a3,152(sp)
ffffffff840081dc:	85ce                	mv	a1,s3
ffffffff840081de:	18a8                	addi	a0,sp,120
ffffffff840081e0:	af6fc0ef          	jal	ra,ffffffff840044d6 <deriveCap>
ffffffff840081e4:	7566                	ld	a0,120(sp)
ffffffff840081e6:	e12d                	bnez	a0,ffffffff84008248 <decodeTCBConfigure+0x172>
ffffffff840081e8:	650a                	ld	a0,128(sp)
ffffffff840081ea:	e92a                	sd	a0,144(sp)
ffffffff840081ec:	65aa                	ld	a1,136(sp)
ffffffff840081ee:	ed2e                	sd	a1,152(sp)
ffffffff840081f0:	95dfa0ef          	jal	ra,ffffffff84002b4c <isValidVTableRoot>
ffffffff840081f4:	c945                	beqz	a0,ffffffff840082a4 <decodeTCBConfigure+0x1ce>
ffffffff840081f6:	4589                	li	a1,2
ffffffff840081f8:	00017517          	auipc	a0,0x17
ffffffff840081fc:	66053503          	ld	a0,1632(a0) # ffffffff8401f858 <ksCurThread>
ffffffff84008200:	89ffc0ef          	jal	ra,ffffffff84004a9e <setThreadState>
ffffffff84008204:	478d                	li	a5,3
ffffffff84008206:	e8be                	sd	a5,80(sp)
ffffffff84008208:	e4ca                	sd	s2,72(sp)
ffffffff8400820a:	77ca                	ld	a5,176(sp)
ffffffff8400820c:	fc3e                	sd	a5,56(sp)
ffffffff8400820e:	77ea                	ld	a5,184(sp)
ffffffff84008210:	e0be                	sd	a5,64(sp)
ffffffff84008212:	f856                	sd	s5,48(sp)
ffffffff84008214:	f44e                	sd	s3,40(sp)
ffffffff84008216:	67ca                	ld	a5,144(sp)
ffffffff84008218:	ec3e                	sd	a5,24(sp)
ffffffff8400821a:	67ea                	ld	a5,152(sp)
ffffffff8400821c:	f03e                	sd	a5,32(sp)
ffffffff8400821e:	e826                	sd	s1,16(sp)
ffffffff84008220:	e052                	sd	s4,0(sp)
ffffffff84008222:	77aa                	ld	a5,168(sp)
ffffffff84008224:	e43e                	sd	a5,8(sp)
ffffffff84008226:	4881                	li	a7,0
ffffffff84008228:	4781                	li	a5,0
ffffffff8400822a:	4801                	li	a6,0
ffffffff8400822c:	4701                	li	a4,0
ffffffff8400822e:	4601                	li	a2,0
ffffffff84008230:	4681                	li	a3,0
ffffffff84008232:	85a2                	mv	a1,s0
ffffffff84008234:	8566                	mv	a0,s9
ffffffff84008236:	d87ff0ef          	jal	ra,ffffffff84007fbc <invokeTCB_ThreadControlCaps>
ffffffff8400823a:	a039                	j	ffffffff84008248 <decodeTCBConfigure+0x172>
ffffffff8400823c:	479d                	li	a5,7
ffffffff8400823e:	00005717          	auipc	a4,0x5
ffffffff84008242:	20f73123          	sd	a5,514(a4) # ffffffff8400d440 <current_syscall_error+0x30>
ffffffff84008246:	450d                	li	a0,3
ffffffff84008248:	70b2                	ld	ra,296(sp)
ffffffff8400824a:	7412                	ld	s0,288(sp)
ffffffff8400824c:	64f2                	ld	s1,280(sp)
ffffffff8400824e:	6952                	ld	s2,272(sp)
ffffffff84008250:	69b2                	ld	s3,264(sp)
ffffffff84008252:	6a12                	ld	s4,256(sp)
ffffffff84008254:	7aee                	ld	s5,248(sp)
ffffffff84008256:	7b4e                	ld	s6,240(sp)
ffffffff84008258:	7bae                	ld	s7,232(sp)
ffffffff8400825a:	7c0e                	ld	s8,224(sp)
ffffffff8400825c:	6cee                	ld	s9,216(sp)
ffffffff8400825e:	6d4e                	ld	s10,208(sp)
ffffffff84008260:	6155                	addi	sp,sp,304
ffffffff84008262:	8082                	ret
ffffffff84008264:	764a                	ld	a2,176(sp)
ffffffff84008266:	86be                	mv	a3,a5
ffffffff84008268:	85ca                	mv	a1,s2
ffffffff8400826a:	18a8                	addi	a0,sp,120
ffffffff8400826c:	a6afc0ef          	jal	ra,ffffffff840044d6 <deriveCap>
ffffffff84008270:	7566                	ld	a0,120(sp)
ffffffff84008272:	f979                	bnez	a0,ffffffff84008248 <decodeTCBConfigure+0x172>
ffffffff84008274:	658a                	ld	a1,128(sp)
ffffffff84008276:	f92e                	sd	a1,176(sp)
ffffffff84008278:	662a                	ld	a2,136(sp)
ffffffff8400827a:	fd32                	sd	a2,184(sp)
ffffffff8400827c:	8556                	mv	a0,s5
ffffffff8400827e:	8e5fa0ef          	jal	ra,ffffffff84002b62 <checkValidIPCBuffer>
ffffffff84008282:	ec050ee3          	beqz	a0,ffffffff8400815e <decodeTCBConfigure+0x88>
ffffffff84008286:	b7c9                	j	ffffffff84008248 <decodeTCBConfigure+0x172>
ffffffff84008288:	478d                	li	a5,3
ffffffff8400828a:	00005717          	auipc	a4,0x5
ffffffff8400828e:	1af73b23          	sd	a5,438(a4) # ffffffff8400d440 <current_syscall_error+0x30>
ffffffff84008292:	450d                	li	a0,3
ffffffff84008294:	bf55                	j	ffffffff84008248 <decodeTCBConfigure+0x172>
ffffffff84008296:	478d                	li	a5,3
ffffffff84008298:	00005717          	auipc	a4,0x5
ffffffff8400829c:	1af73423          	sd	a5,424(a4) # ffffffff8400d440 <current_syscall_error+0x30>
ffffffff840082a0:	450d                	li	a0,3
ffffffff840082a2:	b75d                	j	ffffffff84008248 <decodeTCBConfigure+0x172>
ffffffff840082a4:	478d                	li	a5,3
ffffffff840082a6:	00005717          	auipc	a4,0x5
ffffffff840082aa:	18f73d23          	sd	a5,410(a4) # ffffffff8400d440 <current_syscall_error+0x30>
ffffffff840082ae:	450d                	li	a0,3
ffffffff840082b0:	bf61                	j	ffffffff84008248 <decodeTCBConfigure+0x172>

ffffffff840082b2 <decodeSetTimeoutEndpoint>:
ffffffff840082b2:	7171                	addi	sp,sp,-176
ffffffff840082b4:	f506                	sd	ra,168(sp)
ffffffff840082b6:	f122                	sd	s0,160(sp)
ffffffff840082b8:	ed26                	sd	s1,152(sp)
ffffffff840082ba:	f0aa                	sd	a0,96(sp)
ffffffff840082bc:	f4ae                	sd	a1,104(sp)
ffffffff840082be:	00005417          	auipc	s0,0x5
ffffffff840082c2:	5d243403          	ld	s0,1490(s0) # ffffffff8400d890 <current_extra_caps>
ffffffff840082c6:	c83d                	beqz	s0,ffffffff8400833c <decodeSetTimeoutEndpoint+0x8a>
ffffffff840082c8:	84b2                	mv	s1,a2
ffffffff840082ca:	6008                	ld	a0,0(s0)
ffffffff840082cc:	f8aa                	sd	a0,112(sp)
ffffffff840082ce:	640c                	ld	a1,8(s0)
ffffffff840082d0:	fcae                	sd	a1,120(sp)
ffffffff840082d2:	ea9f90ef          	jal	ra,ffffffff8400217a <validFaultHandler>
ffffffff840082d6:	cd21                	beqz	a0,ffffffff8400832e <decodeSetTimeoutEndpoint+0x7c>
ffffffff840082d8:	4589                	li	a1,2
ffffffff840082da:	00017517          	auipc	a0,0x17
ffffffff840082de:	57e53503          	ld	a0,1406(a0) # ffffffff8401f858 <ksCurThread>
ffffffff840082e2:	fbcfc0ef          	jal	ra,ffffffff84004a9e <setThreadState>
ffffffff840082e6:	7786                	ld	a5,96(sp)
ffffffff840082e8:	01979513          	slli	a0,a5,0x19
ffffffff840082ec:	8165                	srli	a0,a0,0x19
ffffffff840082ee:	9399                	srli	a5,a5,0x26
ffffffff840082f0:	8b85                	andi	a5,a5,1
ffffffff840082f2:	c781                	beqz	a5,ffffffff840082fa <decodeSetTimeoutEndpoint+0x48>
ffffffff840082f4:	57fd                	li	a5,-1
ffffffff840082f6:	179e                	slli	a5,a5,0x27
ffffffff840082f8:	8d5d                	or	a0,a0,a5
ffffffff840082fa:	47a1                	li	a5,8
ffffffff840082fc:	e8be                	sd	a5,80(sp)
ffffffff840082fe:	e482                	sd	zero,72(sp)
ffffffff84008300:	fc02                	sd	zero,56(sp)
ffffffff84008302:	e082                	sd	zero,64(sp)
ffffffff84008304:	f802                	sd	zero,48(sp)
ffffffff84008306:	f402                	sd	zero,40(sp)
ffffffff84008308:	ec02                	sd	zero,24(sp)
ffffffff8400830a:	f002                	sd	zero,32(sp)
ffffffff8400830c:	e802                	sd	zero,16(sp)
ffffffff8400830e:	e002                	sd	zero,0(sp)
ffffffff84008310:	e402                	sd	zero,8(sp)
ffffffff84008312:	88a2                	mv	a7,s0
ffffffff84008314:	77c6                	ld	a5,112(sp)
ffffffff84008316:	7866                	ld	a6,120(sp)
ffffffff84008318:	4701                	li	a4,0
ffffffff8400831a:	4601                	li	a2,0
ffffffff8400831c:	4681                	li	a3,0
ffffffff8400831e:	85a6                	mv	a1,s1
ffffffff84008320:	c9dff0ef          	jal	ra,ffffffff84007fbc <invokeTCB_ThreadControlCaps>
ffffffff84008324:	70aa                	ld	ra,168(sp)
ffffffff84008326:	740a                	ld	s0,160(sp)
ffffffff84008328:	64ea                	ld	s1,152(sp)
ffffffff8400832a:	614d                	addi	sp,sp,176
ffffffff8400832c:	8082                	ret
ffffffff8400832e:	4785                	li	a5,1
ffffffff84008330:	00005717          	auipc	a4,0x5
ffffffff84008334:	0ef73423          	sd	a5,232(a4) # ffffffff8400d418 <current_syscall_error+0x8>
ffffffff84008338:	450d                	li	a0,3
ffffffff8400833a:	b7ed                	j	ffffffff84008324 <decodeSetTimeoutEndpoint+0x72>
ffffffff8400833c:	450d                	li	a0,3
ffffffff8400833e:	b7dd                	j	ffffffff84008324 <decodeSetTimeoutEndpoint+0x72>

ffffffff84008340 <decodeSetIPCBuffer>:
ffffffff84008340:	7155                	addi	sp,sp,-208
ffffffff84008342:	e586                	sd	ra,200(sp)
ffffffff84008344:	e1a2                	sd	s0,192(sp)
ffffffff84008346:	fd26                	sd	s1,184(sp)
ffffffff84008348:	f94a                	sd	s2,176(sp)
ffffffff8400834a:	f0aa                	sd	a0,96(sp)
ffffffff8400834c:	f4ae                	sd	a1,104(sp)
ffffffff8400834e:	c231                	beqz	a2,ffffffff84008392 <decodeSetIPCBuffer+0x52>
ffffffff84008350:	8936                	mv	s2,a3
ffffffff84008352:	00005417          	auipc	s0,0x5
ffffffff84008356:	53e43403          	ld	s0,1342(s0) # ffffffff8400d890 <current_extra_caps>
ffffffff8400835a:	cc05                	beqz	s0,ffffffff84008392 <decodeSetIPCBuffer+0x52>
ffffffff8400835c:	00017797          	auipc	a5,0x17
ffffffff84008360:	4fc7b783          	ld	a5,1276(a5) # ffffffff8401f858 <ksCurThread>
ffffffff84008364:	6fa4                	ld	s1,88(a5)
ffffffff84008366:	601c                	ld	a5,0(s0)
ffffffff84008368:	e93e                	sd	a5,144(sp)
ffffffff8400836a:	641c                	ld	a5,8(s0)
ffffffff8400836c:	ed3e                	sd	a5,152(sp)
ffffffff8400836e:	c88d                	beqz	s1,ffffffff840083a0 <decodeSetIPCBuffer+0x60>
ffffffff84008370:	664a                	ld	a2,144(sp)
ffffffff84008372:	86be                	mv	a3,a5
ffffffff84008374:	85a2                	mv	a1,s0
ffffffff84008376:	18a8                	addi	a0,sp,120
ffffffff84008378:	95efc0ef          	jal	ra,ffffffff840044d6 <deriveCap>
ffffffff8400837c:	7566                	ld	a0,120(sp)
ffffffff8400837e:	e935                	bnez	a0,ffffffff840083f2 <decodeSetIPCBuffer+0xb2>
ffffffff84008380:	658a                	ld	a1,128(sp)
ffffffff84008382:	e92e                	sd	a1,144(sp)
ffffffff84008384:	662a                	ld	a2,136(sp)
ffffffff84008386:	ed32                	sd	a2,152(sp)
ffffffff84008388:	8526                	mv	a0,s1
ffffffff8400838a:	fd8fa0ef          	jal	ra,ffffffff84002b62 <checkValidIPCBuffer>
ffffffff8400838e:	c911                	beqz	a0,ffffffff840083a2 <decodeSetIPCBuffer+0x62>
ffffffff84008390:	a08d                	j	ffffffff840083f2 <decodeSetIPCBuffer+0xb2>
ffffffff84008392:	479d                	li	a5,7
ffffffff84008394:	00005717          	auipc	a4,0x5
ffffffff84008398:	0af73623          	sd	a5,172(a4) # ffffffff8400d440 <current_syscall_error+0x30>
ffffffff8400839c:	450d                	li	a0,3
ffffffff8400839e:	a891                	j	ffffffff840083f2 <decodeSetIPCBuffer+0xb2>
ffffffff840083a0:	4401                	li	s0,0
ffffffff840083a2:	4589                	li	a1,2
ffffffff840083a4:	00017517          	auipc	a0,0x17
ffffffff840083a8:	4b453503          	ld	a0,1204(a0) # ffffffff8401f858 <ksCurThread>
ffffffff840083ac:	ef2fc0ef          	jal	ra,ffffffff84004a9e <setThreadState>
ffffffff840083b0:	7786                	ld	a5,96(sp)
ffffffff840083b2:	01979513          	slli	a0,a5,0x19
ffffffff840083b6:	8165                	srli	a0,a0,0x19
ffffffff840083b8:	9399                	srli	a5,a5,0x26
ffffffff840083ba:	8b85                	andi	a5,a5,1
ffffffff840083bc:	c781                	beqz	a5,ffffffff840083c4 <decodeSetIPCBuffer+0x84>
ffffffff840083be:	57fd                	li	a5,-1
ffffffff840083c0:	179e                	slli	a5,a5,0x27
ffffffff840083c2:	8d5d                	or	a0,a0,a5
ffffffff840083c4:	4785                	li	a5,1
ffffffff840083c6:	e8be                	sd	a5,80(sp)
ffffffff840083c8:	e4a2                	sd	s0,72(sp)
ffffffff840083ca:	67ca                	ld	a5,144(sp)
ffffffff840083cc:	fc3e                	sd	a5,56(sp)
ffffffff840083ce:	67ea                	ld	a5,152(sp)
ffffffff840083d0:	e0be                	sd	a5,64(sp)
ffffffff840083d2:	f826                	sd	s1,48(sp)
ffffffff840083d4:	f402                	sd	zero,40(sp)
ffffffff840083d6:	ec02                	sd	zero,24(sp)
ffffffff840083d8:	f002                	sd	zero,32(sp)
ffffffff840083da:	e802                	sd	zero,16(sp)
ffffffff840083dc:	e002                	sd	zero,0(sp)
ffffffff840083de:	e402                	sd	zero,8(sp)
ffffffff840083e0:	4881                	li	a7,0
ffffffff840083e2:	4781                	li	a5,0
ffffffff840083e4:	4801                	li	a6,0
ffffffff840083e6:	4701                	li	a4,0
ffffffff840083e8:	4601                	li	a2,0
ffffffff840083ea:	4681                	li	a3,0
ffffffff840083ec:	85ca                	mv	a1,s2
ffffffff840083ee:	bcfff0ef          	jal	ra,ffffffff84007fbc <invokeTCB_ThreadControlCaps>
ffffffff840083f2:	60ae                	ld	ra,200(sp)
ffffffff840083f4:	640e                	ld	s0,192(sp)
ffffffff840083f6:	74ea                	ld	s1,184(sp)
ffffffff840083f8:	794a                	ld	s2,176(sp)
ffffffff840083fa:	6169                	addi	sp,sp,208
ffffffff840083fc:	8082                	ret

ffffffff840083fe <decodeSetSpace>:
ffffffff840083fe:	7169                	addi	sp,sp,-304
ffffffff84008400:	f606                	sd	ra,296(sp)
ffffffff84008402:	f222                	sd	s0,288(sp)
ffffffff84008404:	ee26                	sd	s1,280(sp)
ffffffff84008406:	ea4a                	sd	s2,272(sp)
ffffffff84008408:	e64e                	sd	s3,264(sp)
ffffffff8400840a:	e252                	sd	s4,256(sp)
ffffffff8400840c:	fdd6                	sd	s5,248(sp)
ffffffff8400840e:	f9da                	sd	s6,240(sp)
ffffffff84008410:	f5de                	sd	s7,232(sp)
ffffffff84008412:	f1e2                	sd	s8,224(sp)
ffffffff84008414:	ede6                	sd	s9,216(sp)
ffffffff84008416:	f0aa                	sd	a0,96(sp)
ffffffff84008418:	f4ae                	sd	a1,104(sp)
ffffffff8400841a:	4785                	li	a5,1
ffffffff8400841c:	12c7fe63          	bgeu	a5,a2,ffffffff84008558 <decodeSetSpace+0x15a>
ffffffff84008420:	8936                	mv	s2,a3
ffffffff84008422:	00005997          	auipc	s3,0x5
ffffffff84008426:	46e9b983          	ld	s3,1134(s3) # ffffffff8400d890 <current_extra_caps>
ffffffff8400842a:	12098763          	beqz	s3,ffffffff84008558 <decodeSetSpace+0x15a>
ffffffff8400842e:	00005497          	auipc	s1,0x5
ffffffff84008432:	46a4b483          	ld	s1,1130(s1) # ffffffff8400d898 <current_extra_caps+0x8>
ffffffff84008436:	12048163          	beqz	s1,ffffffff84008558 <decodeSetSpace+0x15a>
ffffffff8400843a:	00005a17          	auipc	s4,0x5
ffffffff8400843e:	466a3a03          	ld	s4,1126(s4) # ffffffff8400d8a0 <current_extra_caps+0x10>
ffffffff84008442:	100a0b63          	beqz	s4,ffffffff84008558 <decodeSetSpace+0x15a>
ffffffff84008446:	00017797          	auipc	a5,0x17
ffffffff8400844a:	4127b783          	ld	a5,1042(a5) # ffffffff8401f858 <ksCurThread>
ffffffff8400844e:	0587bc03          	ld	s8,88(a5)
ffffffff84008452:	0607bb83          	ld	s7,96(a5)
ffffffff84008456:	0009b783          	ld	a5,0(s3)
ffffffff8400845a:	fcbe                	sd	a5,120(sp)
ffffffff8400845c:	0089b783          	ld	a5,8(s3)
ffffffff84008460:	e13e                	sd	a5,128(sp)
ffffffff84008462:	0004ba83          	ld	s5,0(s1)
ffffffff84008466:	f956                	sd	s5,176(sp)
ffffffff84008468:	649c                	ld	a5,8(s1)
ffffffff8400846a:	fd3e                	sd	a5,184(sp)
ffffffff8400846c:	8b56                	mv	s6,s5
ffffffff8400846e:	000a3783          	ld	a5,0(s4)
ffffffff84008472:	f13e                	sd	a5,160(sp)
ffffffff84008474:	008a3783          	ld	a5,8(s4)
ffffffff84008478:	f53e                	sd	a5,168(sp)
ffffffff8400847a:	7786                	ld	a5,96(sp)
ffffffff8400847c:	01979413          	slli	s0,a5,0x19
ffffffff84008480:	8065                	srli	s0,s0,0x19
ffffffff84008482:	9399                	srli	a5,a5,0x26
ffffffff84008484:	8b85                	andi	a5,a5,1
ffffffff84008486:	c781                	beqz	a5,ffffffff8400848e <decodeSetSpace+0x90>
ffffffff84008488:	57fd                	li	a5,-1
ffffffff8400848a:	179e                	slli	a5,a5,0x27
ffffffff8400848c:	8c5d                	or	s0,s0,a5
ffffffff8400848e:	c0047c93          	andi	s9,s0,-1024
ffffffff84008492:	8566                	mv	a0,s9
ffffffff84008494:	95cfc0ef          	jal	ra,ffffffff840045f0 <slotCapLongRunningDelete>
ffffffff84008498:	0e051363          	bnez	a0,ffffffff8400857e <decodeSetSpace+0x180>
ffffffff8400849c:	020c8513          	addi	a0,s9,32
ffffffff840084a0:	950fc0ef          	jal	ra,ffffffff840045f0 <slotCapLongRunningDelete>
ffffffff840084a4:	ed69                	bnez	a0,ffffffff8400857e <decodeSetSpace+0x180>
ffffffff840084a6:	000c0a63          	beqz	s8,ffffffff840084ba <decodeSetSpace+0xbc>
ffffffff840084aa:	8656                	mv	a2,s5
ffffffff840084ac:	76ea                	ld	a3,184(sp)
ffffffff840084ae:	85e2                	mv	a1,s8
ffffffff840084b0:	4501                	li	a0,0
ffffffff840084b2:	8fffb0ef          	jal	ra,ffffffff84003db0 <updateCapData>
ffffffff840084b6:	fd2e                	sd	a1,184(sp)
ffffffff840084b8:	8b2a                	mv	s6,a0
ffffffff840084ba:	865a                	mv	a2,s6
ffffffff840084bc:	76ea                	ld	a3,184(sp)
ffffffff840084be:	85a6                	mv	a1,s1
ffffffff840084c0:	0128                	addi	a0,sp,136
ffffffff840084c2:	814fc0ef          	jal	ra,ffffffff840044d6 <deriveCap>
ffffffff840084c6:	652a                	ld	a0,136(sp)
ffffffff840084c8:	ed51                	bnez	a0,ffffffff84008564 <decodeSetSpace+0x166>
ffffffff840084ca:	6aca                	ld	s5,144(sp)
ffffffff840084cc:	67ea                	ld	a5,152(sp)
ffffffff840084ce:	fd3e                	sd	a5,184(sp)
ffffffff840084d0:	03bad713          	srli	a4,s5,0x3b
ffffffff840084d4:	47a9                	li	a5,10
ffffffff840084d6:	0af71b63          	bne	a4,a5,ffffffff8400858c <decodeSetSpace+0x18e>
ffffffff840084da:	000b8a63          	beqz	s7,ffffffff840084ee <decodeSetSpace+0xf0>
ffffffff840084de:	760a                	ld	a2,160(sp)
ffffffff840084e0:	76aa                	ld	a3,168(sp)
ffffffff840084e2:	85de                	mv	a1,s7
ffffffff840084e4:	4501                	li	a0,0
ffffffff840084e6:	8cbfb0ef          	jal	ra,ffffffff84003db0 <updateCapData>
ffffffff840084ea:	f12a                	sd	a0,160(sp)
ffffffff840084ec:	f52e                	sd	a1,168(sp)
ffffffff840084ee:	760a                	ld	a2,160(sp)
ffffffff840084f0:	76aa                	ld	a3,168(sp)
ffffffff840084f2:	85d2                	mv	a1,s4
ffffffff840084f4:	0128                	addi	a0,sp,136
ffffffff840084f6:	fe1fb0ef          	jal	ra,ffffffff840044d6 <deriveCap>
ffffffff840084fa:	652a                	ld	a0,136(sp)
ffffffff840084fc:	e525                	bnez	a0,ffffffff84008564 <decodeSetSpace+0x166>
ffffffff840084fe:	654a                	ld	a0,144(sp)
ffffffff84008500:	f12a                	sd	a0,160(sp)
ffffffff84008502:	65ea                	ld	a1,152(sp)
ffffffff84008504:	f52e                	sd	a1,168(sp)
ffffffff84008506:	e46fa0ef          	jal	ra,ffffffff84002b4c <isValidVTableRoot>
ffffffff8400850a:	c941                	beqz	a0,ffffffff8400859a <decodeSetSpace+0x19c>
ffffffff8400850c:	7566                	ld	a0,120(sp)
ffffffff8400850e:	658a                	ld	a1,128(sp)
ffffffff84008510:	c6bf90ef          	jal	ra,ffffffff8400217a <validFaultHandler>
ffffffff84008514:	c951                	beqz	a0,ffffffff840085a8 <decodeSetSpace+0x1aa>
ffffffff84008516:	4589                	li	a1,2
ffffffff84008518:	00017517          	auipc	a0,0x17
ffffffff8400851c:	34053503          	ld	a0,832(a0) # ffffffff8401f858 <ksCurThread>
ffffffff84008520:	d7efc0ef          	jal	ra,ffffffff84004a9e <setThreadState>
ffffffff84008524:	4799                	li	a5,6
ffffffff84008526:	e8be                	sd	a5,80(sp)
ffffffff84008528:	e482                	sd	zero,72(sp)
ffffffff8400852a:	fc02                	sd	zero,56(sp)
ffffffff8400852c:	e082                	sd	zero,64(sp)
ffffffff8400852e:	f802                	sd	zero,48(sp)
ffffffff84008530:	f452                	sd	s4,40(sp)
ffffffff84008532:	778a                	ld	a5,160(sp)
ffffffff84008534:	ec3e                	sd	a5,24(sp)
ffffffff84008536:	77aa                	ld	a5,168(sp)
ffffffff84008538:	f03e                	sd	a5,32(sp)
ffffffff8400853a:	e826                	sd	s1,16(sp)
ffffffff8400853c:	e056                	sd	s5,0(sp)
ffffffff8400853e:	77ea                	ld	a5,184(sp)
ffffffff84008540:	e43e                	sd	a5,8(sp)
ffffffff84008542:	4881                	li	a7,0
ffffffff84008544:	4781                	li	a5,0
ffffffff84008546:	4801                	li	a6,0
ffffffff84008548:	874e                	mv	a4,s3
ffffffff8400854a:	7666                	ld	a2,120(sp)
ffffffff8400854c:	668a                	ld	a3,128(sp)
ffffffff8400854e:	85ca                	mv	a1,s2
ffffffff84008550:	8522                	mv	a0,s0
ffffffff84008552:	a6bff0ef          	jal	ra,ffffffff84007fbc <invokeTCB_ThreadControlCaps>
ffffffff84008556:	a039                	j	ffffffff84008564 <decodeSetSpace+0x166>
ffffffff84008558:	479d                	li	a5,7
ffffffff8400855a:	00005717          	auipc	a4,0x5
ffffffff8400855e:	eef73323          	sd	a5,-282(a4) # ffffffff8400d440 <current_syscall_error+0x30>
ffffffff84008562:	450d                	li	a0,3
ffffffff84008564:	70b2                	ld	ra,296(sp)
ffffffff84008566:	7412                	ld	s0,288(sp)
ffffffff84008568:	64f2                	ld	s1,280(sp)
ffffffff8400856a:	6952                	ld	s2,272(sp)
ffffffff8400856c:	69b2                	ld	s3,264(sp)
ffffffff8400856e:	6a12                	ld	s4,256(sp)
ffffffff84008570:	7aee                	ld	s5,248(sp)
ffffffff84008572:	7b4e                	ld	s6,240(sp)
ffffffff84008574:	7bae                	ld	s7,232(sp)
ffffffff84008576:	7c0e                	ld	s8,224(sp)
ffffffff84008578:	6cee                	ld	s9,216(sp)
ffffffff8400857a:	6155                	addi	sp,sp,304
ffffffff8400857c:	8082                	ret
ffffffff8400857e:	478d                	li	a5,3
ffffffff84008580:	00005717          	auipc	a4,0x5
ffffffff84008584:	ecf73023          	sd	a5,-320(a4) # ffffffff8400d440 <current_syscall_error+0x30>
ffffffff84008588:	450d                	li	a0,3
ffffffff8400858a:	bfe9                	j	ffffffff84008564 <decodeSetSpace+0x166>
ffffffff8400858c:	478d                	li	a5,3
ffffffff8400858e:	00005717          	auipc	a4,0x5
ffffffff84008592:	eaf73923          	sd	a5,-334(a4) # ffffffff8400d440 <current_syscall_error+0x30>
ffffffff84008596:	450d                	li	a0,3
ffffffff84008598:	b7f1                	j	ffffffff84008564 <decodeSetSpace+0x166>
ffffffff8400859a:	478d                	li	a5,3
ffffffff8400859c:	00005717          	auipc	a4,0x5
ffffffff840085a0:	eaf73223          	sd	a5,-348(a4) # ffffffff8400d440 <current_syscall_error+0x30>
ffffffff840085a4:	450d                	li	a0,3
ffffffff840085a6:	bf7d                	j	ffffffff84008564 <decodeSetSpace+0x166>
ffffffff840085a8:	4785                	li	a5,1
ffffffff840085aa:	00005717          	auipc	a4,0x5
ffffffff840085ae:	e6f73723          	sd	a5,-402(a4) # ffffffff8400d418 <current_syscall_error+0x8>
ffffffff840085b2:	450d                	li	a0,3
ffffffff840085b4:	bf45                	j	ffffffff84008564 <decodeSetSpace+0x166>

ffffffff840085b6 <invokeTCB_ThreadControlSched>:
ffffffff840085b6:	715d                	addi	sp,sp,-80
ffffffff840085b8:	e486                	sd	ra,72(sp)
ffffffff840085ba:	e0a2                	sd	s0,64(sp)
ffffffff840085bc:	fc26                	sd	s1,56(sp)
ffffffff840085be:	f84a                	sd	s2,48(sp)
ffffffff840085c0:	f44e                	sd	s3,40(sp)
ffffffff840085c2:	f052                	sd	s4,32(sp)
ffffffff840085c4:	842a                	mv	s0,a0
ffffffff840085c6:	e032                	sd	a2,0(sp)
ffffffff840085c8:	e436                	sd	a3,8(sp)
ffffffff840085ca:	8a3e                	mv	s4,a5
ffffffff840085cc:	89c2                	mv	s3,a6
ffffffff840085ce:	8946                	mv	s2,a7
ffffffff840085d0:	64c6                	ld	s1,80(sp)
ffffffff840085d2:	0084f693          	andi	a3,s1,8
ffffffff840085d6:	ee95                	bnez	a3,ffffffff84008612 <invokeTCB_ThreadControlSched+0x5c>
ffffffff840085d8:	0024f793          	andi	a5,s1,2
ffffffff840085dc:	efa1                	bnez	a5,ffffffff84008634 <invokeTCB_ThreadControlSched+0x7e>
ffffffff840085de:	0014f793          	andi	a5,s1,1
ffffffff840085e2:	efa1                	bnez	a5,ffffffff8400863a <invokeTCB_ThreadControlSched+0x84>
ffffffff840085e4:	0044f513          	andi	a0,s1,4
ffffffff840085e8:	cd09                	beqz	a0,ffffffff84008602 <invokeTCB_ThreadControlSched+0x4c>
ffffffff840085ea:	04090d63          	beqz	s2,ffffffff84008644 <invokeTCB_ThreadControlSched+0x8e>
ffffffff840085ee:	17043783          	ld	a5,368(s0)
ffffffff840085f2:	4501                	li	a0,0
ffffffff840085f4:	01278763          	beq	a5,s2,ffffffff84008602 <invokeTCB_ThreadControlSched+0x4c>
ffffffff840085f8:	85a2                	mv	a1,s0
ffffffff840085fa:	854a                	mv	a0,s2
ffffffff840085fc:	f94fd0ef          	jal	ra,ffffffff84005d90 <schedContext_bindTCB>
ffffffff84008600:	4501                	li	a0,0
ffffffff84008602:	60a6                	ld	ra,72(sp)
ffffffff84008604:	6406                	ld	s0,64(sp)
ffffffff84008606:	74e2                	ld	s1,56(sp)
ffffffff84008608:	7942                	ld	s2,48(sp)
ffffffff8400860a:	79a2                	ld	s3,40(sp)
ffffffff8400860c:	7a02                	ld	s4,32(sp)
ffffffff8400860e:	6161                	addi	sp,sp,80
ffffffff84008610:	8082                	ret
ffffffff84008612:	0566                	slli	a0,a0,0x19
ffffffff84008614:	8165                	srli	a0,a0,0x19
ffffffff84008616:	88ba                	mv	a7,a4
ffffffff84008618:	87b2                	mv	a5,a2
ffffffff8400861a:	6822                	ld	a6,8(sp)
ffffffff8400861c:	470d                	li	a4,3
ffffffff8400861e:	86ae                	mv	a3,a1
ffffffff84008620:	460d                	li	a2,3
ffffffff84008622:	1676                	slli	a2,a2,0x3d
ffffffff84008624:	00c565b3          	or	a1,a0,a2
ffffffff84008628:	4601                	li	a2,0
ffffffff8400862a:	8522                	mv	a0,s0
ffffffff8400862c:	dc7fe0ef          	jal	ra,ffffffff840073f2 <installTCBCap>
ffffffff84008630:	d545                	beqz	a0,ffffffff840085d8 <invokeTCB_ThreadControlSched+0x22>
ffffffff84008632:	bfc1                	j	ffffffff84008602 <invokeTCB_ThreadControlSched+0x4c>
ffffffff84008634:	17443023          	sd	s4,352(s0)
ffffffff84008638:	b75d                	j	ffffffff840085de <invokeTCB_ThreadControlSched+0x28>
ffffffff8400863a:	85ce                	mv	a1,s3
ffffffff8400863c:	8522                	mv	a0,s0
ffffffff8400863e:	878fd0ef          	jal	ra,ffffffff840056b6 <setPriority>
ffffffff84008642:	b74d                	j	ffffffff840085e4 <invokeTCB_ThreadControlSched+0x2e>
ffffffff84008644:	17043783          	ld	a5,368(s0)
ffffffff84008648:	4501                	li	a0,0
ffffffff8400864a:	dfc5                	beqz	a5,ffffffff84008602 <invokeTCB_ThreadControlSched+0x4c>
ffffffff8400864c:	85a2                	mv	a1,s0
ffffffff8400864e:	853e                	mv	a0,a5
ffffffff84008650:	9a8fd0ef          	jal	ra,ffffffff840057f8 <schedContext_unbindTCB>
ffffffff84008654:	4501                	li	a0,0
ffffffff84008656:	b775                	j	ffffffff84008602 <invokeTCB_ThreadControlSched+0x4c>

ffffffff84008658 <decodeSetPriority>:
ffffffff84008658:	7139                	addi	sp,sp,-64
ffffffff8400865a:	fc06                	sd	ra,56(sp)
ffffffff8400865c:	f822                	sd	s0,48(sp)
ffffffff8400865e:	e82a                	sd	a0,16(sp)
ffffffff84008660:	ec2e                	sd	a1,24(sp)
ffffffff84008662:	c63d                	beqz	a2,ffffffff840086d0 <decodeSetPriority+0x78>
ffffffff84008664:	00005797          	auipc	a5,0x5
ffffffff84008668:	22c7b783          	ld	a5,556(a5) # ffffffff8400d890 <current_extra_caps>
ffffffff8400866c:	c3b5                	beqz	a5,ffffffff840086d0 <decodeSetPriority+0x78>
ffffffff8400866e:	639c                	ld	a5,0(a5)
ffffffff84008670:	03b7d693          	srli	a3,a5,0x3b
ffffffff84008674:	4731                	li	a4,12
ffffffff84008676:	06e69763          	bne	a3,a4,ffffffff840086e4 <decodeSetPriority+0x8c>
ffffffff8400867a:	01979713          	slli	a4,a5,0x19
ffffffff8400867e:	8365                	srli	a4,a4,0x19
ffffffff84008680:	9399                	srli	a5,a5,0x26
ffffffff84008682:	8b85                	andi	a5,a5,1
ffffffff84008684:	c781                	beqz	a5,ffffffff8400868c <decodeSetPriority+0x34>
ffffffff84008686:	57fd                	li	a5,-1
ffffffff84008688:	179e                	slli	a5,a5,0x27
ffffffff8400868a:	8f5d                	or	a4,a4,a5
ffffffff8400868c:	00017517          	auipc	a0,0x17
ffffffff84008690:	1cc53503          	ld	a0,460(a0) # ffffffff8401f858 <ksCurThread>
ffffffff84008694:	6d20                	ld	s0,88(a0)
ffffffff84008696:	16073783          	ld	a5,352(a4)
ffffffff8400869a:	0687e163          	bltu	a5,s0,ffffffff840086fc <decodeSetPriority+0xa4>
ffffffff8400869e:	4589                	li	a1,2
ffffffff840086a0:	bfefc0ef          	jal	ra,ffffffff84004a9e <setThreadState>
ffffffff840086a4:	67c2                	ld	a5,16(sp)
ffffffff840086a6:	01979513          	slli	a0,a5,0x19
ffffffff840086aa:	8165                	srli	a0,a0,0x19
ffffffff840086ac:	9399                	srli	a5,a5,0x26
ffffffff840086ae:	8b85                	andi	a5,a5,1
ffffffff840086b0:	c781                	beqz	a5,ffffffff840086b8 <decodeSetPriority+0x60>
ffffffff840086b2:	57fd                	li	a5,-1
ffffffff840086b4:	179e                	slli	a5,a5,0x27
ffffffff840086b6:	8d5d                	or	a0,a0,a5
ffffffff840086b8:	4785                	li	a5,1
ffffffff840086ba:	e03e                	sd	a5,0(sp)
ffffffff840086bc:	4881                	li	a7,0
ffffffff840086be:	8822                	mv	a6,s0
ffffffff840086c0:	4781                	li	a5,0
ffffffff840086c2:	4701                	li	a4,0
ffffffff840086c4:	4601                	li	a2,0
ffffffff840086c6:	4681                	li	a3,0
ffffffff840086c8:	4581                	li	a1,0
ffffffff840086ca:	eedff0ef          	jal	ra,ffffffff840085b6 <invokeTCB_ThreadControlSched>
ffffffff840086ce:	a039                	j	ffffffff840086dc <decodeSetPriority+0x84>
ffffffff840086d0:	479d                	li	a5,7
ffffffff840086d2:	00005717          	auipc	a4,0x5
ffffffff840086d6:	d6f73723          	sd	a5,-658(a4) # ffffffff8400d440 <current_syscall_error+0x30>
ffffffff840086da:	450d                	li	a0,3
ffffffff840086dc:	70e2                	ld	ra,56(sp)
ffffffff840086de:	7442                	ld	s0,48(sp)
ffffffff840086e0:	6121                	addi	sp,sp,64
ffffffff840086e2:	8082                	ret
ffffffff840086e4:	00005797          	auipc	a5,0x5
ffffffff840086e8:	91c78793          	addi	a5,a5,-1764 # ffffffff8400d000 <riscvKSASIDTable>
ffffffff840086ec:	4709                	li	a4,2
ffffffff840086ee:	44e7b023          	sd	a4,1088(a5)
ffffffff840086f2:	4705                	li	a4,1
ffffffff840086f4:	40e7bc23          	sd	a4,1048(a5)
ffffffff840086f8:	450d                	li	a0,3
ffffffff840086fa:	b7cd                	j	ffffffff840086dc <decodeSetPriority+0x84>
ffffffff840086fc:	00005717          	auipc	a4,0x5
ffffffff84008700:	90470713          	addi	a4,a4,-1788 # ffffffff8400d000 <riscvKSASIDTable>
ffffffff84008704:	4691                	li	a3,4
ffffffff84008706:	44d73023          	sd	a3,1088(a4)
ffffffff8400870a:	42073023          	sd	zero,1056(a4)
ffffffff8400870e:	42f73423          	sd	a5,1064(a4)
ffffffff84008712:	450d                	li	a0,3
ffffffff84008714:	b7e1                	j	ffffffff840086dc <decodeSetPriority+0x84>

ffffffff84008716 <decodeSetMCPriority>:
ffffffff84008716:	7139                	addi	sp,sp,-64
ffffffff84008718:	fc06                	sd	ra,56(sp)
ffffffff8400871a:	f822                	sd	s0,48(sp)
ffffffff8400871c:	e82a                	sd	a0,16(sp)
ffffffff8400871e:	ec2e                	sd	a1,24(sp)
ffffffff84008720:	c63d                	beqz	a2,ffffffff8400878e <decodeSetMCPriority+0x78>
ffffffff84008722:	00005797          	auipc	a5,0x5
ffffffff84008726:	16e7b783          	ld	a5,366(a5) # ffffffff8400d890 <current_extra_caps>
ffffffff8400872a:	c3b5                	beqz	a5,ffffffff8400878e <decodeSetMCPriority+0x78>
ffffffff8400872c:	639c                	ld	a5,0(a5)
ffffffff8400872e:	03b7d693          	srli	a3,a5,0x3b
ffffffff84008732:	4731                	li	a4,12
ffffffff84008734:	06e69763          	bne	a3,a4,ffffffff840087a2 <decodeSetMCPriority+0x8c>
ffffffff84008738:	01979713          	slli	a4,a5,0x19
ffffffff8400873c:	8365                	srli	a4,a4,0x19
ffffffff8400873e:	9399                	srli	a5,a5,0x26
ffffffff84008740:	8b85                	andi	a5,a5,1
ffffffff84008742:	c781                	beqz	a5,ffffffff8400874a <decodeSetMCPriority+0x34>
ffffffff84008744:	57fd                	li	a5,-1
ffffffff84008746:	179e                	slli	a5,a5,0x27
ffffffff84008748:	8f5d                	or	a4,a4,a5
ffffffff8400874a:	00017517          	auipc	a0,0x17
ffffffff8400874e:	10e53503          	ld	a0,270(a0) # ffffffff8401f858 <ksCurThread>
ffffffff84008752:	6d20                	ld	s0,88(a0)
ffffffff84008754:	16073783          	ld	a5,352(a4)
ffffffff84008758:	0687e163          	bltu	a5,s0,ffffffff840087ba <decodeSetMCPriority+0xa4>
ffffffff8400875c:	4589                	li	a1,2
ffffffff8400875e:	b40fc0ef          	jal	ra,ffffffff84004a9e <setThreadState>
ffffffff84008762:	67c2                	ld	a5,16(sp)
ffffffff84008764:	01979513          	slli	a0,a5,0x19
ffffffff84008768:	8165                	srli	a0,a0,0x19
ffffffff8400876a:	9399                	srli	a5,a5,0x26
ffffffff8400876c:	8b85                	andi	a5,a5,1
ffffffff8400876e:	c781                	beqz	a5,ffffffff84008776 <decodeSetMCPriority+0x60>
ffffffff84008770:	57fd                	li	a5,-1
ffffffff84008772:	179e                	slli	a5,a5,0x27
ffffffff84008774:	8d5d                	or	a0,a0,a5
ffffffff84008776:	4789                	li	a5,2
ffffffff84008778:	e03e                	sd	a5,0(sp)
ffffffff8400877a:	4881                	li	a7,0
ffffffff8400877c:	4801                	li	a6,0
ffffffff8400877e:	87a2                	mv	a5,s0
ffffffff84008780:	4701                	li	a4,0
ffffffff84008782:	4601                	li	a2,0
ffffffff84008784:	4681                	li	a3,0
ffffffff84008786:	4581                	li	a1,0
ffffffff84008788:	e2fff0ef          	jal	ra,ffffffff840085b6 <invokeTCB_ThreadControlSched>
ffffffff8400878c:	a039                	j	ffffffff8400879a <decodeSetMCPriority+0x84>
ffffffff8400878e:	479d                	li	a5,7
ffffffff84008790:	00005717          	auipc	a4,0x5
ffffffff84008794:	caf73823          	sd	a5,-848(a4) # ffffffff8400d440 <current_syscall_error+0x30>
ffffffff84008798:	450d                	li	a0,3
ffffffff8400879a:	70e2                	ld	ra,56(sp)
ffffffff8400879c:	7442                	ld	s0,48(sp)
ffffffff8400879e:	6121                	addi	sp,sp,64
ffffffff840087a0:	8082                	ret
ffffffff840087a2:	00005797          	auipc	a5,0x5
ffffffff840087a6:	85e78793          	addi	a5,a5,-1954 # ffffffff8400d000 <riscvKSASIDTable>
ffffffff840087aa:	4709                	li	a4,2
ffffffff840087ac:	44e7b023          	sd	a4,1088(a5)
ffffffff840087b0:	4705                	li	a4,1
ffffffff840087b2:	40e7bc23          	sd	a4,1048(a5)
ffffffff840087b6:	450d                	li	a0,3
ffffffff840087b8:	b7cd                	j	ffffffff8400879a <decodeSetMCPriority+0x84>
ffffffff840087ba:	00005717          	auipc	a4,0x5
ffffffff840087be:	84670713          	addi	a4,a4,-1978 # ffffffff8400d000 <riscvKSASIDTable>
ffffffff840087c2:	4691                	li	a3,4
ffffffff840087c4:	44d73023          	sd	a3,1088(a4)
ffffffff840087c8:	42073023          	sd	zero,1056(a4)
ffffffff840087cc:	42f73423          	sd	a5,1064(a4)
ffffffff840087d0:	450d                	li	a0,3
ffffffff840087d2:	b7e1                	j	ffffffff8400879a <decodeSetMCPriority+0x84>

ffffffff840087d4 <decodeSetSchedParams>:
ffffffff840087d4:	7159                	addi	sp,sp,-112
ffffffff840087d6:	f486                	sd	ra,104(sp)
ffffffff840087d8:	f0a2                	sd	s0,96(sp)
ffffffff840087da:	eca6                	sd	s1,88(sp)
ffffffff840087dc:	e8ca                	sd	s2,80(sp)
ffffffff840087de:	e4ce                	sd	s3,72(sp)
ffffffff840087e0:	e0d2                	sd	s4,64(sp)
ffffffff840087e2:	fc56                	sd	s5,56(sp)
ffffffff840087e4:	e82a                	sd	a0,16(sp)
ffffffff840087e6:	ec2e                	sd	a1,24(sp)
ffffffff840087e8:	4785                	li	a5,1
ffffffff840087ea:	0cc7f163          	bgeu	a5,a2,ffffffff840088ac <decodeSetSchedParams+0xd8>
ffffffff840087ee:	84b6                	mv	s1,a3
ffffffff840087f0:	00005797          	auipc	a5,0x5
ffffffff840087f4:	0a07b783          	ld	a5,160(a5) # ffffffff8400d890 <current_extra_caps>
ffffffff840087f8:	cbd5                	beqz	a5,ffffffff840088ac <decodeSetSchedParams+0xd8>
ffffffff840087fa:	00005717          	auipc	a4,0x5
ffffffff840087fe:	09e73703          	ld	a4,158(a4) # ffffffff8400d898 <current_extra_caps+0x8>
ffffffff84008802:	c74d                	beqz	a4,ffffffff840088ac <decodeSetSchedParams+0xd8>
ffffffff84008804:	00005417          	auipc	s0,0x5
ffffffff84008808:	09c43403          	ld	s0,156(s0) # ffffffff8400d8a0 <current_extra_caps+0x10>
ffffffff8400880c:	c045                	beqz	s0,ffffffff840088ac <decodeSetSchedParams+0xd8>
ffffffff8400880e:	00017697          	auipc	a3,0x17
ffffffff84008812:	04a6b683          	ld	a3,74(a3) # ffffffff8401f858 <ksCurThread>
ffffffff84008816:	0586b903          	ld	s2,88(a3)
ffffffff8400881a:	0606b983          	ld	s3,96(a3)
ffffffff8400881e:	639c                	ld	a5,0(a5)
ffffffff84008820:	630c                	ld	a1,0(a4)
ffffffff84008822:	00873803          	ld	a6,8(a4)
ffffffff84008826:	6018                	ld	a4,0(s0)
ffffffff84008828:	f03a                	sd	a4,32(sp)
ffffffff8400882a:	6418                	ld	a4,8(s0)
ffffffff8400882c:	f43a                	sd	a4,40(sp)
ffffffff8400882e:	03b7d613          	srli	a2,a5,0x3b
ffffffff84008832:	4731                	li	a4,12
ffffffff84008834:	08e61b63          	bne	a2,a4,ffffffff840088ca <decodeSetSchedParams+0xf6>
ffffffff84008838:	01979713          	slli	a4,a5,0x19
ffffffff8400883c:	8365                	srli	a4,a4,0x19
ffffffff8400883e:	9399                	srli	a5,a5,0x26
ffffffff84008840:	8b85                	andi	a5,a5,1
ffffffff84008842:	c781                	beqz	a5,ffffffff8400884a <decodeSetSchedParams+0x76>
ffffffff84008844:	57fd                	li	a5,-1
ffffffff84008846:	179e                	slli	a5,a5,0x27
ffffffff84008848:	8f5d                	or	a4,a4,a5
ffffffff8400884a:	16073783          	ld	a5,352(a4)
ffffffff8400884e:	0927ea63          	bltu	a5,s2,ffffffff840088e2 <decodeSetSchedParams+0x10e>
ffffffff84008852:	0b37e563          	bltu	a5,s3,ffffffff840088fc <decodeSetSchedParams+0x128>
ffffffff84008856:	67c2                	ld	a5,16(sp)
ffffffff84008858:	01979513          	slli	a0,a5,0x19
ffffffff8400885c:	8165                	srli	a0,a0,0x19
ffffffff8400885e:	9399                	srli	a5,a5,0x26
ffffffff84008860:	8b85                	andi	a5,a5,1
ffffffff84008862:	c781                	beqz	a5,ffffffff8400886a <decodeSetSchedParams+0x96>
ffffffff84008864:	57fd                	li	a5,-1
ffffffff84008866:	179e                	slli	a5,a5,0x27
ffffffff84008868:	8d5d                	or	a0,a0,a5
ffffffff8400886a:	8a2a                	mv	s4,a0
ffffffff8400886c:	91ed                	srli	a1,a1,0x3b
ffffffff8400886e:	c9dd                	beqz	a1,ffffffff84008924 <decodeSetSchedParams+0x150>
ffffffff84008870:	47d9                	li	a5,22
ffffffff84008872:	0ef59c63          	bne	a1,a5,ffffffff8400896a <decodeSetSchedParams+0x196>
ffffffff84008876:	01085813          	srli	a6,a6,0x10
ffffffff8400887a:	01981793          	slli	a5,a6,0x19
ffffffff8400887e:	83e5                	srli	a5,a5,0x19
ffffffff84008880:	02685813          	srli	a6,a6,0x26
ffffffff84008884:	00187813          	andi	a6,a6,1
ffffffff84008888:	00080563          	beqz	a6,ffffffff84008892 <decodeSetSchedParams+0xbe>
ffffffff8400888c:	577d                	li	a4,-1
ffffffff8400888e:	171e                	slli	a4,a4,0x27
ffffffff84008890:	8fd9                	or	a5,a5,a4
ffffffff84008892:	170a3703          	ld	a4,368(s4)
ffffffff84008896:	e341                	bnez	a4,ffffffff84008916 <decodeSetSchedParams+0x142>
ffffffff84008898:	8abe                	mv	s5,a5
ffffffff8400889a:	6f9c                	ld	a5,24(a5)
ffffffff8400889c:	c7d9                	beqz	a5,ffffffff8400892a <decodeSetSchedParams+0x156>
ffffffff8400889e:	478d                	li	a5,3
ffffffff840088a0:	00005717          	auipc	a4,0x5
ffffffff840088a4:	baf73023          	sd	a5,-1120(a4) # ffffffff8400d440 <current_syscall_error+0x30>
ffffffff840088a8:	450d                	li	a0,3
ffffffff840088aa:	a039                	j	ffffffff840088b8 <decodeSetSchedParams+0xe4>
ffffffff840088ac:	479d                	li	a5,7
ffffffff840088ae:	00005717          	auipc	a4,0x5
ffffffff840088b2:	b8f73923          	sd	a5,-1134(a4) # ffffffff8400d440 <current_syscall_error+0x30>
ffffffff840088b6:	450d                	li	a0,3
ffffffff840088b8:	70a6                	ld	ra,104(sp)
ffffffff840088ba:	7406                	ld	s0,96(sp)
ffffffff840088bc:	64e6                	ld	s1,88(sp)
ffffffff840088be:	6946                	ld	s2,80(sp)
ffffffff840088c0:	69a6                	ld	s3,72(sp)
ffffffff840088c2:	6a06                	ld	s4,64(sp)
ffffffff840088c4:	7ae2                	ld	s5,56(sp)
ffffffff840088c6:	6165                	addi	sp,sp,112
ffffffff840088c8:	8082                	ret
ffffffff840088ca:	00004797          	auipc	a5,0x4
ffffffff840088ce:	73678793          	addi	a5,a5,1846 # ffffffff8400d000 <riscvKSASIDTable>
ffffffff840088d2:	4709                	li	a4,2
ffffffff840088d4:	44e7b023          	sd	a4,1088(a5)
ffffffff840088d8:	4705                	li	a4,1
ffffffff840088da:	40e7bc23          	sd	a4,1048(a5)
ffffffff840088de:	450d                	li	a0,3
ffffffff840088e0:	bfe1                	j	ffffffff840088b8 <decodeSetSchedParams+0xe4>
ffffffff840088e2:	00004717          	auipc	a4,0x4
ffffffff840088e6:	71e70713          	addi	a4,a4,1822 # ffffffff8400d000 <riscvKSASIDTable>
ffffffff840088ea:	4691                	li	a3,4
ffffffff840088ec:	44d73023          	sd	a3,1088(a4)
ffffffff840088f0:	42073023          	sd	zero,1056(a4)
ffffffff840088f4:	42f73423          	sd	a5,1064(a4)
ffffffff840088f8:	450d                	li	a0,3
ffffffff840088fa:	bf7d                	j	ffffffff840088b8 <decodeSetSchedParams+0xe4>
ffffffff840088fc:	00004717          	auipc	a4,0x4
ffffffff84008900:	70470713          	addi	a4,a4,1796 # ffffffff8400d000 <riscvKSASIDTable>
ffffffff84008904:	4691                	li	a3,4
ffffffff84008906:	44d73023          	sd	a3,1088(a4)
ffffffff8400890a:	42073023          	sd	zero,1056(a4)
ffffffff8400890e:	42f73423          	sd	a5,1064(a4)
ffffffff84008912:	450d                	li	a0,3
ffffffff84008914:	b755                	j	ffffffff840088b8 <decodeSetSchedParams+0xe4>
ffffffff84008916:	478d                	li	a5,3
ffffffff84008918:	00005717          	auipc	a4,0x5
ffffffff8400891c:	b2f73423          	sd	a5,-1240(a4) # ffffffff8400d440 <current_syscall_error+0x30>
ffffffff84008920:	450d                	li	a0,3
ffffffff84008922:	bf59                	j	ffffffff840088b8 <decodeSetSchedParams+0xe4>
ffffffff84008924:	4a81                	li	s5,0
ffffffff84008926:	02d50b63          	beq	a0,a3,ffffffff8400895c <decodeSetSchedParams+0x188>
ffffffff8400892a:	7502                	ld	a0,32(sp)
ffffffff8400892c:	75a2                	ld	a1,40(sp)
ffffffff8400892e:	84df90ef          	jal	ra,ffffffff8400217a <validFaultHandler>
ffffffff84008932:	c539                	beqz	a0,ffffffff84008980 <decodeSetSchedParams+0x1ac>
ffffffff84008934:	4589                	li	a1,2
ffffffff84008936:	00017517          	auipc	a0,0x17
ffffffff8400893a:	f2253503          	ld	a0,-222(a0) # ffffffff8401f858 <ksCurThread>
ffffffff8400893e:	960fc0ef          	jal	ra,ffffffff84004a9e <setThreadState>
ffffffff84008942:	47bd                	li	a5,15
ffffffff84008944:	e03e                	sd	a5,0(sp)
ffffffff84008946:	88d6                	mv	a7,s5
ffffffff84008948:	884e                	mv	a6,s3
ffffffff8400894a:	87ca                	mv	a5,s2
ffffffff8400894c:	8722                	mv	a4,s0
ffffffff8400894e:	7602                	ld	a2,32(sp)
ffffffff84008950:	76a2                	ld	a3,40(sp)
ffffffff84008952:	85a6                	mv	a1,s1
ffffffff84008954:	8552                	mv	a0,s4
ffffffff84008956:	c61ff0ef          	jal	ra,ffffffff840085b6 <invokeTCB_ThreadControlSched>
ffffffff8400895a:	bfb9                	j	ffffffff840088b8 <decodeSetSchedParams+0xe4>
ffffffff8400895c:	478d                	li	a5,3
ffffffff8400895e:	00005717          	auipc	a4,0x5
ffffffff84008962:	aef73123          	sd	a5,-1310(a4) # ffffffff8400d440 <current_syscall_error+0x30>
ffffffff84008966:	450d                	li	a0,3
ffffffff84008968:	bf81                	j	ffffffff840088b8 <decodeSetSchedParams+0xe4>
ffffffff8400896a:	00004797          	auipc	a5,0x4
ffffffff8400896e:	69678793          	addi	a5,a5,1686 # ffffffff8400d000 <riscvKSASIDTable>
ffffffff84008972:	4709                	li	a4,2
ffffffff84008974:	44e7b023          	sd	a4,1088(a5)
ffffffff84008978:	40e7bc23          	sd	a4,1048(a5)
ffffffff8400897c:	450d                	li	a0,3
ffffffff8400897e:	bf2d                	j	ffffffff840088b8 <decodeSetSchedParams+0xe4>
ffffffff84008980:	00004797          	auipc	a5,0x4
ffffffff84008984:	68078793          	addi	a5,a5,1664 # ffffffff8400d000 <riscvKSASIDTable>
ffffffff84008988:	4709                	li	a4,2
ffffffff8400898a:	44e7b023          	sd	a4,1088(a5)
ffffffff8400898e:	470d                	li	a4,3
ffffffff84008990:	40e7bc23          	sd	a4,1048(a5)
ffffffff84008994:	450d                	li	a0,3
ffffffff84008996:	b70d                	j	ffffffff840088b8 <decodeSetSchedParams+0xe4>

ffffffff84008998 <invokeTCB_CopyRegisters>:
ffffffff84008998:	7179                	addi	sp,sp,-48
ffffffff8400899a:	f406                	sd	ra,40(sp)
ffffffff8400899c:	f022                	sd	s0,32(sp)
ffffffff8400899e:	ec26                	sd	s1,24(sp)
ffffffff840089a0:	e84a                	sd	s2,16(sp)
ffffffff840089a2:	e44e                	sd	s3,8(sp)
ffffffff840089a4:	e052                	sd	s4,0(sp)
ffffffff840089a6:	842a                	mv	s0,a0
ffffffff840089a8:	84ae                	mv	s1,a1
ffffffff840089aa:	8a36                	mv	s4,a3
ffffffff840089ac:	89ba                	mv	s3,a4
ffffffff840089ae:	893e                	mv	s2,a5
ffffffff840089b0:	e241                	bnez	a2,ffffffff84008a30 <invokeTCB_CopyRegisters+0x98>
ffffffff840089b2:	080a1363          	bnez	s4,ffffffff84008a38 <invokeTCB_CopyRegisters+0xa0>
ffffffff840089b6:	02098963          	beqz	s3,ffffffff840089e8 <invokeTCB_CopyRegisters+0x50>
ffffffff840089ba:	00003697          	auipc	a3,0x3
ffffffff840089be:	44e68693          	addi	a3,a3,1102 # ffffffff8400be08 <frameRegisters>
ffffffff840089c2:	00003597          	auipc	a1,0x3
ffffffff840089c6:	45658593          	addi	a1,a1,1110 # ffffffff8400be18 <gpRegisters>
ffffffff840089ca:	0006c703          	lbu	a4,0(a3)
ffffffff840089ce:	070e                	slli	a4,a4,0x3
ffffffff840089d0:	00e48633          	add	a2,s1,a4
ffffffff840089d4:	6210                	ld	a2,0(a2)
ffffffff840089d6:	9722                	add	a4,a4,s0
ffffffff840089d8:	e310                	sd	a2,0(a4)
ffffffff840089da:	0685                	addi	a3,a3,1
ffffffff840089dc:	feb697e3          	bne	a3,a1,ffffffff840089ca <invokeTCB_CopyRegisters+0x32>
ffffffff840089e0:	10843783          	ld	a5,264(s0)
ffffffff840089e4:	10f43823          	sd	a5,272(s0)
ffffffff840089e8:	02090563          	beqz	s2,ffffffff84008a12 <invokeTCB_CopyRegisters+0x7a>
ffffffff840089ec:	00003717          	auipc	a4,0x3
ffffffff840089f0:	42c70713          	addi	a4,a4,1068 # ffffffff8400be18 <gpRegisters>
ffffffff840089f4:	00003617          	auipc	a2,0x3
ffffffff840089f8:	43460613          	addi	a2,a2,1076 # ffffffff8400be28 <gpRegisters+0x10>
ffffffff840089fc:	00074783          	lbu	a5,0(a4)
ffffffff84008a00:	078e                	slli	a5,a5,0x3
ffffffff84008a02:	00f486b3          	add	a3,s1,a5
ffffffff84008a06:	6294                	ld	a3,0(a3)
ffffffff84008a08:	97a2                	add	a5,a5,s0
ffffffff84008a0a:	e394                	sd	a3,0(a5)
ffffffff84008a0c:	0705                	addi	a4,a4,1
ffffffff84008a0e:	fec717e3          	bne	a4,a2,ffffffff840089fc <invokeTCB_CopyRegisters+0x64>
ffffffff84008a12:	00017797          	auipc	a5,0x17
ffffffff84008a16:	e467b783          	ld	a5,-442(a5) # ffffffff8401f858 <ksCurThread>
ffffffff84008a1a:	02878363          	beq	a5,s0,ffffffff84008a40 <invokeTCB_CopyRegisters+0xa8>
ffffffff84008a1e:	4501                	li	a0,0
ffffffff84008a20:	70a2                	ld	ra,40(sp)
ffffffff84008a22:	7402                	ld	s0,32(sp)
ffffffff84008a24:	64e2                	ld	s1,24(sp)
ffffffff84008a26:	6942                	ld	s2,16(sp)
ffffffff84008a28:	69a2                	ld	s3,8(sp)
ffffffff84008a2a:	6a02                	ld	s4,0(sp)
ffffffff84008a2c:	6145                	addi	sp,sp,48
ffffffff84008a2e:	8082                	ret
ffffffff84008a30:	852e                	mv	a0,a1
ffffffff84008a32:	d83fc0ef          	jal	ra,ffffffff840057b4 <suspend>
ffffffff84008a36:	bfb5                	j	ffffffff840089b2 <invokeTCB_CopyRegisters+0x1a>
ffffffff84008a38:	8522                	mv	a0,s0
ffffffff84008a3a:	af8fd0ef          	jal	ra,ffffffff84005d32 <restart>
ffffffff84008a3e:	bfa5                	j	ffffffff840089b6 <invokeTCB_CopyRegisters+0x1e>
ffffffff84008a40:	fc5fb0ef          	jal	ra,ffffffff84004a04 <rescheduleRequired>
ffffffff84008a44:	bfe9                	j	ffffffff84008a1e <invokeTCB_CopyRegisters+0x86>

ffffffff84008a46 <decodeCopyRegisters>:
ffffffff84008a46:	7179                	addi	sp,sp,-48
ffffffff84008a48:	f406                	sd	ra,40(sp)
ffffffff84008a4a:	f022                	sd	s0,32(sp)
ffffffff84008a4c:	ec26                	sd	s1,24(sp)
ffffffff84008a4e:	e02a                	sd	a0,0(sp)
ffffffff84008a50:	e42e                	sd	a1,8(sp)
ffffffff84008a52:	ca2d                	beqz	a2,ffffffff84008ac4 <decodeCopyRegisters+0x7e>
ffffffff84008a54:	00005797          	auipc	a5,0x5
ffffffff84008a58:	e3c7b783          	ld	a5,-452(a5) # ffffffff8400d890 <current_extra_caps>
ffffffff84008a5c:	c7a5                	beqz	a5,ffffffff84008ac4 <decodeCopyRegisters+0x7e>
ffffffff84008a5e:	639c                	ld	a5,0(a5)
ffffffff84008a60:	03b7d693          	srli	a3,a5,0x3b
ffffffff84008a64:	4731                	li	a4,12
ffffffff84008a66:	06e69663          	bne	a3,a4,ffffffff84008ad2 <decodeCopyRegisters+0x8c>
ffffffff84008a6a:	01979593          	slli	a1,a5,0x19
ffffffff84008a6e:	81e5                	srli	a1,a1,0x19
ffffffff84008a70:	9399                	srli	a5,a5,0x26
ffffffff84008a72:	8b85                	andi	a5,a5,1
ffffffff84008a74:	c781                	beqz	a5,ffffffff84008a7c <decodeCopyRegisters+0x36>
ffffffff84008a76:	57fd                	li	a5,-1
ffffffff84008a78:	179e                	slli	a5,a5,0x27
ffffffff84008a7a:	8ddd                	or	a1,a1,a5
ffffffff84008a7c:	00017517          	auipc	a0,0x17
ffffffff84008a80:	ddc53503          	ld	a0,-548(a0) # ffffffff8401f858 <ksCurThread>
ffffffff84008a84:	6d24                	ld	s1,88(a0)
ffffffff84008a86:	842e                	mv	s0,a1
ffffffff84008a88:	4589                	li	a1,2
ffffffff84008a8a:	814fc0ef          	jal	ra,ffffffff84004a9e <setThreadState>
ffffffff84008a8e:	6782                	ld	a5,0(sp)
ffffffff84008a90:	01979513          	slli	a0,a5,0x19
ffffffff84008a94:	8165                	srli	a0,a0,0x19
ffffffff84008a96:	9399                	srli	a5,a5,0x26
ffffffff84008a98:	8b85                	andi	a5,a5,1
ffffffff84008a9a:	c781                	beqz	a5,ffffffff84008aa2 <decodeCopyRegisters+0x5c>
ffffffff84008a9c:	57fd                	li	a5,-1
ffffffff84008a9e:	179e                	slli	a5,a5,0x27
ffffffff84008aa0:	8d5d                	or	a0,a0,a5
ffffffff84008aa2:	4801                	li	a6,0
ffffffff84008aa4:	0084f793          	andi	a5,s1,8
ffffffff84008aa8:	0044f713          	andi	a4,s1,4
ffffffff84008aac:	0024f693          	andi	a3,s1,2
ffffffff84008ab0:	0014f613          	andi	a2,s1,1
ffffffff84008ab4:	85a2                	mv	a1,s0
ffffffff84008ab6:	ee3ff0ef          	jal	ra,ffffffff84008998 <invokeTCB_CopyRegisters>
ffffffff84008aba:	70a2                	ld	ra,40(sp)
ffffffff84008abc:	7402                	ld	s0,32(sp)
ffffffff84008abe:	64e2                	ld	s1,24(sp)
ffffffff84008ac0:	6145                	addi	sp,sp,48
ffffffff84008ac2:	8082                	ret
ffffffff84008ac4:	479d                	li	a5,7
ffffffff84008ac6:	00005717          	auipc	a4,0x5
ffffffff84008aca:	96f73d23          	sd	a5,-1670(a4) # ffffffff8400d440 <current_syscall_error+0x30>
ffffffff84008ace:	450d                	li	a0,3
ffffffff84008ad0:	b7ed                	j	ffffffff84008aba <decodeCopyRegisters+0x74>
ffffffff84008ad2:	00004797          	auipc	a5,0x4
ffffffff84008ad6:	52e78793          	addi	a5,a5,1326 # ffffffff8400d000 <riscvKSASIDTable>
ffffffff84008ada:	4709                	li	a4,2
ffffffff84008adc:	44e7b023          	sd	a4,1088(a5)
ffffffff84008ae0:	4705                	li	a4,1
ffffffff84008ae2:	40e7bc23          	sd	a4,1048(a5)
ffffffff84008ae6:	450d                	li	a0,3
ffffffff84008ae8:	bfc9                	j	ffffffff84008aba <decodeCopyRegisters+0x74>

ffffffff84008aea <invokeTCB_ReadRegisters>:
ffffffff84008aea:	7179                	addi	sp,sp,-48
ffffffff84008aec:	f406                	sd	ra,40(sp)
ffffffff84008aee:	f022                	sd	s0,32(sp)
ffffffff84008af0:	ec26                	sd	s1,24(sp)
ffffffff84008af2:	e84a                	sd	s2,16(sp)
ffffffff84008af4:	e44e                	sd	s3,8(sp)
ffffffff84008af6:	84aa                	mv	s1,a0
ffffffff84008af8:	8432                	mv	s0,a2
ffffffff84008afa:	89ba                	mv	s3,a4
ffffffff84008afc:	00017917          	auipc	s2,0x17
ffffffff84008b00:	d5c93903          	ld	s2,-676(s2) # ffffffff8401f858 <ksCurThread>
ffffffff84008b04:	edbd                	bnez	a1,ffffffff84008b82 <invokeTCB_ReadRegisters+0x98>
ffffffff84008b06:	08098e63          	beqz	s3,ffffffff84008ba2 <invokeTCB_ReadRegisters+0xb8>
ffffffff84008b0a:	85ca                	mv	a1,s2
ffffffff84008b0c:	4505                	li	a0,1
ffffffff84008b0e:	a5bf90ef          	jal	ra,ffffffff84002568 <lookupIPCBuffer>
ffffffff84008b12:	04093423          	sd	zero,72(s2)
ffffffff84008b16:	c06d                	beqz	s0,ffffffff84008bf8 <invokeTCB_ReadRegisters+0x10e>
ffffffff84008b18:	1084b783          	ld	a5,264(s1)
ffffffff84008b1c:	04f93c23          	sd	a5,88(s2)
ffffffff84008b20:	4785                	li	a5,1
ffffffff84008b22:	0687f363          	bgeu	a5,s0,ffffffff84008b88 <invokeTCB_ReadRegisters+0x9e>
ffffffff84008b26:	609c                	ld	a5,0(s1)
ffffffff84008b28:	06f93023          	sd	a5,96(s2)
ffffffff84008b2c:	4789                	li	a5,2
ffffffff84008b2e:	0887f663          	bgeu	a5,s0,ffffffff84008bba <invokeTCB_ReadRegisters+0xd0>
ffffffff84008b32:	649c                	ld	a5,8(s1)
ffffffff84008b34:	06f93423          	sd	a5,104(s2)
ffffffff84008b38:	478d                	li	a5,3
ffffffff84008b3a:	0887f263          	bgeu	a5,s0,ffffffff84008bbe <invokeTCB_ReadRegisters+0xd4>
ffffffff84008b3e:	689c                	ld	a5,16(s1)
ffffffff84008b40:	06f93823          	sd	a5,112(s2)
ffffffff84008b44:	4791                	li	a5,4
ffffffff84008b46:	4691                	li	a3,4
ffffffff84008b48:	0487f163          	bgeu	a5,s0,ffffffff84008b8a <invokeTCB_ReadRegisters+0xa0>
ffffffff84008b4c:	4691                	li	a3,4
ffffffff84008b4e:	c55d                	beqz	a0,ffffffff84008bfc <invokeTCB_ReadRegisters+0x112>
ffffffff84008b50:	0486f063          	bgeu	a3,s0,ffffffff84008b90 <invokeTCB_ReadRegisters+0xa6>
ffffffff84008b54:	00003617          	auipc	a2,0x3
ffffffff84008b58:	2b460613          	addi	a2,a2,692 # ffffffff8400be08 <frameRegisters>
ffffffff84008b5c:	9636                	add	a2,a2,a3
ffffffff84008b5e:	00369713          	slli	a4,a3,0x3
ffffffff84008b62:	972a                	add	a4,a4,a0
ffffffff84008b64:	45c1                	li	a1,16
ffffffff84008b66:	0685                	addi	a3,a3,1
ffffffff84008b68:	00064783          	lbu	a5,0(a2)
ffffffff84008b6c:	078e                	slli	a5,a5,0x3
ffffffff84008b6e:	97a6                	add	a5,a5,s1
ffffffff84008b70:	639c                	ld	a5,0(a5)
ffffffff84008b72:	e71c                	sd	a5,8(a4)
ffffffff84008b74:	0086fe63          	bgeu	a3,s0,ffffffff84008b90 <invokeTCB_ReadRegisters+0xa6>
ffffffff84008b78:	0605                	addi	a2,a2,1
ffffffff84008b7a:	0721                	addi	a4,a4,8
ffffffff84008b7c:	feb695e3          	bne	a3,a1,ffffffff84008b66 <invokeTCB_ReadRegisters+0x7c>
ffffffff84008b80:	a801                	j	ffffffff84008b90 <invokeTCB_ReadRegisters+0xa6>
ffffffff84008b82:	c33fc0ef          	jal	ra,ffffffff840057b4 <suspend>
ffffffff84008b86:	b741                	j	ffffffff84008b06 <invokeTCB_ReadRegisters+0x1c>
ffffffff84008b88:	4685                	li	a3,1
ffffffff84008b8a:	c92d                	beqz	a0,ffffffff84008bfc <invokeTCB_ReadRegisters+0x112>
ffffffff84008b8c:	fc86e2e3          	bltu	a3,s0,ffffffff84008b50 <invokeTCB_ReadRegisters+0x66>
ffffffff84008b90:	47c1                	li	a5,16
ffffffff84008b92:	0287ea63          	bltu	a5,s0,ffffffff84008bc6 <invokeTCB_ReadRegisters+0xdc>
ffffffff84008b96:	4781                	li	a5,0
ffffffff84008b98:	97b6                	add	a5,a5,a3
ffffffff84008b9a:	07f7f793          	andi	a5,a5,127
ffffffff84008b9e:	04f93823          	sd	a5,80(s2)
ffffffff84008ba2:	4585                	li	a1,1
ffffffff84008ba4:	854a                	mv	a0,s2
ffffffff84008ba6:	ef9fb0ef          	jal	ra,ffffffff84004a9e <setThreadState>
ffffffff84008baa:	4501                	li	a0,0
ffffffff84008bac:	70a2                	ld	ra,40(sp)
ffffffff84008bae:	7402                	ld	s0,32(sp)
ffffffff84008bb0:	64e2                	ld	s1,24(sp)
ffffffff84008bb2:	6942                	ld	s2,16(sp)
ffffffff84008bb4:	69a2                	ld	s3,8(sp)
ffffffff84008bb6:	6145                	addi	sp,sp,48
ffffffff84008bb8:	8082                	ret
ffffffff84008bba:	4689                	li	a3,2
ffffffff84008bbc:	b7f9                	j	ffffffff84008b8a <invokeTCB_ReadRegisters+0xa0>
ffffffff84008bbe:	468d                	li	a3,3
ffffffff84008bc0:	b7e9                	j	ffffffff84008b8a <invokeTCB_ReadRegisters+0xa0>
ffffffff84008bc2:	87a2                	mv	a5,s0
ffffffff84008bc4:	bfd1                	j	ffffffff84008b98 <invokeTCB_ReadRegisters+0xae>
ffffffff84008bc6:	64bc                	ld	a5,72(s1)
ffffffff84008bc8:	e55c                	sd	a5,136(a0)
ffffffff84008bca:	00003597          	auipc	a1,0x3
ffffffff84008bce:	24f58593          	addi	a1,a1,591 # ffffffff8400be19 <gpRegisters+0x1>
ffffffff84008bd2:	09050513          	addi	a0,a0,144
ffffffff84008bd6:	1441                	addi	s0,s0,-16
ffffffff84008bd8:	4785                	li	a5,1
ffffffff84008bda:	4641                	li	a2,16
ffffffff84008bdc:	fe8783e3          	beq	a5,s0,ffffffff84008bc2 <invokeTCB_ReadRegisters+0xd8>
ffffffff84008be0:	0005c703          	lbu	a4,0(a1)
ffffffff84008be4:	070e                	slli	a4,a4,0x3
ffffffff84008be6:	9726                	add	a4,a4,s1
ffffffff84008be8:	6318                	ld	a4,0(a4)
ffffffff84008bea:	e118                	sd	a4,0(a0)
ffffffff84008bec:	0785                	addi	a5,a5,1
ffffffff84008bee:	0585                	addi	a1,a1,1
ffffffff84008bf0:	0521                	addi	a0,a0,8
ffffffff84008bf2:	fec795e3          	bne	a5,a2,ffffffff84008bdc <invokeTCB_ReadRegisters+0xf2>
ffffffff84008bf6:	b74d                	j	ffffffff84008b98 <invokeTCB_ReadRegisters+0xae>
ffffffff84008bf8:	86a2                	mv	a3,s0
ffffffff84008bfa:	f959                	bnez	a0,ffffffff84008b90 <invokeTCB_ReadRegisters+0xa6>
ffffffff84008bfc:	4781                	li	a5,0
ffffffff84008bfe:	bf69                	j	ffffffff84008b98 <invokeTCB_ReadRegisters+0xae>

ffffffff84008c00 <decodeReadRegisters>:
ffffffff84008c00:	7139                	addi	sp,sp,-64
ffffffff84008c02:	fc06                	sd	ra,56(sp)
ffffffff84008c04:	f822                	sd	s0,48(sp)
ffffffff84008c06:	f426                	sd	s1,40(sp)
ffffffff84008c08:	f04a                	sd	s2,32(sp)
ffffffff84008c0a:	ec4e                	sd	s3,24(sp)
ffffffff84008c0c:	e02a                	sd	a0,0(sp)
ffffffff84008c0e:	e42e                	sd	a1,8(sp)
ffffffff84008c10:	4785                	li	a5,1
ffffffff84008c12:	04c7fd63          	bgeu	a5,a2,ffffffff84008c6c <decodeReadRegisters+0x6c>
ffffffff84008c16:	8936                	mv	s2,a3
ffffffff84008c18:	00017517          	auipc	a0,0x17
ffffffff84008c1c:	c4053503          	ld	a0,-960(a0) # ffffffff8401f858 <ksCurThread>
ffffffff84008c20:	7124                	ld	s1,96(a0)
ffffffff84008c22:	fff48713          	addi	a4,s1,-1
ffffffff84008c26:	47fd                	li	a5,31
ffffffff84008c28:	04e7e963          	bltu	a5,a4,ffffffff84008c7a <decodeReadRegisters+0x7a>
ffffffff84008c2c:	6782                	ld	a5,0(sp)
ffffffff84008c2e:	01979413          	slli	s0,a5,0x19
ffffffff84008c32:	8065                	srli	s0,s0,0x19
ffffffff84008c34:	9399                	srli	a5,a5,0x26
ffffffff84008c36:	8b85                	andi	a5,a5,1
ffffffff84008c38:	c781                	beqz	a5,ffffffff84008c40 <decodeReadRegisters+0x40>
ffffffff84008c3a:	57fd                	li	a5,-1
ffffffff84008c3c:	179e                	slli	a5,a5,0x27
ffffffff84008c3e:	8c5d                	or	s0,s0,a5
ffffffff84008c40:	04850d63          	beq	a0,s0,ffffffff84008c9a <decodeReadRegisters+0x9a>
ffffffff84008c44:	05853983          	ld	s3,88(a0)
ffffffff84008c48:	4589                	li	a1,2
ffffffff84008c4a:	e55fb0ef          	jal	ra,ffffffff84004a9e <setThreadState>
ffffffff84008c4e:	874a                	mv	a4,s2
ffffffff84008c50:	4681                	li	a3,0
ffffffff84008c52:	8626                	mv	a2,s1
ffffffff84008c54:	0019f593          	andi	a1,s3,1
ffffffff84008c58:	8522                	mv	a0,s0
ffffffff84008c5a:	e91ff0ef          	jal	ra,ffffffff84008aea <invokeTCB_ReadRegisters>
ffffffff84008c5e:	70e2                	ld	ra,56(sp)
ffffffff84008c60:	7442                	ld	s0,48(sp)
ffffffff84008c62:	74a2                	ld	s1,40(sp)
ffffffff84008c64:	7902                	ld	s2,32(sp)
ffffffff84008c66:	69e2                	ld	s3,24(sp)
ffffffff84008c68:	6121                	addi	sp,sp,64
ffffffff84008c6a:	8082                	ret
ffffffff84008c6c:	479d                	li	a5,7
ffffffff84008c6e:	00004717          	auipc	a4,0x4
ffffffff84008c72:	7cf73923          	sd	a5,2002(a4) # ffffffff8400d440 <current_syscall_error+0x30>
ffffffff84008c76:	450d                	li	a0,3
ffffffff84008c78:	b7dd                	j	ffffffff84008c5e <decodeReadRegisters+0x5e>
ffffffff84008c7a:	00004797          	auipc	a5,0x4
ffffffff84008c7e:	38678793          	addi	a5,a5,902 # ffffffff8400d000 <riscvKSASIDTable>
ffffffff84008c82:	4711                	li	a4,4
ffffffff84008c84:	44e7b023          	sd	a4,1088(a5)
ffffffff84008c88:	4705                	li	a4,1
ffffffff84008c8a:	42e7b023          	sd	a4,1056(a5)
ffffffff84008c8e:	02000713          	li	a4,32
ffffffff84008c92:	42e7b423          	sd	a4,1064(a5)
ffffffff84008c96:	450d                	li	a0,3
ffffffff84008c98:	b7d9                	j	ffffffff84008c5e <decodeReadRegisters+0x5e>
ffffffff84008c9a:	478d                	li	a5,3
ffffffff84008c9c:	00004717          	auipc	a4,0x4
ffffffff84008ca0:	7af73223          	sd	a5,1956(a4) # ffffffff8400d440 <current_syscall_error+0x30>
ffffffff84008ca4:	450d                	li	a0,3
ffffffff84008ca6:	bf65                	j	ffffffff84008c5e <decodeReadRegisters+0x5e>

ffffffff84008ca8 <invokeTCB_WriteRegisters>:
ffffffff84008ca8:	1141                	addi	sp,sp,-16
ffffffff84008caa:	e406                	sd	ra,8(sp)
ffffffff84008cac:	e022                	sd	s0,0(sp)
ffffffff84008cae:	842a                	mv	s0,a0
ffffffff84008cb0:	88b2                	mv	a7,a2
ffffffff84008cb2:	02000793          	li	a5,32
ffffffff84008cb6:	00c7f463          	bgeu	a5,a2,ffffffff84008cbe <invokeTCB_WriteRegisters+0x16>
ffffffff84008cba:	02000893          	li	a7,32
ffffffff84008cbe:	ca45                	beqz	a2,ffffffff84008d6e <invokeTCB_WriteRegisters+0xc6>
ffffffff84008cc0:	00003517          	auipc	a0,0x3
ffffffff84008cc4:	14850513          	addi	a0,a0,328 # ffffffff8400be08 <frameRegisters>
ffffffff84008cc8:	01870813          	addi	a6,a4,24
ffffffff84008ccc:	4681                	li	a3,0
ffffffff84008cce:	4e8d                	li	t4,3
ffffffff84008cd0:	4f41                	li	t5,16
ffffffff84008cd2:	00017297          	auipc	t0,0x17
ffffffff84008cd6:	b8628293          	addi	t0,t0,-1146 # ffffffff8401f858 <ksCurThread>
ffffffff84008cda:	00003f97          	auipc	t6,0x3
ffffffff84008cde:	c4ef8f93          	addi	t6,t6,-946 # ffffffff8400b928 <msgRegisters>
ffffffff84008ce2:	a025                	j	ffffffff84008d0a <invokeTCB_WriteRegisters+0x62>
ffffffff84008ce4:	0002b303          	ld	t1,0(t0)
ffffffff84008ce8:	01f68e33          	add	t3,a3,t6
ffffffff84008cec:	002e4e03          	lbu	t3,2(t3)
ffffffff84008cf0:	0e0e                	slli	t3,t3,0x3
ffffffff84008cf2:	9372                	add	t1,t1,t3
ffffffff84008cf4:	00033303          	ld	t1,0(t1)
ffffffff84008cf8:	078e                	slli	a5,a5,0x3
ffffffff84008cfa:	97a2                	add	a5,a5,s0
ffffffff84008cfc:	0067b023          	sd	t1,0(a5)
ffffffff84008d00:	0685                	addi	a3,a3,1
ffffffff84008d02:	0505                	addi	a0,a0,1
ffffffff84008d04:	0821                	addi	a6,a6,8
ffffffff84008d06:	0316f163          	bgeu	a3,a7,ffffffff84008d28 <invokeTCB_WriteRegisters+0x80>
ffffffff84008d0a:	00054783          	lbu	a5,0(a0)
ffffffff84008d0e:	00268313          	addi	t1,a3,2
ffffffff84008d12:	fc6ef9e3          	bgeu	t4,t1,ffffffff84008ce4 <invokeTCB_WriteRegisters+0x3c>
ffffffff84008d16:	00083303          	ld	t1,0(a6)
ffffffff84008d1a:	078e                	slli	a5,a5,0x3
ffffffff84008d1c:	97a2                	add	a5,a5,s0
ffffffff84008d1e:	0067b023          	sd	t1,0(a5)
ffffffff84008d22:	0685                	addi	a3,a3,1
ffffffff84008d24:	fde69fe3          	bne	a3,t5,ffffffff84008d02 <invokeTCB_WriteRegisters+0x5a>
ffffffff84008d28:	47c1                	li	a5,16
ffffffff84008d2a:	04c7f263          	bgeu	a5,a2,ffffffff84008d6e <invokeTCB_WriteRegisters+0xc6>
ffffffff84008d2e:	09870693          	addi	a3,a4,152
ffffffff84008d32:	00003717          	auipc	a4,0x3
ffffffff84008d36:	0e770713          	addi	a4,a4,231 # ffffffff8400be19 <gpRegisters+0x1>
ffffffff84008d3a:	00003817          	auipc	a6,0x3
ffffffff84008d3e:	0ee80813          	addi	a6,a6,238 # ffffffff8400be28 <gpRegisters+0x10>
ffffffff84008d42:	47a5                	li	a5,9
ffffffff84008d44:	00003617          	auipc	a2,0x3
ffffffff84008d48:	0d460613          	addi	a2,a2,212 # ffffffff8400be18 <gpRegisters>
ffffffff84008d4c:	4541                	li	a0,16
ffffffff84008d4e:	8d11                	sub	a0,a0,a2
ffffffff84008d50:	a021                	j	ffffffff84008d58 <invokeTCB_WriteRegisters+0xb0>
ffffffff84008d52:	00074783          	lbu	a5,0(a4)
ffffffff84008d56:	0705                	addi	a4,a4,1
ffffffff84008d58:	6290                	ld	a2,0(a3)
ffffffff84008d5a:	078e                	slli	a5,a5,0x3
ffffffff84008d5c:	97a2                	add	a5,a5,s0
ffffffff84008d5e:	e390                	sd	a2,0(a5)
ffffffff84008d60:	00e80763          	beq	a6,a4,ffffffff84008d6e <invokeTCB_WriteRegisters+0xc6>
ffffffff84008d64:	06a1                	addi	a3,a3,8
ffffffff84008d66:	00e507b3          	add	a5,a0,a4
ffffffff84008d6a:	ff17e4e3          	bltu	a5,a7,ffffffff84008d52 <invokeTCB_WriteRegisters+0xaa>
ffffffff84008d6e:	10843783          	ld	a5,264(s0)
ffffffff84008d72:	10f43823          	sd	a5,272(s0)
ffffffff84008d76:	ed81                	bnez	a1,ffffffff84008d8e <invokeTCB_WriteRegisters+0xe6>
ffffffff84008d78:	00017797          	auipc	a5,0x17
ffffffff84008d7c:	ae07b783          	ld	a5,-1312(a5) # ffffffff8401f858 <ksCurThread>
ffffffff84008d80:	00878b63          	beq	a5,s0,ffffffff84008d96 <invokeTCB_WriteRegisters+0xee>
ffffffff84008d84:	4501                	li	a0,0
ffffffff84008d86:	60a2                	ld	ra,8(sp)
ffffffff84008d88:	6402                	ld	s0,0(sp)
ffffffff84008d8a:	0141                	addi	sp,sp,16
ffffffff84008d8c:	8082                	ret
ffffffff84008d8e:	8522                	mv	a0,s0
ffffffff84008d90:	fa3fc0ef          	jal	ra,ffffffff84005d32 <restart>
ffffffff84008d94:	b7d5                	j	ffffffff84008d78 <invokeTCB_WriteRegisters+0xd0>
ffffffff84008d96:	c6ffb0ef          	jal	ra,ffffffff84004a04 <rescheduleRequired>
ffffffff84008d9a:	b7ed                	j	ffffffff84008d84 <invokeTCB_WriteRegisters+0xdc>

ffffffff84008d9c <decodeWriteRegisters>:
ffffffff84008d9c:	7139                	addi	sp,sp,-64
ffffffff84008d9e:	fc06                	sd	ra,56(sp)
ffffffff84008da0:	f822                	sd	s0,48(sp)
ffffffff84008da2:	f426                	sd	s1,40(sp)
ffffffff84008da4:	f04a                	sd	s2,32(sp)
ffffffff84008da6:	ec4e                	sd	s3,24(sp)
ffffffff84008da8:	e02a                	sd	a0,0(sp)
ffffffff84008daa:	e42e                	sd	a1,8(sp)
ffffffff84008dac:	4785                	li	a5,1
ffffffff84008dae:	04c7fc63          	bgeu	a5,a2,ffffffff84008e06 <decodeWriteRegisters+0x6a>
ffffffff84008db2:	84b6                	mv	s1,a3
ffffffff84008db4:	00017517          	auipc	a0,0x17
ffffffff84008db8:	aa453503          	ld	a0,-1372(a0) # ffffffff8401f858 <ksCurThread>
ffffffff84008dbc:	06053903          	ld	s2,96(a0)
ffffffff84008dc0:	1679                	addi	a2,a2,-2
ffffffff84008dc2:	05266963          	bltu	a2,s2,ffffffff84008e14 <decodeWriteRegisters+0x78>
ffffffff84008dc6:	6782                	ld	a5,0(sp)
ffffffff84008dc8:	01979413          	slli	s0,a5,0x19
ffffffff84008dcc:	8065                	srli	s0,s0,0x19
ffffffff84008dce:	9399                	srli	a5,a5,0x26
ffffffff84008dd0:	8b85                	andi	a5,a5,1
ffffffff84008dd2:	c781                	beqz	a5,ffffffff84008dda <decodeWriteRegisters+0x3e>
ffffffff84008dd4:	57fd                	li	a5,-1
ffffffff84008dd6:	179e                	slli	a5,a5,0x27
ffffffff84008dd8:	8c5d                	or	s0,s0,a5
ffffffff84008dda:	04850463          	beq	a0,s0,ffffffff84008e22 <decodeWriteRegisters+0x86>
ffffffff84008dde:	05853983          	ld	s3,88(a0)
ffffffff84008de2:	4589                	li	a1,2
ffffffff84008de4:	cbbfb0ef          	jal	ra,ffffffff84004a9e <setThreadState>
ffffffff84008de8:	8726                	mv	a4,s1
ffffffff84008dea:	4681                	li	a3,0
ffffffff84008dec:	864a                	mv	a2,s2
ffffffff84008dee:	0019f593          	andi	a1,s3,1
ffffffff84008df2:	8522                	mv	a0,s0
ffffffff84008df4:	eb5ff0ef          	jal	ra,ffffffff84008ca8 <invokeTCB_WriteRegisters>
ffffffff84008df8:	70e2                	ld	ra,56(sp)
ffffffff84008dfa:	7442                	ld	s0,48(sp)
ffffffff84008dfc:	74a2                	ld	s1,40(sp)
ffffffff84008dfe:	7902                	ld	s2,32(sp)
ffffffff84008e00:	69e2                	ld	s3,24(sp)
ffffffff84008e02:	6121                	addi	sp,sp,64
ffffffff84008e04:	8082                	ret
ffffffff84008e06:	479d                	li	a5,7
ffffffff84008e08:	00004717          	auipc	a4,0x4
ffffffff84008e0c:	62f73c23          	sd	a5,1592(a4) # ffffffff8400d440 <current_syscall_error+0x30>
ffffffff84008e10:	450d                	li	a0,3
ffffffff84008e12:	b7dd                	j	ffffffff84008df8 <decodeWriteRegisters+0x5c>
ffffffff84008e14:	479d                	li	a5,7
ffffffff84008e16:	00004717          	auipc	a4,0x4
ffffffff84008e1a:	62f73523          	sd	a5,1578(a4) # ffffffff8400d440 <current_syscall_error+0x30>
ffffffff84008e1e:	450d                	li	a0,3
ffffffff84008e20:	bfe1                	j	ffffffff84008df8 <decodeWriteRegisters+0x5c>
ffffffff84008e22:	478d                	li	a5,3
ffffffff84008e24:	00004717          	auipc	a4,0x4
ffffffff84008e28:	60f73e23          	sd	a5,1564(a4) # ffffffff8400d440 <current_syscall_error+0x30>
ffffffff84008e2c:	450d                	li	a0,3
ffffffff84008e2e:	b7e9                	j	ffffffff84008df8 <decodeWriteRegisters+0x5c>

ffffffff84008e30 <invokeTCB_NotificationControl>:
ffffffff84008e30:	1141                	addi	sp,sp,-16
ffffffff84008e32:	e406                	sd	ra,8(sp)
ffffffff84008e34:	c599                	beqz	a1,ffffffff84008e42 <invokeTCB_NotificationControl+0x12>
ffffffff84008e36:	ee1fa0ef          	jal	ra,ffffffff84003d16 <bindNotification>
ffffffff84008e3a:	4501                	li	a0,0
ffffffff84008e3c:	60a2                	ld	ra,8(sp)
ffffffff84008e3e:	0141                	addi	sp,sp,16
ffffffff84008e40:	8082                	ret
ffffffff84008e42:	ec1fa0ef          	jal	ra,ffffffff84003d02 <unbindNotification>
ffffffff84008e46:	bfd5                	j	ffffffff84008e3a <invokeTCB_NotificationControl+0xa>

ffffffff84008e48 <decodeBindNotification>:
ffffffff84008e48:	7179                	addi	sp,sp,-48
ffffffff84008e4a:	f406                	sd	ra,40(sp)
ffffffff84008e4c:	f022                	sd	s0,32(sp)
ffffffff84008e4e:	ec26                	sd	s1,24(sp)
ffffffff84008e50:	e02a                	sd	a0,0(sp)
ffffffff84008e52:	e42e                	sd	a1,8(sp)
ffffffff84008e54:	00005697          	auipc	a3,0x5
ffffffff84008e58:	a3c6b683          	ld	a3,-1476(a3) # ffffffff8400d890 <current_extra_caps>
ffffffff84008e5c:	cea9                	beqz	a3,ffffffff84008eb6 <decodeBindNotification+0x6e>
ffffffff84008e5e:	6782                	ld	a5,0(sp)
ffffffff84008e60:	01979713          	slli	a4,a5,0x19
ffffffff84008e64:	8365                	srli	a4,a4,0x19
ffffffff84008e66:	9399                	srli	a5,a5,0x26
ffffffff84008e68:	8b85                	andi	a5,a5,1
ffffffff84008e6a:	c781                	beqz	a5,ffffffff84008e72 <decodeBindNotification+0x2a>
ffffffff84008e6c:	57fd                	li	a5,-1
ffffffff84008e6e:	179e                	slli	a5,a5,0x27
ffffffff84008e70:	8f5d                	or	a4,a4,a5
ffffffff84008e72:	843a                	mv	s0,a4
ffffffff84008e74:	13073783          	ld	a5,304(a4)
ffffffff84008e78:	e7b1                	bnez	a5,ffffffff84008ec4 <decodeBindNotification+0x7c>
ffffffff84008e7a:	629c                	ld	a5,0(a3)
ffffffff84008e7c:	03b7d693          	srli	a3,a5,0x3b
ffffffff84008e80:	4719                	li	a4,6
ffffffff84008e82:	04e69c63          	bne	a3,a4,ffffffff84008eda <decodeBindNotification+0x92>
ffffffff84008e86:	01979713          	slli	a4,a5,0x19
ffffffff84008e8a:	8365                	srli	a4,a4,0x19
ffffffff84008e8c:	0267d693          	srli	a3,a5,0x26
ffffffff84008e90:	8a85                	andi	a3,a3,1
ffffffff84008e92:	c681                	beqz	a3,ffffffff84008e9a <decodeBindNotification+0x52>
ffffffff84008e94:	56fd                	li	a3,-1
ffffffff84008e96:	169e                	slli	a3,a3,0x27
ffffffff84008e98:	8f55                	or	a4,a4,a3
ffffffff84008e9a:	84ba                	mv	s1,a4
ffffffff84008e9c:	93e9                	srli	a5,a5,0x3a
ffffffff84008e9e:	8b85                	andi	a5,a5,1
ffffffff84008ea0:	c7a1                	beqz	a5,ffffffff84008ee8 <decodeBindNotification+0xa0>
ffffffff84008ea2:	671c                	ld	a5,8(a4)
ffffffff84008ea4:	07e6                	slli	a5,a5,0x19
ffffffff84008ea6:	cba1                	beqz	a5,ffffffff84008ef6 <decodeBindNotification+0xae>
ffffffff84008ea8:	478d                	li	a5,3
ffffffff84008eaa:	00004717          	auipc	a4,0x4
ffffffff84008eae:	58f73b23          	sd	a5,1430(a4) # ffffffff8400d440 <current_syscall_error+0x30>
ffffffff84008eb2:	450d                	li	a0,3
ffffffff84008eb4:	a831                	j	ffffffff84008ed0 <decodeBindNotification+0x88>
ffffffff84008eb6:	479d                	li	a5,7
ffffffff84008eb8:	00004717          	auipc	a4,0x4
ffffffff84008ebc:	58f73423          	sd	a5,1416(a4) # ffffffff8400d440 <current_syscall_error+0x30>
ffffffff84008ec0:	450d                	li	a0,3
ffffffff84008ec2:	a039                	j	ffffffff84008ed0 <decodeBindNotification+0x88>
ffffffff84008ec4:	478d                	li	a5,3
ffffffff84008ec6:	00004717          	auipc	a4,0x4
ffffffff84008eca:	56f73d23          	sd	a5,1402(a4) # ffffffff8400d440 <current_syscall_error+0x30>
ffffffff84008ece:	450d                	li	a0,3
ffffffff84008ed0:	70a2                	ld	ra,40(sp)
ffffffff84008ed2:	7402                	ld	s0,32(sp)
ffffffff84008ed4:	64e2                	ld	s1,24(sp)
ffffffff84008ed6:	6145                	addi	sp,sp,48
ffffffff84008ed8:	8082                	ret
ffffffff84008eda:	478d                	li	a5,3
ffffffff84008edc:	00004717          	auipc	a4,0x4
ffffffff84008ee0:	56f73223          	sd	a5,1380(a4) # ffffffff8400d440 <current_syscall_error+0x30>
ffffffff84008ee4:	450d                	li	a0,3
ffffffff84008ee6:	b7ed                	j	ffffffff84008ed0 <decodeBindNotification+0x88>
ffffffff84008ee8:	478d                	li	a5,3
ffffffff84008eea:	00004717          	auipc	a4,0x4
ffffffff84008eee:	54f73b23          	sd	a5,1366(a4) # ffffffff8400d440 <current_syscall_error+0x30>
ffffffff84008ef2:	450d                	li	a0,3
ffffffff84008ef4:	bff1                	j	ffffffff84008ed0 <decodeBindNotification+0x88>
ffffffff84008ef6:	6f1c                	ld	a5,24(a4)
ffffffff84008ef8:	07e6                	slli	a5,a5,0x19
ffffffff84008efa:	f7dd                	bnez	a5,ffffffff84008ea8 <decodeBindNotification+0x60>
ffffffff84008efc:	4589                	li	a1,2
ffffffff84008efe:	00017517          	auipc	a0,0x17
ffffffff84008f02:	95a53503          	ld	a0,-1702(a0) # ffffffff8401f858 <ksCurThread>
ffffffff84008f06:	b99fb0ef          	jal	ra,ffffffff84004a9e <setThreadState>
ffffffff84008f0a:	85a6                	mv	a1,s1
ffffffff84008f0c:	8522                	mv	a0,s0
ffffffff84008f0e:	f23ff0ef          	jal	ra,ffffffff84008e30 <invokeTCB_NotificationControl>
ffffffff84008f12:	bf7d                	j	ffffffff84008ed0 <decodeBindNotification+0x88>

ffffffff84008f14 <decodeUnbindNotification>:
ffffffff84008f14:	1101                	addi	sp,sp,-32
ffffffff84008f16:	ec06                	sd	ra,24(sp)
ffffffff84008f18:	e822                	sd	s0,16(sp)
ffffffff84008f1a:	e02a                	sd	a0,0(sp)
ffffffff84008f1c:	e42e                	sd	a1,8(sp)
ffffffff84008f1e:	01951413          	slli	s0,a0,0x19
ffffffff84008f22:	8065                	srli	s0,s0,0x19
ffffffff84008f24:	9119                	srli	a0,a0,0x26
ffffffff84008f26:	8905                	andi	a0,a0,1
ffffffff84008f28:	c501                	beqz	a0,ffffffff84008f30 <decodeUnbindNotification+0x1c>
ffffffff84008f2a:	57fd                	li	a5,-1
ffffffff84008f2c:	179e                	slli	a5,a5,0x27
ffffffff84008f2e:	8c5d                	or	s0,s0,a5
ffffffff84008f30:	13043783          	ld	a5,304(s0)
ffffffff84008f34:	c385                	beqz	a5,ffffffff84008f54 <decodeUnbindNotification+0x40>
ffffffff84008f36:	4589                	li	a1,2
ffffffff84008f38:	00017517          	auipc	a0,0x17
ffffffff84008f3c:	92053503          	ld	a0,-1760(a0) # ffffffff8401f858 <ksCurThread>
ffffffff84008f40:	b5ffb0ef          	jal	ra,ffffffff84004a9e <setThreadState>
ffffffff84008f44:	4581                	li	a1,0
ffffffff84008f46:	8522                	mv	a0,s0
ffffffff84008f48:	ee9ff0ef          	jal	ra,ffffffff84008e30 <invokeTCB_NotificationControl>
ffffffff84008f4c:	60e2                	ld	ra,24(sp)
ffffffff84008f4e:	6442                	ld	s0,16(sp)
ffffffff84008f50:	6105                	addi	sp,sp,32
ffffffff84008f52:	8082                	ret
ffffffff84008f54:	478d                	li	a5,3
ffffffff84008f56:	00004717          	auipc	a4,0x4
ffffffff84008f5a:	4ef73523          	sd	a5,1258(a4) # ffffffff8400d440 <current_syscall_error+0x30>
ffffffff84008f5e:	450d                	li	a0,3
ffffffff84008f60:	b7f5                	j	ffffffff84008f4c <decodeUnbindNotification+0x38>

ffffffff84008f62 <decodeTCBInvocation>:
ffffffff84008f62:	7179                	addi	sp,sp,-48
ffffffff84008f64:	f406                	sd	ra,40(sp)
ffffffff84008f66:	f022                	sd	s0,32(sp)
ffffffff84008f68:	ec26                	sd	s1,24(sp)
ffffffff84008f6a:	e032                	sd	a2,0(sp)
ffffffff84008f6c:	e436                	sd	a3,8(sp)
ffffffff84008f6e:	86ba                	mv	a3,a4
ffffffff84008f70:	4741                	li	a4,16
ffffffff84008f72:	16a76063          	bltu	a4,a0,ffffffff840090d2 <decodeTCBInvocation+0x170>
ffffffff84008f76:	8432                	mv	s0,a2
ffffffff84008f78:	050a                	slli	a0,a0,0x2
ffffffff84008f7a:	00003717          	auipc	a4,0x3
ffffffff84008f7e:	ca270713          	addi	a4,a4,-862 # ffffffff8400bc1c <msgRegisters+0x2f4>
ffffffff84008f82:	953a                	add	a0,a0,a4
ffffffff84008f84:	4108                	lw	a0,0(a0)
ffffffff84008f86:	953a                	add	a0,a0,a4
ffffffff84008f88:	8502                	jr	a0
ffffffff84008f8a:	8742                	mv	a4,a6
ffffffff84008f8c:	86be                	mv	a3,a5
ffffffff84008f8e:	862e                	mv	a2,a1
ffffffff84008f90:	6502                	ld	a0,0(sp)
ffffffff84008f92:	65a2                	ld	a1,8(sp)
ffffffff84008f94:	c6dff0ef          	jal	ra,ffffffff84008c00 <decodeReadRegisters>
ffffffff84008f98:	70a2                	ld	ra,40(sp)
ffffffff84008f9a:	7402                	ld	s0,32(sp)
ffffffff84008f9c:	64e2                	ld	s1,24(sp)
ffffffff84008f9e:	6145                	addi	sp,sp,48
ffffffff84008fa0:	8082                	ret
ffffffff84008fa2:	86c2                	mv	a3,a6
ffffffff84008fa4:	862e                	mv	a2,a1
ffffffff84008fa6:	6502                	ld	a0,0(sp)
ffffffff84008fa8:	65a2                	ld	a1,8(sp)
ffffffff84008faa:	df3ff0ef          	jal	ra,ffffffff84008d9c <decodeWriteRegisters>
ffffffff84008fae:	b7ed                	j	ffffffff84008f98 <decodeTCBInvocation+0x36>
ffffffff84008fb0:	86c2                	mv	a3,a6
ffffffff84008fb2:	862e                	mv	a2,a1
ffffffff84008fb4:	6502                	ld	a0,0(sp)
ffffffff84008fb6:	65a2                	ld	a1,8(sp)
ffffffff84008fb8:	a8fff0ef          	jal	ra,ffffffff84008a46 <decodeCopyRegisters>
ffffffff84008fbc:	bff1                	j	ffffffff84008f98 <decodeTCBInvocation+0x36>
ffffffff84008fbe:	4589                	li	a1,2
ffffffff84008fc0:	00017517          	auipc	a0,0x17
ffffffff84008fc4:	89853503          	ld	a0,-1896(a0) # ffffffff8401f858 <ksCurThread>
ffffffff84008fc8:	ad7fb0ef          	jal	ra,ffffffff84004a9e <setThreadState>
ffffffff84008fcc:	01941513          	slli	a0,s0,0x19
ffffffff84008fd0:	8165                	srli	a0,a0,0x19
ffffffff84008fd2:	02645613          	srli	a2,s0,0x26
ffffffff84008fd6:	8a05                	andi	a2,a2,1
ffffffff84008fd8:	c601                	beqz	a2,ffffffff84008fe0 <decodeTCBInvocation+0x7e>
ffffffff84008fda:	57fd                	li	a5,-1
ffffffff84008fdc:	179e                	slli	a5,a5,0x27
ffffffff84008fde:	8d5d                	or	a0,a0,a5
ffffffff84008fe0:	fd4fc0ef          	jal	ra,ffffffff840057b4 <suspend>
ffffffff84008fe4:	4501                	li	a0,0
ffffffff84008fe6:	bf4d                	j	ffffffff84008f98 <decodeTCBInvocation+0x36>
ffffffff84008fe8:	4589                	li	a1,2
ffffffff84008fea:	00017517          	auipc	a0,0x17
ffffffff84008fee:	86e53503          	ld	a0,-1938(a0) # ffffffff8401f858 <ksCurThread>
ffffffff84008ff2:	aadfb0ef          	jal	ra,ffffffff84004a9e <setThreadState>
ffffffff84008ff6:	01941513          	slli	a0,s0,0x19
ffffffff84008ffa:	8165                	srli	a0,a0,0x19
ffffffff84008ffc:	02645613          	srli	a2,s0,0x26
ffffffff84009000:	8a05                	andi	a2,a2,1
ffffffff84009002:	c601                	beqz	a2,ffffffff8400900a <decodeTCBInvocation+0xa8>
ffffffff84009004:	57fd                	li	a5,-1
ffffffff84009006:	179e                	slli	a5,a5,0x27
ffffffff84009008:	8d5d                	or	a0,a0,a5
ffffffff8400900a:	d29fc0ef          	jal	ra,ffffffff84005d32 <restart>
ffffffff8400900e:	4501                	li	a0,0
ffffffff84009010:	b761                	j	ffffffff84008f98 <decodeTCBInvocation+0x36>
ffffffff84009012:	8742                	mv	a4,a6
ffffffff84009014:	862e                	mv	a2,a1
ffffffff84009016:	6502                	ld	a0,0(sp)
ffffffff84009018:	65a2                	ld	a1,8(sp)
ffffffff8400901a:	8bcff0ef          	jal	ra,ffffffff840080d6 <decodeTCBConfigure>
ffffffff8400901e:	bfad                	j	ffffffff84008f98 <decodeTCBInvocation+0x36>
ffffffff84009020:	86c2                	mv	a3,a6
ffffffff84009022:	862e                	mv	a2,a1
ffffffff84009024:	6502                	ld	a0,0(sp)
ffffffff84009026:	65a2                	ld	a1,8(sp)
ffffffff84009028:	e30ff0ef          	jal	ra,ffffffff84008658 <decodeSetPriority>
ffffffff8400902c:	b7b5                	j	ffffffff84008f98 <decodeTCBInvocation+0x36>
ffffffff8400902e:	86c2                	mv	a3,a6
ffffffff84009030:	862e                	mv	a2,a1
ffffffff84009032:	6502                	ld	a0,0(sp)
ffffffff84009034:	65a2                	ld	a1,8(sp)
ffffffff84009036:	ee0ff0ef          	jal	ra,ffffffff84008716 <decodeSetMCPriority>
ffffffff8400903a:	bfb9                	j	ffffffff84008f98 <decodeTCBInvocation+0x36>
ffffffff8400903c:	8742                	mv	a4,a6
ffffffff8400903e:	862e                	mv	a2,a1
ffffffff84009040:	6502                	ld	a0,0(sp)
ffffffff84009042:	65a2                	ld	a1,8(sp)
ffffffff84009044:	f90ff0ef          	jal	ra,ffffffff840087d4 <decodeSetSchedParams>
ffffffff84009048:	bf81                	j	ffffffff84008f98 <decodeTCBInvocation+0x36>
ffffffff8400904a:	8742                	mv	a4,a6
ffffffff8400904c:	862e                	mv	a2,a1
ffffffff8400904e:	6502                	ld	a0,0(sp)
ffffffff84009050:	65a2                	ld	a1,8(sp)
ffffffff84009052:	aeeff0ef          	jal	ra,ffffffff84008340 <decodeSetIPCBuffer>
ffffffff84009056:	b789                	j	ffffffff84008f98 <decodeTCBInvocation+0x36>
ffffffff84009058:	8742                	mv	a4,a6
ffffffff8400905a:	862e                	mv	a2,a1
ffffffff8400905c:	6502                	ld	a0,0(sp)
ffffffff8400905e:	65a2                	ld	a1,8(sp)
ffffffff84009060:	b9eff0ef          	jal	ra,ffffffff840083fe <decodeSetSpace>
ffffffff84009064:	bf15                	j	ffffffff84008f98 <decodeTCBInvocation+0x36>
ffffffff84009066:	6502                	ld	a0,0(sp)
ffffffff84009068:	65a2                	ld	a1,8(sp)
ffffffff8400906a:	ddfff0ef          	jal	ra,ffffffff84008e48 <decodeBindNotification>
ffffffff8400906e:	b72d                	j	ffffffff84008f98 <decodeTCBInvocation+0x36>
ffffffff84009070:	6502                	ld	a0,0(sp)
ffffffff84009072:	65a2                	ld	a1,8(sp)
ffffffff84009074:	ea1ff0ef          	jal	ra,ffffffff84008f14 <decodeUnbindNotification>
ffffffff84009078:	b705                	j	ffffffff84008f98 <decodeTCBInvocation+0x36>
ffffffff8400907a:	8636                	mv	a2,a3
ffffffff8400907c:	6502                	ld	a0,0(sp)
ffffffff8400907e:	65a2                	ld	a1,8(sp)
ffffffff84009080:	a32ff0ef          	jal	ra,ffffffff840082b2 <decodeSetTimeoutEndpoint>
ffffffff84009084:	bf11                	j	ffffffff84008f98 <decodeTCBInvocation+0x36>
ffffffff84009086:	cd9d                	beqz	a1,ffffffff840090c4 <decodeTCBInvocation+0x162>
ffffffff84009088:	00016517          	auipc	a0,0x16
ffffffff8400908c:	7d053503          	ld	a0,2000(a0) # ffffffff8401f858 <ksCurThread>
ffffffff84009090:	6d24                	ld	s1,88(a0)
ffffffff84009092:	4589                	li	a1,2
ffffffff84009094:	a0bfb0ef          	jal	ra,ffffffff84004a9e <setThreadState>
ffffffff84009098:	01941793          	slli	a5,s0,0x19
ffffffff8400909c:	83e5                	srli	a5,a5,0x19
ffffffff8400909e:	02645613          	srli	a2,s0,0x26
ffffffff840090a2:	8a05                	andi	a2,a2,1
ffffffff840090a4:	c601                	beqz	a2,ffffffff840090ac <decodeTCBInvocation+0x14a>
ffffffff840090a6:	577d                	li	a4,-1
ffffffff840090a8:	171e                	slli	a4,a4,0x27
ffffffff840090aa:	8fd9                	or	a5,a5,a4
ffffffff840090ac:	ef84                	sd	s1,24(a5)
ffffffff840090ae:	00016717          	auipc	a4,0x16
ffffffff840090b2:	7aa73703          	ld	a4,1962(a4) # ffffffff8401f858 <ksCurThread>
ffffffff840090b6:	4501                	li	a0,0
ffffffff840090b8:	eee790e3          	bne	a5,a4,ffffffff84008f98 <decodeTCBInvocation+0x36>
ffffffff840090bc:	949fb0ef          	jal	ra,ffffffff84004a04 <rescheduleRequired>
ffffffff840090c0:	4501                	li	a0,0
ffffffff840090c2:	bdd9                	j	ffffffff84008f98 <decodeTCBInvocation+0x36>
ffffffff840090c4:	479d                	li	a5,7
ffffffff840090c6:	00004717          	auipc	a4,0x4
ffffffff840090ca:	36f73d23          	sd	a5,890(a4) # ffffffff8400d440 <current_syscall_error+0x30>
ffffffff840090ce:	450d                	li	a0,3
ffffffff840090d0:	b5e1                	j	ffffffff84008f98 <decodeTCBInvocation+0x36>
ffffffff840090d2:	478d                	li	a5,3
ffffffff840090d4:	00004717          	auipc	a4,0x4
ffffffff840090d8:	36f73623          	sd	a5,876(a4) # ffffffff8400d440 <current_syscall_error+0x30>
ffffffff840090dc:	450d                	li	a0,3
ffffffff840090de:	bd6d                	j	ffffffff84008f98 <decodeTCBInvocation+0x36>

ffffffff840090e0 <setMRs_syscall_error>:
ffffffff840090e0:	1141                	addi	sp,sp,-16
ffffffff840090e2:	e406                	sd	ra,8(sp)
ffffffff840090e4:	87aa                	mv	a5,a0
ffffffff840090e6:	00004517          	auipc	a0,0x4
ffffffff840090ea:	35a53503          	ld	a0,858(a0) # ffffffff8400d440 <current_syscall_error+0x30>
ffffffff840090ee:	4729                	li	a4,10
ffffffff840090f0:	08a76063          	bltu	a4,a0,ffffffff84009170 <setMRs_syscall_error+0x90>
ffffffff840090f4:	00251693          	slli	a3,a0,0x2
ffffffff840090f8:	00003617          	auipc	a2,0x3
ffffffff840090fc:	b6860613          	addi	a2,a2,-1176 # ffffffff8400bc60 <msgRegisters+0x338>
ffffffff84009100:	96b2                	add	a3,a3,a2
ffffffff84009102:	4298                	lw	a4,0(a3)
ffffffff84009104:	9732                	add	a4,a4,a2
ffffffff84009106:	8702                	jr	a4
ffffffff84009108:	00004717          	auipc	a4,0x4
ffffffff8400910c:	30873703          	ld	a4,776(a4) # ffffffff8400d410 <current_syscall_error>
ffffffff84009110:	efb8                	sd	a4,88(a5)
ffffffff84009112:	a095                	j	ffffffff84009176 <setMRs_syscall_error+0x96>
ffffffff84009114:	00004717          	auipc	a4,0x4
ffffffff84009118:	30473703          	ld	a4,772(a4) # ffffffff8400d418 <current_syscall_error+0x8>
ffffffff8400911c:	efb8                	sd	a4,88(a5)
ffffffff8400911e:	4505                	li	a0,1
ffffffff84009120:	a899                	j	ffffffff84009176 <setMRs_syscall_error+0x96>
ffffffff84009122:	00004717          	auipc	a4,0x4
ffffffff84009126:	ede70713          	addi	a4,a4,-290 # ffffffff8400d000 <riscvKSASIDTable>
ffffffff8400912a:	42073683          	ld	a3,1056(a4)
ffffffff8400912e:	efb4                	sd	a3,88(a5)
ffffffff84009130:	42873703          	ld	a4,1064(a4)
ffffffff84009134:	f3b8                	sd	a4,96(a5)
ffffffff84009136:	4509                	li	a0,2
ffffffff84009138:	a83d                	j	ffffffff84009176 <setMRs_syscall_error+0x96>
ffffffff8400913a:	00004697          	auipc	a3,0x4
ffffffff8400913e:	ec668693          	addi	a3,a3,-314 # ffffffff8400d000 <riscvKSASIDTable>
ffffffff84009142:	4386b703          	ld	a4,1080(a3)
ffffffff84009146:	00e03733          	snez	a4,a4
ffffffff8400914a:	efb8                	sd	a4,88(a5)
ffffffff8400914c:	4705                	li	a4,1
ffffffff8400914e:	4006b603          	ld	a2,1024(a3)
ffffffff84009152:	4086b683          	ld	a3,1032(a3)
ffffffff84009156:	853e                	mv	a0,a5
ffffffff84009158:	918f90ef          	jal	ra,ffffffff84002270 <setMRs_lookup_failure>
ffffffff8400915c:	1502                	slli	a0,a0,0x20
ffffffff8400915e:	9101                	srli	a0,a0,0x20
ffffffff84009160:	a819                	j	ffffffff84009176 <setMRs_syscall_error+0x96>
ffffffff84009162:	00004717          	auipc	a4,0x4
ffffffff84009166:	2ce73703          	ld	a4,718(a4) # ffffffff8400d430 <current_syscall_error+0x20>
ffffffff8400916a:	efb8                	sd	a4,88(a5)
ffffffff8400916c:	4505                	li	a0,1
ffffffff8400916e:	a021                	j	ffffffff84009176 <setMRs_syscall_error+0x96>
ffffffff84009170:	8f4f90ef          	jal	ra,ffffffff84002264 <halt>
ffffffff84009174:	4501                	li	a0,0
ffffffff84009176:	60a2                	ld	ra,8(sp)
ffffffff84009178:	0141                	addi	sp,sp,16
ffffffff8400917a:	8082                	ret

ffffffff8400917c <replyFromKernel_error>:
ffffffff8400917c:	1141                	addi	sp,sp,-16
ffffffff8400917e:	e406                	sd	ra,8(sp)
ffffffff84009180:	e022                	sd	s0,0(sp)
ffffffff84009182:	842a                	mv	s0,a0
ffffffff84009184:	85aa                	mv	a1,a0
ffffffff84009186:	4505                	li	a0,1
ffffffff84009188:	be0f90ef          	jal	ra,ffffffff84002568 <lookupIPCBuffer>
ffffffff8400918c:	85aa                	mv	a1,a0
ffffffff8400918e:	04043423          	sd	zero,72(s0)
ffffffff84009192:	8522                	mv	a0,s0
ffffffff84009194:	f4dff0ef          	jal	ra,ffffffff840090e0 <setMRs_syscall_error>
ffffffff84009198:	00004797          	auipc	a5,0x4
ffffffff8400919c:	2a87b783          	ld	a5,680(a5) # ffffffff8400d440 <current_syscall_error+0x30>
ffffffff840091a0:	07b2                	slli	a5,a5,0xc
ffffffff840091a2:	07f57513          	andi	a0,a0,127
ffffffff840091a6:	8fc9                	or	a5,a5,a0
ffffffff840091a8:	e83c                	sd	a5,80(s0)
ffffffff840091aa:	60a2                	ld	ra,8(sp)
ffffffff840091ac:	6402                	ld	s0,0(sp)
ffffffff840091ae:	0141                	addi	sp,sp,16
ffffffff840091b0:	8082                	ret

ffffffff840091b2 <strnlen>:
ffffffff840091b2:	872a                	mv	a4,a0
ffffffff840091b4:	4501                	li	a0,0
ffffffff840091b6:	c991                	beqz	a1,ffffffff840091ca <strnlen+0x18>
ffffffff840091b8:	00a707b3          	add	a5,a4,a0
ffffffff840091bc:	0007c783          	lbu	a5,0(a5)
ffffffff840091c0:	c781                	beqz	a5,ffffffff840091c8 <strnlen+0x16>
ffffffff840091c2:	0505                	addi	a0,a0,1
ffffffff840091c4:	fea59ae3          	bne	a1,a0,ffffffff840091b8 <strnlen+0x6>
ffffffff840091c8:	8082                	ret
ffffffff840091ca:	852e                	mv	a0,a1
ffffffff840091cc:	8082                	ret

ffffffff840091ce <strlcpy>:
ffffffff840091ce:	86aa                	mv	a3,a0
ffffffff840091d0:	4785                	li	a5,1
ffffffff840091d2:	02c7f563          	bgeu	a5,a2,ffffffff840091fc <strlcpy+0x2e>
ffffffff840091d6:	167d                	addi	a2,a2,-1
ffffffff840091d8:	4781                	li	a5,0
ffffffff840091da:	853e                	mv	a0,a5
ffffffff840091dc:	0785                	addi	a5,a5,1
ffffffff840091de:	00a58733          	add	a4,a1,a0
ffffffff840091e2:	00074703          	lbu	a4,0(a4)
ffffffff840091e6:	c719                	beqz	a4,ffffffff840091f4 <strlcpy+0x26>
ffffffff840091e8:	9536                	add	a0,a0,a3
ffffffff840091ea:	00e50023          	sb	a4,0(a0)
ffffffff840091ee:	fec796e3          	bne	a5,a2,ffffffff840091da <strlcpy+0xc>
ffffffff840091f2:	853e                	mv	a0,a5
ffffffff840091f4:	96aa                	add	a3,a3,a0
ffffffff840091f6:	00068023          	sb	zero,0(a3)
ffffffff840091fa:	8082                	ret
ffffffff840091fc:	4501                	li	a0,0
ffffffff840091fe:	bfdd                	j	ffffffff840091f4 <strlcpy+0x26>

ffffffff84009200 <strlcat>:
ffffffff84009200:	86aa                	mv	a3,a0
ffffffff84009202:	4501                	li	a0,0
ffffffff84009204:	ca11                	beqz	a2,ffffffff84009218 <strlcat+0x18>
ffffffff84009206:	00a687b3          	add	a5,a3,a0
ffffffff8400920a:	0007c783          	lbu	a5,0(a5)
ffffffff8400920e:	c799                	beqz	a5,ffffffff8400921c <strlcat+0x1c>
ffffffff84009210:	0505                	addi	a0,a0,1
ffffffff84009212:	fea61ae3          	bne	a2,a0,ffffffff84009206 <strlcat+0x6>
ffffffff84009216:	a83d                	j	ffffffff84009254 <strlcat+0x54>
ffffffff84009218:	8532                	mv	a0,a2
ffffffff8400921a:	8082                	ret
ffffffff8400921c:	02c57c63          	bgeu	a0,a2,ffffffff84009254 <strlcat+0x54>
ffffffff84009220:	00150793          	addi	a5,a0,1
ffffffff84009224:	02c7f563          	bgeu	a5,a2,ffffffff8400924e <strlcat+0x4e>
ffffffff84009228:	fff78813          	addi	a6,a5,-1
ffffffff8400922c:	40a78733          	sub	a4,a5,a0
ffffffff84009230:	972e                	add	a4,a4,a1
ffffffff84009232:	fff74703          	lbu	a4,-1(a4)
ffffffff84009236:	cb19                	beqz	a4,ffffffff8400924c <strlcat+0x4c>
ffffffff84009238:	00f68833          	add	a6,a3,a5
ffffffff8400923c:	fee80fa3          	sb	a4,-1(a6)
ffffffff84009240:	00178713          	addi	a4,a5,1
ffffffff84009244:	00c77963          	bgeu	a4,a2,ffffffff84009256 <strlcat+0x56>
ffffffff84009248:	87ba                	mv	a5,a4
ffffffff8400924a:	bff9                	j	ffffffff84009228 <strlcat+0x28>
ffffffff8400924c:	8542                	mv	a0,a6
ffffffff8400924e:	96aa                	add	a3,a3,a0
ffffffff84009250:	00068023          	sb	zero,0(a3)
ffffffff84009254:	8082                	ret
ffffffff84009256:	853e                	mv	a0,a5
ffffffff84009258:	bfdd                	j	ffffffff8400924e <strlcat+0x4e>

ffffffff8400925a <memzero>:
ffffffff8400925a:	c981                	beqz	a1,ffffffff8400926a <memzero+0x10>
ffffffff8400925c:	87aa                	mv	a5,a0
ffffffff8400925e:	95aa                	add	a1,a1,a0
ffffffff84009260:	0007b023          	sd	zero,0(a5)
ffffffff84009264:	07a1                	addi	a5,a5,8
ffffffff84009266:	feb79de3          	bne	a5,a1,ffffffff84009260 <memzero+0x6>
ffffffff8400926a:	8082                	ret

ffffffff8400926c <performPageTableInvocationUnmap>:
ffffffff8400926c:	7179                	addi	sp,sp,-48
ffffffff8400926e:	f406                	sd	ra,40(sp)
ffffffff84009270:	f022                	sd	s0,32(sp)
ffffffff84009272:	ec26                	sd	s1,24(sp)
ffffffff84009274:	e42e                	sd	a1,8(sp)
ffffffff84009276:	8432                	mv	s0,a2
ffffffff84009278:	02755713          	srli	a4,a0,0x27
ffffffff8400927c:	8b05                	andi	a4,a4,1
ffffffff8400927e:	c329                	beqz	a4,ffffffff840092c0 <performPageTableInvocationUnmap+0x54>
ffffffff84009280:	87aa                	mv	a5,a0
ffffffff84009282:	86ae                	mv	a3,a1
ffffffff84009284:	0095d713          	srli	a4,a1,0x9
ffffffff84009288:	01971513          	slli	a0,a4,0x19
ffffffff8400928c:	8165                	srli	a0,a0,0x19
ffffffff8400928e:	9319                	srli	a4,a4,0x26
ffffffff84009290:	8b05                	andi	a4,a4,1
ffffffff84009292:	c701                	beqz	a4,ffffffff8400929a <performPageTableInvocationUnmap+0x2e>
ffffffff84009294:	577d                	li	a4,-1
ffffffff84009296:	171e                	slli	a4,a4,0x27
ffffffff84009298:	8d59                	or	a0,a0,a4
ffffffff8400929a:	84aa                	mv	s1,a0
ffffffff8400929c:	0306d513          	srli	a0,a3,0x30
ffffffff840092a0:	01979593          	slli	a1,a5,0x19
ffffffff840092a4:	81e5                	srli	a1,a1,0x19
ffffffff840092a6:	9399                	srli	a5,a5,0x26
ffffffff840092a8:	8b85                	andi	a5,a5,1
ffffffff840092aa:	c781                	beqz	a5,ffffffff840092b2 <performPageTableInvocationUnmap+0x46>
ffffffff840092ac:	57fd                	li	a5,-1
ffffffff840092ae:	179e                	slli	a5,a5,0x27
ffffffff840092b0:	8ddd                	or	a1,a1,a5
ffffffff840092b2:	8626                	mv	a2,s1
ffffffff840092b4:	df8f90ef          	jal	ra,ffffffff840028ac <unmapPageTable>
ffffffff840092b8:	6585                	lui	a1,0x1
ffffffff840092ba:	8526                	mv	a0,s1
ffffffff840092bc:	f9fff0ef          	jal	ra,ffffffff8400925a <memzero>
ffffffff840092c0:	6018                	ld	a4,0(s0)
ffffffff840092c2:	57fd                	li	a5,-1
ffffffff840092c4:	179e                	slli	a5,a5,0x27
ffffffff840092c6:	17fd                	addi	a5,a5,-1
ffffffff840092c8:	8ff9                	and	a5,a5,a4
ffffffff840092ca:	e01c                	sd	a5,0(s0)
ffffffff840092cc:	4501                	li	a0,0
ffffffff840092ce:	70a2                	ld	ra,40(sp)
ffffffff840092d0:	7402                	ld	s0,32(sp)
ffffffff840092d2:	64e2                	ld	s1,24(sp)
ffffffff840092d4:	6145                	addi	sp,sp,48
ffffffff840092d6:	8082                	ret

ffffffff840092d8 <decodeRISCVMMUInvocation>:
ffffffff840092d8:	7155                	addi	sp,sp,-208
ffffffff840092da:	e586                	sd	ra,200(sp)
ffffffff840092dc:	e1a2                	sd	s0,192(sp)
ffffffff840092de:	fd26                	sd	s1,184(sp)
ffffffff840092e0:	f94a                	sd	s2,176(sp)
ffffffff840092e2:	f54e                	sd	s3,168(sp)
ffffffff840092e4:	f152                	sd	s4,160(sp)
ffffffff840092e6:	ed56                	sd	s5,152(sp)
ffffffff840092e8:	e95a                	sd	s6,144(sp)
ffffffff840092ea:	e55e                	sd	s7,136(sp)
ffffffff840092ec:	e162                	sd	s8,128(sp)
ffffffff840092ee:	fce6                	sd	s9,120(sp)
ffffffff840092f0:	f8ea                	sd	s10,112(sp)
ffffffff840092f2:	f4ee                	sd	s11,104(sp)
ffffffff840092f4:	e03a                	sd	a4,0(sp)
ffffffff840092f6:	e43e                	sd	a5,8(sp)
ffffffff840092f8:	03b75413          	srli	s0,a4,0x3b
ffffffff840092fc:	47ad                	li	a5,11
ffffffff840092fe:	60f40263          	beq	s0,a5,ffffffff84009902 <decodeRISCVMMUInvocation+0x62a>
ffffffff84009302:	8936                	mv	s2,a3
ffffffff84009304:	84ba                	mv	s1,a4
ffffffff84009306:	1487e063          	bltu	a5,s0,ffffffff84009446 <decodeRISCVMMUInvocation+0x16e>
ffffffff8400930a:	4785                	li	a5,1
ffffffff8400930c:	2af40c63          	beq	s0,a5,ffffffff840095c4 <decodeRISCVMMUInvocation+0x2ec>
ffffffff84009310:	478d                	li	a5,3
ffffffff84009312:	06f41fe3          	bne	s0,a5,ffffffff84009b90 <decodeRISCVMMUInvocation+0x8b8>
ffffffff84009316:	6782                	ld	a5,0(sp)
ffffffff84009318:	e83e                	sd	a5,16(sp)
ffffffff8400931a:	69a2                	ld	s3,8(sp)
ffffffff8400931c:	ec4e                	sd	s3,24(sp)
ffffffff8400931e:	02500793          	li	a5,37
ffffffff84009322:	18f50f63          	beq	a0,a5,ffffffff840094c0 <decodeRISCVMMUInvocation+0x1e8>
ffffffff84009326:	02400793          	li	a5,36
ffffffff8400932a:	20f51363          	bne	a0,a5,ffffffff84009530 <decodeRISCVMMUInvocation+0x258>
ffffffff8400932e:	4785                	li	a5,1
ffffffff84009330:	20b7f663          	bgeu	a5,a1,ffffffff8400953c <decodeRISCVMMUInvocation+0x264>
ffffffff84009334:	00004717          	auipc	a4,0x4
ffffffff84009338:	55c73703          	ld	a4,1372(a4) # ffffffff8400d890 <current_extra_caps>
ffffffff8400933c:	20070063          	beqz	a4,ffffffff8400953c <decodeRISCVMMUInvocation+0x264>
ffffffff84009340:	0274d793          	srli	a5,s1,0x27
ffffffff84009344:	8b85                	andi	a5,a5,1
ffffffff84009346:	20079163          	bnez	a5,ffffffff84009548 <decodeRISCVMMUInvocation+0x270>
ffffffff8400934a:	631c                	ld	a5,0(a4)
ffffffff8400934c:	03b7da93          	srli	s5,a5,0x3b
ffffffff84009350:	468d                	li	a3,3
ffffffff84009352:	20da9563          	bne	s5,a3,ffffffff8400955c <decodeRISCVMMUInvocation+0x284>
ffffffff84009356:	939d                	srli	a5,a5,0x27
ffffffff84009358:	8b85                	andi	a5,a5,1
ffffffff8400935a:	20078163          	beqz	a5,ffffffff8400955c <decodeRISCVMMUInvocation+0x284>
ffffffff8400935e:	00873c83          	ld	s9,8(a4)
ffffffff84009362:	009cd793          	srli	a5,s9,0x9
ffffffff84009366:	01979513          	slli	a0,a5,0x19
ffffffff8400936a:	8165                	srli	a0,a0,0x19
ffffffff8400936c:	9399                	srli	a5,a5,0x26
ffffffff8400936e:	8b85                	andi	a5,a5,1
ffffffff84009370:	c781                	beqz	a5,ffffffff84009378 <decodeRISCVMMUInvocation+0xa0>
ffffffff84009372:	57fd                	li	a5,-1
ffffffff84009374:	179e                	slli	a5,a5,0x27
ffffffff84009376:	8d5d                	or	a0,a0,a5
ffffffff84009378:	00016797          	auipc	a5,0x16
ffffffff8400937c:	4e07b783          	ld	a5,1248(a5) # ffffffff8401f858 <ksCurThread>
ffffffff84009380:	0587bc03          	ld	s8,88(a5)
ffffffff84009384:	842a                	mv	s0,a0
ffffffff84009386:	030cd513          	srli	a0,s9,0x30
ffffffff8400938a:	fefff7b7          	lui	a5,0xfefff
ffffffff8400938e:	07ba                	slli	a5,a5,0xe
ffffffff84009390:	83e9                	srli	a5,a5,0x1a
ffffffff84009392:	1f87e063          	bltu	a5,s8,ffffffff84009572 <decodeRISCVMMUInvocation+0x29a>
ffffffff84009396:	d61f80ef          	jal	ra,ffffffff840020f6 <findVSpaceForASID>
ffffffff8400939a:	e0aa                	sd	a0,64(sp)
ffffffff8400939c:	e4ae                	sd	a1,72(sp)
ffffffff8400939e:	1e051563          	bnez	a0,ffffffff84009588 <decodeRISCVMMUInvocation+0x2b0>
ffffffff840093a2:	67a6                	ld	a5,72(sp)
ffffffff840093a4:	1ef41d63          	bne	s0,a5,ffffffff8400959e <decodeRISCVMMUInvocation+0x2c6>
ffffffff840093a8:	85e2                	mv	a1,s8
ffffffff840093aa:	8522                	mv	a0,s0
ffffffff840093ac:	c2cf90ef          	jal	ra,ffffffff840027d8 <lookupPTSlot>
ffffffff840093b0:	8b2a                	mv	s6,a0
ffffffff840093b2:	8a2e                	mv	s4,a1
ffffffff840093b4:	f82a                	sd	a0,48(sp)
ffffffff840093b6:	fc2e                	sd	a1,56(sp)
ffffffff840093b8:	47b1                	li	a5,12
ffffffff840093ba:	1ef58e63          	beq	a1,a5,ffffffff840095b6 <decodeRISCVMMUInvocation+0x2de>
ffffffff840093be:	6100                	ld	s0,0(a0)
ffffffff840093c0:	8805                	andi	s0,s0,1
ffffffff840093c2:	1e041a63          	bnez	s0,ffffffff840095b6 <decodeRISCVMMUInvocation+0x2de>
ffffffff840093c6:	0099d793          	srli	a5,s3,0x9
ffffffff840093ca:	01979a93          	slli	s5,a5,0x19
ffffffff840093ce:	019ada93          	srli	s5,s5,0x19
ffffffff840093d2:	9399                	srli	a5,a5,0x26
ffffffff840093d4:	8b85                	andi	a5,a5,1
ffffffff840093d6:	c789                	beqz	a5,ffffffff840093e0 <decodeRISCVMMUInvocation+0x108>
ffffffff840093d8:	57fd                	li	a5,-1
ffffffff840093da:	179e                	slli	a5,a5,0x27
ffffffff840093dc:	00faeab3          	or	s5,s5,a5
ffffffff840093e0:	5bfd                	li	s7,-1
ffffffff840093e2:	010bd793          	srli	a5,s7,0x10
ffffffff840093e6:	00f9f9b3          	and	s3,s3,a5
ffffffff840093ea:	030b9793          	slli	a5,s7,0x30
ffffffff840093ee:	00fcfcb3          	and	s9,s9,a5
ffffffff840093f2:	0199e9b3          	or	s3,s3,s9
ffffffff840093f6:	4589                	li	a1,2
ffffffff840093f8:	00016517          	auipc	a0,0x16
ffffffff840093fc:	46053503          	ld	a0,1120(a0) # ffffffff8401f858 <ksCurThread>
ffffffff84009400:	e9efb0ef          	jal	ra,ffffffff84004a9e <setThreadState>
ffffffff84009404:	4705                	li	a4,1
ffffffff84009406:	014717b3          	sll	a5,a4,s4
ffffffff8400940a:	40f007b3          	neg	a5,a5
ffffffff8400940e:	0187f7b3          	and	a5,a5,s8
ffffffff84009412:	1ba2                	slli	s7,s7,0x28
ffffffff84009414:	0174f4b3          	and	s1,s1,s7
ffffffff84009418:	8fc5                	or	a5,a5,s1
ffffffff8400941a:	02771693          	slli	a3,a4,0x27
ffffffff8400941e:	8fd5                	or	a5,a5,a3
ffffffff84009420:	00f93023          	sd	a5,0(s2)
ffffffff84009424:	01393423          	sd	s3,8(s2)
ffffffff84009428:	02671793          	slli	a5,a4,0x26
ffffffff8400942c:	97d6                	add	a5,a5,s5
ffffffff8400942e:	8389                	srli	a5,a5,0x2
ffffffff84009430:	fff00737          	lui	a4,0xfff00
ffffffff84009434:	8329                	srli	a4,a4,0xa
ffffffff84009436:	8ff9                	and	a5,a5,a4
ffffffff84009438:	0c17e793          	ori	a5,a5,193
ffffffff8400943c:	00fb3023          	sd	a5,0(s6)
ffffffff84009440:	12000073          	sfence.vma
ffffffff84009444:	a9c9                	j	ffffffff84009916 <decodeRISCVMMUInvocation+0x63e>
ffffffff84009446:	47b5                	li	a5,13
ffffffff84009448:	74f41463          	bne	s0,a5,ffffffff84009b90 <decodeRISCVMMUInvocation+0x8b8>
ffffffff8400944c:	02a00793          	li	a5,42
ffffffff84009450:	64f51863          	bne	a0,a5,ffffffff84009aa0 <decodeRISCVMMUInvocation+0x7c8>
ffffffff84009454:	00004997          	auipc	s3,0x4
ffffffff84009458:	43c9b983          	ld	s3,1084(s3) # ffffffff8400d890 <current_extra_caps>
ffffffff8400945c:	64098963          	beqz	s3,ffffffff84009aae <decodeRISCVMMUInvocation+0x7d6>
ffffffff84009460:	0009b903          	ld	s2,0(s3)
ffffffff84009464:	03b95413          	srli	s0,s2,0x3b
ffffffff84009468:	478d                	li	a5,3
ffffffff8400946a:	64f41963          	bne	s0,a5,ffffffff84009abc <decodeRISCVMMUInvocation+0x7e4>
ffffffff8400946e:	02795913          	srli	s2,s2,0x27
ffffffff84009472:	00197913          	andi	s2,s2,1
ffffffff84009476:	64091363          	bnez	s2,ffffffff84009abc <decodeRISCVMMUInvocation+0x7e4>
ffffffff8400947a:	02b75613          	srli	a2,a4,0x2b
ffffffff8400947e:	1642                	slli	a2,a2,0x30
ffffffff84009480:	9241                	srli	a2,a2,0x30
ffffffff84009482:	00965793          	srli	a5,a2,0x9
ffffffff84009486:	00379713          	slli	a4,a5,0x3
ffffffff8400948a:	00004797          	auipc	a5,0x4
ffffffff8400948e:	b7678793          	addi	a5,a5,-1162 # ffffffff8400d000 <riscvKSASIDTable>
ffffffff84009492:	97ba                	add	a5,a5,a4
ffffffff84009494:	0007ba03          	ld	s4,0(a5)
ffffffff84009498:	620a0e63          	beqz	s4,ffffffff84009ad4 <decodeRISCVMMUInvocation+0x7fc>
ffffffff8400949c:	048a                	slli	s1,s1,0x2
ffffffff8400949e:	f80007b7          	lui	a5,0xf8000
ffffffff840094a2:	83e5                	srli	a5,a5,0x19
ffffffff840094a4:	8fe5                	and	a5,a5,s1
ffffffff840094a6:	9099                	srli	s1,s1,0x26
ffffffff840094a8:	8885                	andi	s1,s1,1
ffffffff840094aa:	c481                	beqz	s1,ffffffff840094b2 <decodeRISCVMMUInvocation+0x1da>
ffffffff840094ac:	577d                	li	a4,-1
ffffffff840094ae:	171e                	slli	a4,a4,0x27
ffffffff840094b0:	8fd9                	or	a5,a5,a4
ffffffff840094b2:	62fa1f63          	bne	s4,a5,ffffffff84009af0 <decodeRISCVMMUInvocation+0x818>
ffffffff840094b6:	8752                	mv	a4,s4
ffffffff840094b8:	87ca                	mv	a5,s2
ffffffff840094ba:	20000593          	li	a1,512
ffffffff840094be:	a5b9                	j	ffffffff84009b0c <decodeRISCVMMUInvocation+0x834>
ffffffff840094c0:	8536                	mv	a0,a3
ffffffff840094c2:	8d8fb0ef          	jal	ra,ffffffff8400459a <isFinalCapability>
ffffffff840094c6:	c531                	beqz	a0,ffffffff84009512 <decodeRISCVMMUInvocation+0x23a>
ffffffff840094c8:	0274d793          	srli	a5,s1,0x27
ffffffff840094cc:	8b85                	andi	a5,a5,1
ffffffff840094ce:	c785                	beqz	a5,ffffffff840094f6 <decodeRISCVMMUInvocation+0x21e>
ffffffff840094d0:	0309d513          	srli	a0,s3,0x30
ffffffff840094d4:	c23f80ef          	jal	ra,ffffffff840020f6 <findVSpaceForASID>
ffffffff840094d8:	e0aa                	sd	a0,64(sp)
ffffffff840094da:	e4ae                	sd	a1,72(sp)
ffffffff840094dc:	0099d793          	srli	a5,s3,0x9
ffffffff840094e0:	01979713          	slli	a4,a5,0x19
ffffffff840094e4:	8365                	srli	a4,a4,0x19
ffffffff840094e6:	9399                	srli	a5,a5,0x26
ffffffff840094e8:	8b85                	andi	a5,a5,1
ffffffff840094ea:	c781                	beqz	a5,ffffffff840094f2 <decodeRISCVMMUInvocation+0x21a>
ffffffff840094ec:	57fd                	li	a5,-1
ffffffff840094ee:	179e                	slli	a5,a5,0x27
ffffffff840094f0:	8f5d                	or	a4,a4,a5
ffffffff840094f2:	6786                	ld	a5,64(sp)
ffffffff840094f4:	c78d                	beqz	a5,ffffffff8400951e <decodeRISCVMMUInvocation+0x246>
ffffffff840094f6:	4589                	li	a1,2
ffffffff840094f8:	00016517          	auipc	a0,0x16
ffffffff840094fc:	36053503          	ld	a0,864(a0) # ffffffff8401f858 <ksCurThread>
ffffffff84009500:	d9efb0ef          	jal	ra,ffffffff84004a9e <setThreadState>
ffffffff84009504:	864a                	mv	a2,s2
ffffffff84009506:	8526                	mv	a0,s1
ffffffff84009508:	85ce                	mv	a1,s3
ffffffff8400950a:	d63ff0ef          	jal	ra,ffffffff8400926c <performPageTableInvocationUnmap>
ffffffff8400950e:	842a                	mv	s0,a0
ffffffff84009510:	a119                	j	ffffffff84009916 <decodeRISCVMMUInvocation+0x63e>
ffffffff84009512:	47a5                	li	a5,9
ffffffff84009514:	00004717          	auipc	a4,0x4
ffffffff84009518:	f2f73623          	sd	a5,-212(a4) # ffffffff8400d440 <current_syscall_error+0x30>
ffffffff8400951c:	aeed                	j	ffffffff84009916 <decodeRISCVMMUInvocation+0x63e>
ffffffff8400951e:	67a6                	ld	a5,72(sp)
ffffffff84009520:	fce79be3          	bne	a5,a4,ffffffff840094f6 <decodeRISCVMMUInvocation+0x21e>
ffffffff84009524:	47a5                	li	a5,9
ffffffff84009526:	00004717          	auipc	a4,0x4
ffffffff8400952a:	f0f73d23          	sd	a5,-230(a4) # ffffffff8400d440 <current_syscall_error+0x30>
ffffffff8400952e:	a6e5                	j	ffffffff84009916 <decodeRISCVMMUInvocation+0x63e>
ffffffff84009530:	478d                	li	a5,3
ffffffff84009532:	00004717          	auipc	a4,0x4
ffffffff84009536:	f0f73723          	sd	a5,-242(a4) # ffffffff8400d440 <current_syscall_error+0x30>
ffffffff8400953a:	aef1                	j	ffffffff84009916 <decodeRISCVMMUInvocation+0x63e>
ffffffff8400953c:	479d                	li	a5,7
ffffffff8400953e:	00004717          	auipc	a4,0x4
ffffffff84009542:	f0f73123          	sd	a5,-254(a4) # ffffffff8400d440 <current_syscall_error+0x30>
ffffffff84009546:	aec1                	j	ffffffff84009916 <decodeRISCVMMUInvocation+0x63e>
ffffffff84009548:	00004797          	auipc	a5,0x4
ffffffff8400954c:	ab878793          	addi	a5,a5,-1352 # ffffffff8400d000 <riscvKSASIDTable>
ffffffff84009550:	4709                	li	a4,2
ffffffff84009552:	44e7b023          	sd	a4,1088(a5)
ffffffff84009556:	4007bc23          	sd	zero,1048(a5)
ffffffff8400955a:	ae75                	j	ffffffff84009916 <decodeRISCVMMUInvocation+0x63e>
ffffffff8400955c:	00004797          	auipc	a5,0x4
ffffffff84009560:	aa478793          	addi	a5,a5,-1372 # ffffffff8400d000 <riscvKSASIDTable>
ffffffff84009564:	4709                	li	a4,2
ffffffff84009566:	44e7b023          	sd	a4,1088(a5)
ffffffff8400956a:	4705                	li	a4,1
ffffffff8400956c:	40e7bc23          	sd	a4,1048(a5)
ffffffff84009570:	a65d                	j	ffffffff84009916 <decodeRISCVMMUInvocation+0x63e>
ffffffff84009572:	00004797          	auipc	a5,0x4
ffffffff84009576:	a8e78793          	addi	a5,a5,-1394 # ffffffff8400d000 <riscvKSASIDTable>
ffffffff8400957a:	4705                	li	a4,1
ffffffff8400957c:	44e7b023          	sd	a4,1088(a5)
ffffffff84009580:	4007b823          	sd	zero,1040(a5)
ffffffff84009584:	8456                	mv	s0,s5
ffffffff84009586:	ae41                	j	ffffffff84009916 <decodeRISCVMMUInvocation+0x63e>
ffffffff84009588:	00004797          	auipc	a5,0x4
ffffffff8400958c:	a7878793          	addi	a5,a5,-1416 # ffffffff8400d000 <riscvKSASIDTable>
ffffffff84009590:	4719                	li	a4,6
ffffffff84009592:	44e7b023          	sd	a4,1088(a5)
ffffffff84009596:	4207bc23          	sd	zero,1080(a5)
ffffffff8400959a:	8456                	mv	s0,s5
ffffffff8400959c:	aead                	j	ffffffff84009916 <decodeRISCVMMUInvocation+0x63e>
ffffffff8400959e:	00004797          	auipc	a5,0x4
ffffffff840095a2:	a6278793          	addi	a5,a5,-1438 # ffffffff8400d000 <riscvKSASIDTable>
ffffffff840095a6:	4709                	li	a4,2
ffffffff840095a8:	44e7b023          	sd	a4,1088(a5)
ffffffff840095ac:	4705                	li	a4,1
ffffffff840095ae:	40e7bc23          	sd	a4,1048(a5)
ffffffff840095b2:	8456                	mv	s0,s5
ffffffff840095b4:	a68d                	j	ffffffff84009916 <decodeRISCVMMUInvocation+0x63e>
ffffffff840095b6:	47a1                	li	a5,8
ffffffff840095b8:	00004717          	auipc	a4,0x4
ffffffff840095bc:	e8f73423          	sd	a5,-376(a4) # ffffffff8400d440 <current_syscall_error+0x30>
ffffffff840095c0:	8456                	mv	s0,s5
ffffffff840095c2:	ae91                	j	ffffffff84009916 <decodeRISCVMMUInvocation+0x63e>
ffffffff840095c4:	6782                	ld	a5,0(sp)
ffffffff840095c6:	f03e                	sd	a5,32(sp)
ffffffff840095c8:	6a22                	ld	s4,8(sp)
ffffffff840095ca:	f452                	sd	s4,40(sp)
ffffffff840095cc:	02700793          	li	a5,39
ffffffff840095d0:	2cf50d63          	beq	a0,a5,ffffffff840098aa <decodeRISCVMMUInvocation+0x5d2>
ffffffff840095d4:	02800793          	li	a5,40
ffffffff840095d8:	2ef50763          	beq	a0,a5,ffffffff840098c6 <decodeRISCVMMUInvocation+0x5ee>
ffffffff840095dc:	02600793          	li	a5,38
ffffffff840095e0:	00f50963          	beq	a0,a5,ffffffff840095f2 <decodeRISCVMMUInvocation+0x31a>
ffffffff840095e4:	478d                	li	a5,3
ffffffff840095e6:	00004717          	auipc	a4,0x4
ffffffff840095ea:	e4f73d23          	sd	a5,-422(a4) # ffffffff8400d440 <current_syscall_error+0x30>
ffffffff840095ee:	440d                	li	s0,3
ffffffff840095f0:	a61d                	j	ffffffff84009916 <decodeRISCVMMUInvocation+0x63e>
ffffffff840095f2:	4789                	li	a5,2
ffffffff840095f4:	08b7f063          	bgeu	a5,a1,ffffffff84009674 <decodeRISCVMMUInvocation+0x39c>
ffffffff840095f8:	00004717          	auipc	a4,0x4
ffffffff840095fc:	29873703          	ld	a4,664(a4) # ffffffff8400d890 <current_extra_caps>
ffffffff84009600:	cb35                	beqz	a4,ffffffff84009674 <decodeRISCVMMUInvocation+0x39c>
ffffffff84009602:	631c                	ld	a5,0(a4)
ffffffff84009604:	03b7dc13          	srli	s8,a5,0x3b
ffffffff84009608:	468d                	li	a3,3
ffffffff8400960a:	06dc1c63          	bne	s8,a3,ffffffff84009682 <decodeRISCVMMUInvocation+0x3aa>
ffffffff8400960e:	939d                	srli	a5,a5,0x27
ffffffff84009610:	8b85                	andi	a5,a5,1
ffffffff84009612:	cba5                	beqz	a5,ffffffff84009682 <decodeRISCVMMUInvocation+0x3aa>
ffffffff84009614:	00873b83          	ld	s7,8(a4)
ffffffff84009618:	009bd793          	srli	a5,s7,0x9
ffffffff8400961c:	01979513          	slli	a0,a5,0x19
ffffffff84009620:	8165                	srli	a0,a0,0x19
ffffffff84009622:	9399                	srli	a5,a5,0x26
ffffffff84009624:	8b85                	andi	a5,a5,1
ffffffff84009626:	c781                	beqz	a5,ffffffff8400962e <decodeRISCVMMUInvocation+0x356>
ffffffff84009628:	57fd                	li	a5,-1
ffffffff8400962a:	179e                	slli	a5,a5,0x27
ffffffff8400962c:	8d5d                	or	a0,a0,a5
ffffffff8400962e:	00016797          	auipc	a5,0x16
ffffffff84009632:	22a7b783          	ld	a5,554(a5) # ffffffff8401f858 <ksCurThread>
ffffffff84009636:	0587ba83          	ld	s5,88(a5)
ffffffff8400963a:	0607bd03          	ld	s10,96(a5)
ffffffff8400963e:	0687bb03          	ld	s6,104(a5)
ffffffff84009642:	89aa                	mv	s3,a0
ffffffff84009644:	030bdd93          	srli	s11,s7,0x30
ffffffff84009648:	856e                	mv	a0,s11
ffffffff8400964a:	aadf80ef          	jal	ra,ffffffff840020f6 <findVSpaceForASID>
ffffffff8400964e:	f82a                	sd	a0,48(sp)
ffffffff84009650:	fc2e                	sd	a1,56(sp)
ffffffff84009652:	e521                	bnez	a0,ffffffff8400969a <decodeRISCVMMUInvocation+0x3c2>
ffffffff84009654:	77e2                	ld	a5,56(sp)
ffffffff84009656:	04f99d63          	bne	s3,a5,ffffffff840096b0 <decodeRISCVMMUInvocation+0x3d8>
ffffffff8400965a:	0394d793          	srli	a5,s1,0x39
ffffffff8400965e:	8b8d                	andi	a5,a5,3
ffffffff84009660:	4705                	li	a4,1
ffffffff84009662:	06e78363          	beq	a5,a4,ffffffff840096c8 <decodeRISCVMMUInvocation+0x3f0>
ffffffff84009666:	4709                	li	a4,2
ffffffff84009668:	06e78263          	beq	a5,a4,ffffffff840096cc <decodeRISCVMMUInvocation+0x3f4>
ffffffff8400966c:	14078f63          	beqz	a5,ffffffff840097ca <decodeRISCVMMUInvocation+0x4f2>
ffffffff84009670:	bf5f80ef          	jal	ra,ffffffff84002264 <halt>
ffffffff84009674:	479d                	li	a5,7
ffffffff84009676:	00004717          	auipc	a4,0x4
ffffffff8400967a:	dcf73523          	sd	a5,-566(a4) # ffffffff8400d440 <current_syscall_error+0x30>
ffffffff8400967e:	440d                	li	s0,3
ffffffff84009680:	ac59                	j	ffffffff84009916 <decodeRISCVMMUInvocation+0x63e>
ffffffff84009682:	00004797          	auipc	a5,0x4
ffffffff84009686:	97e78793          	addi	a5,a5,-1666 # ffffffff8400d000 <riscvKSASIDTable>
ffffffff8400968a:	4709                	li	a4,2
ffffffff8400968c:	44e7b023          	sd	a4,1088(a5)
ffffffff84009690:	4705                	li	a4,1
ffffffff84009692:	40e7bc23          	sd	a4,1048(a5)
ffffffff84009696:	440d                	li	s0,3
ffffffff84009698:	acbd                	j	ffffffff84009916 <decodeRISCVMMUInvocation+0x63e>
ffffffff8400969a:	00004797          	auipc	a5,0x4
ffffffff8400969e:	96678793          	addi	a5,a5,-1690 # ffffffff8400d000 <riscvKSASIDTable>
ffffffff840096a2:	4719                	li	a4,6
ffffffff840096a4:	44e7b023          	sd	a4,1088(a5)
ffffffff840096a8:	4207bc23          	sd	zero,1080(a5)
ffffffff840096ac:	8462                	mv	s0,s8
ffffffff840096ae:	a4a5                	j	ffffffff84009916 <decodeRISCVMMUInvocation+0x63e>
ffffffff840096b0:	00004797          	auipc	a5,0x4
ffffffff840096b4:	95078793          	addi	a5,a5,-1712 # ffffffff8400d000 <riscvKSASIDTable>
ffffffff840096b8:	4709                	li	a4,2
ffffffff840096ba:	44e7b023          	sd	a4,1088(a5)
ffffffff840096be:	4705                	li	a4,1
ffffffff840096c0:	40e7bc23          	sd	a4,1048(a5)
ffffffff840096c4:	8462                	mv	s0,s8
ffffffff840096c6:	ac81                	j	ffffffff84009916 <decodeRISCVMMUInvocation+0x63e>
ffffffff840096c8:	4cd5                	li	s9,21
ffffffff840096ca:	a011                	j	ffffffff840096ce <decodeRISCVMMUInvocation+0x3f6>
ffffffff840096cc:	4cf9                	li	s9,30
ffffffff840096ce:	000c869b          	sext.w	a3,s9
ffffffff840096d2:	fffa8713          	addi	a4,s5,-1
ffffffff840096d6:	4785                	li	a5,1
ffffffff840096d8:	019797b3          	sll	a5,a5,s9
ffffffff840096dc:	973e                	add	a4,a4,a5
ffffffff840096de:	fefff7b7          	lui	a5,0xfefff
ffffffff840096e2:	07ba                	slli	a5,a5,0xe
ffffffff840096e4:	83e9                	srli	a5,a5,0x1a
ffffffff840096e6:	0ee7e463          	bltu	a5,a4,ffffffff840097ce <decodeRISCVMMUInvocation+0x4f6>
ffffffff840096ea:	547d                	li	s0,-1
ffffffff840096ec:	00d41433          	sll	s0,s0,a3
ffffffff840096f0:	fff44413          	not	s0,s0
ffffffff840096f4:	01547433          	and	s0,s0,s5
ffffffff840096f8:	e475                	bnez	s0,ffffffff840097e4 <decodeRISCVMMUInvocation+0x50c>
ffffffff840096fa:	85d6                	mv	a1,s5
ffffffff840096fc:	854e                	mv	a0,s3
ffffffff840096fe:	8daf90ef          	jal	ra,ffffffff840027d8 <lookupPTSlot>
ffffffff84009702:	89aa                	mv	s3,a0
ffffffff84009704:	e0aa                	sd	a0,64(sp)
ffffffff84009706:	e4ae                	sd	a1,72(sp)
ffffffff84009708:	0f959563          	bne	a1,s9,ffffffff840097f2 <decodeRISCVMMUInvocation+0x51a>
ffffffff8400970c:	030a5793          	srli	a5,s4,0x30
ffffffff84009710:	10079663          	bnez	a5,ffffffff8400981c <decodeRISCVMMUInvocation+0x544>
ffffffff84009714:	611c                	ld	a5,0(a0)
ffffffff84009716:	8b85                	andi	a5,a5,1
ffffffff84009718:	16079e63          	bnez	a5,ffffffff84009894 <decodeRISCVMMUInvocation+0x5bc>
ffffffff8400971c:	0374d513          	srli	a0,s1,0x37
ffffffff84009720:	85ea                	mv	a1,s10
ffffffff84009722:	890d                	andi	a0,a0,3
ffffffff84009724:	c84f90ef          	jal	ra,ffffffff84002ba8 <maskVMRights>
ffffffff84009728:	009a5713          	srli	a4,s4,0x9
ffffffff8400972c:	01971793          	slli	a5,a4,0x19
ffffffff84009730:	83e5                	srli	a5,a5,0x19
ffffffff84009732:	9319                	srli	a4,a4,0x26
ffffffff84009734:	8b05                	andi	a4,a4,1
ffffffff84009736:	c701                	beqz	a4,ffffffff8400973e <decodeRISCVMMUInvocation+0x466>
ffffffff84009738:	577d                	li	a4,-1
ffffffff8400973a:	171e                	slli	a4,a4,0x27
ffffffff8400973c:	8fd9                	or	a5,a5,a4
ffffffff8400973e:	4585                	li	a1,1
ffffffff84009740:	02659713          	slli	a4,a1,0x26
ffffffff84009744:	97ba                	add	a5,a5,a4
ffffffff84009746:	577d                	li	a4,-1
ffffffff84009748:	01075693          	srli	a3,a4,0x10
ffffffff8400974c:	00da7a33          	and	s4,s4,a3
ffffffff84009750:	03071693          	slli	a3,a4,0x30
ffffffff84009754:	00dbfbb3          	and	s7,s7,a3
ffffffff84009758:	017a6a33          	or	s4,s4,s7
ffffffff8400975c:	02771693          	slli	a3,a4,0x27
ffffffff84009760:	8cf5                	and	s1,s1,a3
ffffffff84009762:	8365                	srli	a4,a4,0x19
ffffffff84009764:	00eafab3          	and	s5,s5,a4
ffffffff84009768:	0154eab3          	or	s5,s1,s5
ffffffff8400976c:	001b7b13          	andi	s6,s6,1
ffffffff84009770:	001b4613          	xori	a2,s6,1
ffffffff84009774:	ffd50693          	addi	a3,a0,-3
ffffffff84009778:	0016b693          	seqz	a3,a3
ffffffff8400977c:	fff50713          	addi	a4,a0,-1
ffffffff84009780:	00e03733          	snez	a4,a4
ffffffff84009784:	10b50f63          	beq	a0,a1,ffffffff840098a2 <decodeRISCVMMUInvocation+0x5ca>
ffffffff84009788:	0027d493          	srli	s1,a5,0x2
ffffffff8400978c:	fff007b7          	lui	a5,0xfff00
ffffffff84009790:	83a9                	srli	a5,a5,0xa
ffffffff84009792:	8cfd                	and	s1,s1,a5
ffffffff84009794:	00361793          	slli	a5,a2,0x3
ffffffff84009798:	8cdd                	or	s1,s1,a5
ffffffff8400979a:	00269793          	slli	a5,a3,0x2
ffffffff8400979e:	8cdd                	or	s1,s1,a5
ffffffff840097a0:	00171793          	slli	a5,a4,0x1
ffffffff840097a4:	8cdd                	or	s1,s1,a5
ffffffff840097a6:	0d14e493          	ori	s1,s1,209
ffffffff840097aa:	4589                	li	a1,2
ffffffff840097ac:	00016517          	auipc	a0,0x16
ffffffff840097b0:	0ac53503          	ld	a0,172(a0) # ffffffff8401f858 <ksCurThread>
ffffffff840097b4:	aeafb0ef          	jal	ra,ffffffff84004a9e <setThreadState>
ffffffff840097b8:	01593023          	sd	s5,0(s2)
ffffffff840097bc:	01493423          	sd	s4,8(s2)
ffffffff840097c0:	0099b023          	sd	s1,0(s3)
ffffffff840097c4:	12000073          	sfence.vma
ffffffff840097c8:	a2b9                	j	ffffffff84009916 <decodeRISCVMMUInvocation+0x63e>
ffffffff840097ca:	4cb1                	li	s9,12
ffffffff840097cc:	b709                	j	ffffffff840096ce <decodeRISCVMMUInvocation+0x3f6>
ffffffff840097ce:	00004797          	auipc	a5,0x4
ffffffff840097d2:	83278793          	addi	a5,a5,-1998 # ffffffff8400d000 <riscvKSASIDTable>
ffffffff840097d6:	4705                	li	a4,1
ffffffff840097d8:	44e7b023          	sd	a4,1088(a5)
ffffffff840097dc:	4007b823          	sd	zero,1040(a5)
ffffffff840097e0:	8462                	mv	s0,s8
ffffffff840097e2:	aa15                	j	ffffffff84009916 <decodeRISCVMMUInvocation+0x63e>
ffffffff840097e4:	4795                	li	a5,5
ffffffff840097e6:	00004717          	auipc	a4,0x4
ffffffff840097ea:	c4f73d23          	sd	a5,-934(a4) # ffffffff8400d440 <current_syscall_error+0x30>
ffffffff840097ee:	8462                	mv	s0,s8
ffffffff840097f0:	a21d                	j	ffffffff84009916 <decodeRISCVMMUInvocation+0x63e>
ffffffff840097f2:	00004717          	auipc	a4,0x4
ffffffff840097f6:	80e70713          	addi	a4,a4,-2034 # ffffffff8400d000 <riscvKSASIDTable>
ffffffff840097fa:	00259793          	slli	a5,a1,0x2
ffffffff840097fe:	1fc7f793          	andi	a5,a5,508
ffffffff84009802:	0017e793          	ori	a5,a5,1
ffffffff84009806:	40f73023          	sd	a5,1024(a4)
ffffffff8400980a:	40073423          	sd	zero,1032(a4)
ffffffff8400980e:	4799                	li	a5,6
ffffffff84009810:	44f73023          	sd	a5,1088(a4)
ffffffff84009814:	42073c23          	sd	zero,1080(a4)
ffffffff84009818:	8462                	mv	s0,s8
ffffffff8400981a:	a8f5                	j	ffffffff84009916 <decodeRISCVMMUInvocation+0x63e>
ffffffff8400981c:	00fd8e63          	beq	s11,a5,ffffffff84009838 <decodeRISCVMMUInvocation+0x560>
ffffffff84009820:	00003797          	auipc	a5,0x3
ffffffff84009824:	7e078793          	addi	a5,a5,2016 # ffffffff8400d000 <riscvKSASIDTable>
ffffffff84009828:	4709                	li	a4,2
ffffffff8400982a:	44e7b023          	sd	a4,1088(a5)
ffffffff8400982e:	4705                	li	a4,1
ffffffff84009830:	40e7bc23          	sd	a4,1048(a5)
ffffffff84009834:	8462                	mv	s0,s8
ffffffff84009836:	a0c5                	j	ffffffff84009916 <decodeRISCVMMUInvocation+0x63e>
ffffffff84009838:	01949793          	slli	a5,s1,0x19
ffffffff8400983c:	83e5                	srli	a5,a5,0x19
ffffffff8400983e:	0264d713          	srli	a4,s1,0x26
ffffffff84009842:	8b05                	andi	a4,a4,1
ffffffff84009844:	c701                	beqz	a4,ffffffff8400984c <decodeRISCVMMUInvocation+0x574>
ffffffff84009846:	577d                	li	a4,-1
ffffffff84009848:	171e                	slli	a4,a4,0x27
ffffffff8400984a:	8fd9                	or	a5,a5,a4
ffffffff8400984c:	02fa9963          	bne	s5,a5,ffffffff8400987e <decodeRISCVMMUInvocation+0x5a6>
ffffffff84009850:	0009b703          	ld	a4,0(s3)
ffffffff84009854:	00177793          	andi	a5,a4,1
ffffffff84009858:	ec0782e3          	beqz	a5,ffffffff8400971c <decodeRISCVMMUInvocation+0x444>
ffffffff8400985c:	00175793          	srli	a5,a4,0x1
ffffffff84009860:	00275693          	srli	a3,a4,0x2
ffffffff84009864:	8fd5                	or	a5,a5,a3
ffffffff84009866:	830d                	srli	a4,a4,0x3
ffffffff84009868:	8fd9                	or	a5,a5,a4
ffffffff8400986a:	8b85                	andi	a5,a5,1
ffffffff8400986c:	ea0798e3          	bnez	a5,ffffffff8400971c <decodeRISCVMMUInvocation+0x444>
ffffffff84009870:	47a1                	li	a5,8
ffffffff84009872:	00004717          	auipc	a4,0x4
ffffffff84009876:	bcf73723          	sd	a5,-1074(a4) # ffffffff8400d440 <current_syscall_error+0x30>
ffffffff8400987a:	8462                	mv	s0,s8
ffffffff8400987c:	a869                	j	ffffffff84009916 <decodeRISCVMMUInvocation+0x63e>
ffffffff8400987e:	00003797          	auipc	a5,0x3
ffffffff84009882:	78278793          	addi	a5,a5,1922 # ffffffff8400d000 <riscvKSASIDTable>
ffffffff84009886:	4705                	li	a4,1
ffffffff84009888:	44e7b023          	sd	a4,1088(a5)
ffffffff8400988c:	4007b823          	sd	zero,1040(a5)
ffffffff84009890:	8462                	mv	s0,s8
ffffffff84009892:	a051                	j	ffffffff84009916 <decodeRISCVMMUInvocation+0x63e>
ffffffff84009894:	47a1                	li	a5,8
ffffffff84009896:	00004717          	auipc	a4,0x4
ffffffff8400989a:	baf73523          	sd	a5,-1110(a4) # ffffffff8400d440 <current_syscall_error+0x30>
ffffffff8400989e:	8462                	mv	s0,s8
ffffffff840098a0:	a89d                	j	ffffffff84009916 <decodeRISCVMMUInvocation+0x63e>
ffffffff840098a2:	ee0b03e3          	beqz	s6,ffffffff84009788 <decodeRISCVMMUInvocation+0x4b0>
ffffffff840098a6:	84a2                	mv	s1,s0
ffffffff840098a8:	b709                	j	ffffffff840097aa <decodeRISCVMMUInvocation+0x4d2>
ffffffff840098aa:	4589                	li	a1,2
ffffffff840098ac:	00016517          	auipc	a0,0x16
ffffffff840098b0:	fac53503          	ld	a0,-84(a0) # ffffffff8401f858 <ksCurThread>
ffffffff840098b4:	9eafb0ef          	jal	ra,ffffffff84004a9e <setThreadState>
ffffffff840098b8:	864a                	mv	a2,s2
ffffffff840098ba:	8526                	mv	a0,s1
ffffffff840098bc:	85d2                	mv	a1,s4
ffffffff840098be:	b42f90ef          	jal	ra,ffffffff84002c00 <performPageInvocationUnmap>
ffffffff840098c2:	842a                	mv	s0,a0
ffffffff840098c4:	a889                	j	ffffffff84009916 <decodeRISCVMMUInvocation+0x63e>
ffffffff840098c6:	4589                	li	a1,2
ffffffff840098c8:	00016517          	auipc	a0,0x16
ffffffff840098cc:	f9053503          	ld	a0,-112(a0) # ffffffff8401f858 <ksCurThread>
ffffffff840098d0:	9cefb0ef          	jal	ra,ffffffff84004a9e <setThreadState>
ffffffff840098d4:	009a5793          	srli	a5,s4,0x9
ffffffff840098d8:	01979713          	slli	a4,a5,0x19
ffffffff840098dc:	8365                	srli	a4,a4,0x19
ffffffff840098de:	9399                	srli	a5,a5,0x26
ffffffff840098e0:	8b85                	andi	a5,a5,1
ffffffff840098e2:	c781                	beqz	a5,ffffffff840098ea <decodeRISCVMMUInvocation+0x612>
ffffffff840098e4:	57fd                	li	a5,-1
ffffffff840098e6:	179e                	slli	a5,a5,0x27
ffffffff840098e8:	8f5d                	or	a4,a4,a5
ffffffff840098ea:	00016797          	auipc	a5,0x16
ffffffff840098ee:	f6e7b783          	ld	a5,-146(a5) # ffffffff8401f858 <ksCurThread>
ffffffff840098f2:	4685                	li	a3,1
ffffffff840098f4:	02669613          	slli	a2,a3,0x26
ffffffff840098f8:	9732                	add	a4,a4,a2
ffffffff840098fa:	efb8                	sd	a4,88(a5)
ffffffff840098fc:	ebb4                	sd	a3,80(a5)
ffffffff840098fe:	4401                	li	s0,0
ffffffff84009900:	a819                	j	ffffffff84009916 <decodeRISCVMMUInvocation+0x63e>
ffffffff84009902:	02900793          	li	a5,41
ffffffff84009906:	02f50863          	beq	a0,a5,ffffffff84009936 <decodeRISCVMMUInvocation+0x65e>
ffffffff8400990a:	478d                	li	a5,3
ffffffff8400990c:	00004717          	auipc	a4,0x4
ffffffff84009910:	b2f73a23          	sd	a5,-1228(a4) # ffffffff8400d440 <current_syscall_error+0x30>
ffffffff84009914:	440d                	li	s0,3
ffffffff84009916:	8522                	mv	a0,s0
ffffffff84009918:	60ae                	ld	ra,200(sp)
ffffffff8400991a:	640e                	ld	s0,192(sp)
ffffffff8400991c:	74ea                	ld	s1,184(sp)
ffffffff8400991e:	794a                	ld	s2,176(sp)
ffffffff84009920:	79aa                	ld	s3,168(sp)
ffffffff84009922:	7a0a                	ld	s4,160(sp)
ffffffff84009924:	6aea                	ld	s5,152(sp)
ffffffff84009926:	6b4a                	ld	s6,144(sp)
ffffffff84009928:	6baa                	ld	s7,136(sp)
ffffffff8400992a:	6c0a                	ld	s8,128(sp)
ffffffff8400992c:	7ce6                	ld	s9,120(sp)
ffffffff8400992e:	7d46                	ld	s10,112(sp)
ffffffff84009930:	7da6                	ld	s11,104(sp)
ffffffff84009932:	6169                	addi	sp,sp,208
ffffffff84009934:	8082                	ret
ffffffff84009936:	4785                	li	a5,1
ffffffff84009938:	06b7f163          	bgeu	a5,a1,ffffffff8400999a <decodeRISCVMMUInvocation+0x6c2>
ffffffff8400993c:	00004917          	auipc	s2,0x4
ffffffff84009940:	f5493903          	ld	s2,-172(s2) # ffffffff8400d890 <current_extra_caps>
ffffffff84009944:	04090b63          	beqz	s2,ffffffff8400999a <decodeRISCVMMUInvocation+0x6c2>
ffffffff84009948:	00004797          	auipc	a5,0x4
ffffffff8400994c:	f507b783          	ld	a5,-176(a5) # ffffffff8400d898 <current_extra_caps+0x8>
ffffffff84009950:	c7a9                	beqz	a5,ffffffff8400999a <decodeRISCVMMUInvocation+0x6c2>
ffffffff84009952:	00016717          	auipc	a4,0x16
ffffffff84009956:	f0673703          	ld	a4,-250(a4) # ffffffff8401f858 <ksCurThread>
ffffffff8400995a:	05873a03          	ld	s4,88(a4)
ffffffff8400995e:	06073a83          	ld	s5,96(a4)
ffffffff84009962:	00093983          	ld	s3,0(s2)
ffffffff84009966:	00893603          	ld	a2,8(s2)
ffffffff8400996a:	6398                	ld	a4,0(a5)
ffffffff8400996c:	f83a                	sd	a4,48(sp)
ffffffff8400996e:	679c                	ld	a5,8(a5)
ffffffff84009970:	fc3e                	sd	a5,56(sp)
ffffffff84009972:	00003797          	auipc	a5,0x3
ffffffff84009976:	68e78793          	addi	a5,a5,1678 # ffffffff8400d000 <riscvKSASIDTable>
ffffffff8400997a:	4481                	li	s1,0
ffffffff8400997c:	08000693          	li	a3,128
ffffffff84009980:	6398                	ld	a4,0(a5)
ffffffff84009982:	c31d                	beqz	a4,ffffffff840099a8 <decodeRISCVMMUInvocation+0x6d0>
ffffffff84009984:	0485                	addi	s1,s1,1
ffffffff84009986:	07a1                	addi	a5,a5,8
ffffffff84009988:	fed49ce3          	bne	s1,a3,ffffffff84009980 <decodeRISCVMMUInvocation+0x6a8>
ffffffff8400998c:	47a1                	li	a5,8
ffffffff8400998e:	00004717          	auipc	a4,0x4
ffffffff84009992:	aaf73923          	sd	a5,-1358(a4) # ffffffff8400d440 <current_syscall_error+0x30>
ffffffff84009996:	440d                	li	s0,3
ffffffff84009998:	bfbd                	j	ffffffff84009916 <decodeRISCVMMUInvocation+0x63e>
ffffffff8400999a:	479d                	li	a5,7
ffffffff8400999c:	00004717          	auipc	a4,0x4
ffffffff840099a0:	aaf73223          	sd	a5,-1372(a4) # ffffffff8400d440 <current_syscall_error+0x30>
ffffffff840099a4:	440d                	li	s0,3
ffffffff840099a6:	bf85                	j	ffffffff84009916 <decodeRISCVMMUInvocation+0x63e>
ffffffff840099a8:	08000793          	li	a5,128
ffffffff840099ac:	fef480e3          	beq	s1,a5,ffffffff8400998c <decodeRISCVMMUInvocation+0x6b4>
ffffffff840099b0:	03b9d793          	srli	a5,s3,0x3b
ffffffff840099b4:	4709                	li	a4,2
ffffffff840099b6:	00e79b63          	bne	a5,a4,ffffffff840099cc <decodeRISCVMMUInvocation+0x6f4>
ffffffff840099ba:	03f67793          	andi	a5,a2,63
ffffffff840099be:	4731                	li	a4,12
ffffffff840099c0:	00e79663          	bne	a5,a4,ffffffff840099cc <decodeRISCVMMUInvocation+0x6f4>
ffffffff840099c4:	00665793          	srli	a5,a2,0x6
ffffffff840099c8:	8b85                	andi	a5,a5,1
ffffffff840099ca:	cf89                	beqz	a5,ffffffff840099e4 <decodeRISCVMMUInvocation+0x70c>
ffffffff840099cc:	00003797          	auipc	a5,0x3
ffffffff840099d0:	63478793          	addi	a5,a5,1588 # ffffffff8400d000 <riscvKSASIDTable>
ffffffff840099d4:	4709                	li	a4,2
ffffffff840099d6:	44e7b023          	sd	a4,1088(a5)
ffffffff840099da:	4705                	li	a4,1
ffffffff840099dc:	40e7bc23          	sd	a4,1048(a5)
ffffffff840099e0:	440d                	li	s0,3
ffffffff840099e2:	bf15                	j	ffffffff84009916 <decodeRISCVMMUInvocation+0x63e>
ffffffff840099e4:	854a                	mv	a0,s2
ffffffff840099e6:	ab3fa0ef          	jal	ra,ffffffff84004498 <ensureNoChildren>
ffffffff840099ea:	842a                	mv	s0,a0
ffffffff840099ec:	f50d                	bnez	a0,ffffffff84009916 <decodeRISCVMMUInvocation+0x63e>
ffffffff840099ee:	01999b13          	slli	s6,s3,0x19
ffffffff840099f2:	019b5b13          	srli	s6,s6,0x19
ffffffff840099f6:	0269d793          	srli	a5,s3,0x26
ffffffff840099fa:	8b85                	andi	a5,a5,1
ffffffff840099fc:	c789                	beqz	a5,ffffffff84009a06 <decodeRISCVMMUInvocation+0x72e>
ffffffff840099fe:	57fd                	li	a5,-1
ffffffff84009a00:	179e                	slli	a5,a5,0x27
ffffffff84009a02:	00fb6b33          	or	s6,s6,a5
ffffffff84009a06:	86d6                	mv	a3,s5
ffffffff84009a08:	8652                	mv	a2,s4
ffffffff84009a0a:	7542                	ld	a0,48(sp)
ffffffff84009a0c:	75e2                	ld	a1,56(sp)
ffffffff84009a0e:	9ebf90ef          	jal	ra,ffffffff840033f8 <lookupTargetSlot>
ffffffff84009a12:	e0aa                	sd	a0,64(sp)
ffffffff84009a14:	e4ae                	sd	a1,72(sp)
ffffffff84009a16:	842a                	mv	s0,a0
ffffffff84009a18:	ee051fe3          	bnez	a0,ffffffff84009916 <decodeRISCVMMUInvocation+0x63e>
ffffffff84009a1c:	89ae                	mv	s3,a1
ffffffff84009a1e:	852e                	mv	a0,a1
ffffffff84009a20:	910fa0ef          	jal	ra,ffffffff84003b30 <ensureEmptySlot>
ffffffff84009a24:	842a                	mv	s0,a0
ffffffff84009a26:	ee0518e3          	bnez	a0,ffffffff84009916 <decodeRISCVMMUInvocation+0x63e>
ffffffff84009a2a:	4589                	li	a1,2
ffffffff84009a2c:	00016517          	auipc	a0,0x16
ffffffff84009a30:	e2c53503          	ld	a0,-468(a0) # ffffffff8401f858 <ksCurThread>
ffffffff84009a34:	86afb0ef          	jal	ra,ffffffff84004a9e <setThreadState>
ffffffff84009a38:	00893783          	ld	a5,8(s2)
ffffffff84009a3c:	03f7f713          	andi	a4,a5,63
ffffffff84009a40:	ffc7069b          	addiw	a3,a4,-4
ffffffff84009a44:	02000737          	lui	a4,0x2000
ffffffff84009a48:	00d71733          	sll	a4,a4,a3
ffffffff84009a4c:	179e                	slli	a5,a5,0x27
ffffffff84009a4e:	939d                	srli	a5,a5,0x27
ffffffff84009a50:	8fd9                	or	a5,a5,a4
ffffffff84009a52:	00f93423          	sd	a5,8(s2)
ffffffff84009a56:	6585                	lui	a1,0x1
ffffffff84009a58:	855a                	mv	a0,s6
ffffffff84009a5a:	801ff0ef          	jal	ra,ffffffff8400925a <memzero>
ffffffff84009a5e:	03449793          	slli	a5,s1,0x34
ffffffff84009a62:	0ffff737          	lui	a4,0xffff
ffffffff84009a66:	077e                	slli	a4,a4,0x1f
ffffffff84009a68:	8ff9                	and	a5,a5,a4
ffffffff84009a6a:	002b5713          	srli	a4,s6,0x2
ffffffff84009a6e:	5a7d                	li	s4,-1
ffffffff84009a70:	01ba5693          	srli	a3,s4,0x1b
ffffffff84009a74:	8f75                	and	a4,a4,a3
ffffffff84009a76:	8fd9                	or	a5,a5,a4
ffffffff84009a78:	86ce                	mv	a3,s3
ffffffff84009a7a:	864a                	mv	a2,s2
ffffffff84009a7c:	4535                	li	a0,13
ffffffff84009a7e:	156e                	slli	a0,a0,0x3b
ffffffff84009a80:	8d5d                	or	a0,a0,a5
ffffffff84009a82:	4581                	li	a1,0
ffffffff84009a84:	c01fa0ef          	jal	ra,ffffffff84004684 <cteInsert>
ffffffff84009a88:	009a5793          	srli	a5,s4,0x9
ffffffff84009a8c:	8fe5                	and	a5,a5,s1
ffffffff84009a8e:	078e                	slli	a5,a5,0x3
ffffffff84009a90:	00003717          	auipc	a4,0x3
ffffffff84009a94:	57070713          	addi	a4,a4,1392 # ffffffff8400d000 <riscvKSASIDTable>
ffffffff84009a98:	97ba                	add	a5,a5,a4
ffffffff84009a9a:	0167b023          	sd	s6,0(a5)
ffffffff84009a9e:	bda5                	j	ffffffff84009916 <decodeRISCVMMUInvocation+0x63e>
ffffffff84009aa0:	478d                	li	a5,3
ffffffff84009aa2:	00004717          	auipc	a4,0x4
ffffffff84009aa6:	98f73f23          	sd	a5,-1634(a4) # ffffffff8400d440 <current_syscall_error+0x30>
ffffffff84009aaa:	440d                	li	s0,3
ffffffff84009aac:	b5ad                	j	ffffffff84009916 <decodeRISCVMMUInvocation+0x63e>
ffffffff84009aae:	479d                	li	a5,7
ffffffff84009ab0:	00004717          	auipc	a4,0x4
ffffffff84009ab4:	98f73823          	sd	a5,-1648(a4) # ffffffff8400d440 <current_syscall_error+0x30>
ffffffff84009ab8:	440d                	li	s0,3
ffffffff84009aba:	bdb1                	j	ffffffff84009916 <decodeRISCVMMUInvocation+0x63e>
ffffffff84009abc:	00003797          	auipc	a5,0x3
ffffffff84009ac0:	54478793          	addi	a5,a5,1348 # ffffffff8400d000 <riscvKSASIDTable>
ffffffff84009ac4:	4709                	li	a4,2
ffffffff84009ac6:	44e7b023          	sd	a4,1088(a5)
ffffffff84009aca:	4705                	li	a4,1
ffffffff84009acc:	40e7bc23          	sd	a4,1048(a5)
ffffffff84009ad0:	440d                	li	s0,3
ffffffff84009ad2:	b591                	j	ffffffff84009916 <decodeRISCVMMUInvocation+0x63e>
ffffffff84009ad4:	00003797          	auipc	a5,0x3
ffffffff84009ad8:	52c78793          	addi	a5,a5,1324 # ffffffff8400d000 <riscvKSASIDTable>
ffffffff84009adc:	4719                	li	a4,6
ffffffff84009ade:	44e7b023          	sd	a4,1088(a5)
ffffffff84009ae2:	4207bc23          	sd	zero,1080(a5)
ffffffff84009ae6:	4007b023          	sd	zero,1024(a5)
ffffffff84009aea:	4007b423          	sd	zero,1032(a5)
ffffffff84009aee:	b525                	j	ffffffff84009916 <decodeRISCVMMUInvocation+0x63e>
ffffffff84009af0:	00003797          	auipc	a5,0x3
ffffffff84009af4:	51078793          	addi	a5,a5,1296 # ffffffff8400d000 <riscvKSASIDTable>
ffffffff84009af8:	4709                	li	a4,2
ffffffff84009afa:	44e7b023          	sd	a4,1088(a5)
ffffffff84009afe:	4007bc23          	sd	zero,1048(a5)
ffffffff84009b02:	bd11                	j	ffffffff84009916 <decodeRISCVMMUInvocation+0x63e>
ffffffff84009b04:	0785                	addi	a5,a5,1
ffffffff84009b06:	0721                	addi	a4,a4,8
ffffffff84009b08:	06b78e63          	beq	a5,a1,ffffffff84009b84 <decodeRISCVMMUInvocation+0x8ac>
ffffffff84009b0c:	00c786b3          	add	a3,a5,a2
ffffffff84009b10:	daf5                	beqz	a3,ffffffff84009b04 <decodeRISCVMMUInvocation+0x82c>
ffffffff84009b12:	6314                	ld	a3,0(a4)
ffffffff84009b14:	fae5                	bnez	a3,ffffffff84009b04 <decodeRISCVMMUInvocation+0x82c>
ffffffff84009b16:	20000713          	li	a4,512
ffffffff84009b1a:	06e78563          	beq	a5,a4,ffffffff84009b84 <decodeRISCVMMUInvocation+0x8ac>
ffffffff84009b1e:	00c78433          	add	s0,a5,a2
ffffffff84009b22:	4589                	li	a1,2
ffffffff84009b24:	00016517          	auipc	a0,0x16
ffffffff84009b28:	d3453503          	ld	a0,-716(a0) # ffffffff8401f858 <ksCurThread>
ffffffff84009b2c:	f73fa0ef          	jal	ra,ffffffff84004a9e <setThreadState>
ffffffff84009b30:	0009b683          	ld	a3,0(s3)
ffffffff84009b34:	0089b783          	ld	a5,8(s3)
ffffffff84009b38:	0097d713          	srli	a4,a5,0x9
ffffffff84009b3c:	01971493          	slli	s1,a4,0x19
ffffffff84009b40:	80e5                	srli	s1,s1,0x19
ffffffff84009b42:	9319                	srli	a4,a4,0x26
ffffffff84009b44:	8b05                	andi	a4,a4,1
ffffffff84009b46:	c701                	beqz	a4,ffffffff84009b4e <decodeRISCVMMUInvocation+0x876>
ffffffff84009b48:	577d                	li	a4,-1
ffffffff84009b4a:	171e                	slli	a4,a4,0x27
ffffffff84009b4c:	8cd9                	or	s1,s1,a4
ffffffff84009b4e:	567d                	li	a2,-1
ffffffff84009b50:	02861713          	slli	a4,a2,0x28
ffffffff84009b54:	8f75                	and	a4,a4,a3
ffffffff84009b56:	4685                	li	a3,1
ffffffff84009b58:	169e                	slli	a3,a3,0x27
ffffffff84009b5a:	8f55                	or	a4,a4,a3
ffffffff84009b5c:	00e9b023          	sd	a4,0(s3)
ffffffff84009b60:	8241                	srli	a2,a2,0x10
ffffffff84009b62:	8ff1                	and	a5,a5,a2
ffffffff84009b64:	03041713          	slli	a4,s0,0x30
ffffffff84009b68:	8fd9                	or	a5,a5,a4
ffffffff84009b6a:	00f9b423          	sd	a5,8(s3)
ffffffff84009b6e:	8526                	mv	a0,s1
ffffffff84009b70:	9d3f80ef          	jal	ra,ffffffff84002542 <copyGlobalMappings>
ffffffff84009b74:	1ff47793          	andi	a5,s0,511
ffffffff84009b78:	078e                	slli	a5,a5,0x3
ffffffff84009b7a:	9a3e                	add	s4,s4,a5
ffffffff84009b7c:	009a3023          	sd	s1,0(s4)
ffffffff84009b80:	844a                	mv	s0,s2
ffffffff84009b82:	bb51                	j	ffffffff84009916 <decodeRISCVMMUInvocation+0x63e>
ffffffff84009b84:	47a1                	li	a5,8
ffffffff84009b86:	00004717          	auipc	a4,0x4
ffffffff84009b8a:	8af73d23          	sd	a5,-1862(a4) # ffffffff8400d440 <current_syscall_error+0x30>
ffffffff84009b8e:	b361                	j	ffffffff84009916 <decodeRISCVMMUInvocation+0x63e>
ffffffff84009b90:	ed4f80ef          	jal	ra,ffffffff84002264 <halt>

ffffffff84009b94 <Arch_decodeInvocation>:
ffffffff84009b94:	1101                	addi	sp,sp,-32
ffffffff84009b96:	ec06                	sd	ra,24(sp)
ffffffff84009b98:	8846                	mv	a6,a7
ffffffff84009b9a:	f3eff0ef          	jal	ra,ffffffff840092d8 <decodeRISCVMMUInvocation>
ffffffff84009b9e:	60e2                	ld	ra,24(sp)
ffffffff84009ba0:	6105                	addi	sp,sp,32
ffffffff84009ba2:	8082                	ret

ffffffff84009ba4 <createObject>:
ffffffff84009ba4:	7179                	addi	sp,sp,-48
ffffffff84009ba6:	f406                	sd	ra,40(sp)
ffffffff84009ba8:	f022                	sd	s0,32(sp)
ffffffff84009baa:	ec26                	sd	s1,24(sp)
ffffffff84009bac:	842e                	mv	s0,a1
ffffffff84009bae:	84b2                	mv	s1,a2
ffffffff84009bb0:	4799                	li	a5,6
ffffffff84009bb2:	00a7ee63          	bltu	a5,a0,ffffffff84009bce <createObject+0x2a>
ffffffff84009bb6:	4799                	li	a5,6
ffffffff84009bb8:	0ea7e863          	bltu	a5,a0,ffffffff84009ca8 <createObject+0x104>
ffffffff84009bbc:	050a                	slli	a0,a0,0x2
ffffffff84009bbe:	00002717          	auipc	a4,0x2
ffffffff84009bc2:	0ce70713          	addi	a4,a4,206 # ffffffff8400bc8c <msgRegisters+0x364>
ffffffff84009bc6:	953a                	add	a0,a0,a4
ffffffff84009bc8:	411c                	lw	a5,0(a0)
ffffffff84009bca:	97ba                	add	a5,a5,a4
ffffffff84009bcc:	8782                	jr	a5
ffffffff84009bce:	cd8f90ef          	jal	ra,ffffffff840030a6 <Arch_createObject>
ffffffff84009bd2:	e02a                	sd	a0,0(sp)
ffffffff84009bd4:	e42e                	sd	a1,8(sp)
ffffffff84009bd6:	6502                	ld	a0,0(sp)
ffffffff84009bd8:	65a2                	ld	a1,8(sp)
ffffffff84009bda:	70a2                	ld	ra,40(sp)
ffffffff84009bdc:	7402                	ld	s0,32(sp)
ffffffff84009bde:	64e2                	ld	s1,24(sp)
ffffffff84009be0:	6145                	addi	sp,sp,48
ffffffff84009be2:	8082                	ret
ffffffff84009be4:	02000793          	li	a5,32
ffffffff84009be8:	30f5b023          	sd	a5,768(a1) # 1300 <KERNEL_OFFSET-0xfffffffeffffed00>
ffffffff84009bec:	00016797          	auipc	a5,0x16
ffffffff84009bf0:	c2c7b783          	ld	a5,-980(a5) # ffffffff8401f818 <ksCurDomain>
ffffffff84009bf4:	34f5bc23          	sd	a5,856(a1)
ffffffff84009bf8:	20058413          	addi	s0,a1,512
ffffffff84009bfc:	0466                	slli	s0,s0,0x19
ffffffff84009bfe:	8065                	srli	s0,s0,0x19
ffffffff84009c00:	478d                	li	a5,3
ffffffff84009c02:	17f6                	slli	a5,a5,0x3d
ffffffff84009c04:	8c5d                	or	s0,s0,a5
ffffffff84009c06:	e022                	sd	s0,0(sp)
ffffffff84009c08:	e402                	sd	zero,8(sp)
ffffffff84009c0a:	b7f1                	j	ffffffff84009bd6 <createObject+0x32>
ffffffff84009c0c:	01959413          	slli	s0,a1,0x19
ffffffff84009c10:	8065                	srli	s0,s0,0x19
ffffffff84009c12:	04f00793          	li	a5,79
ffffffff84009c16:	17de                	slli	a5,a5,0x37
ffffffff84009c18:	8c5d                	or	s0,s0,a5
ffffffff84009c1a:	e022                	sd	s0,0(sp)
ffffffff84009c1c:	e402                	sd	zero,8(sp)
ffffffff84009c1e:	bf65                	j	ffffffff84009bd6 <createObject+0x32>
ffffffff84009c20:	01959413          	slli	s0,a1,0x19
ffffffff84009c24:	8065                	srli	s0,s0,0x19
ffffffff84009c26:	47ed                	li	a5,27
ffffffff84009c28:	17e6                	slli	a5,a5,0x39
ffffffff84009c2a:	8c5d                	or	s0,s0,a5
ffffffff84009c2c:	e022                	sd	s0,0(sp)
ffffffff84009c2e:	e402                	sd	zero,8(sp)
ffffffff84009c30:	b75d                	j	ffffffff84009bd6 <createObject+0x32>
ffffffff84009c32:	03f67793          	andi	a5,a2,63
ffffffff84009c36:	17be                	slli	a5,a5,0x2f
ffffffff84009c38:	01959413          	slli	s0,a1,0x19
ffffffff84009c3c:	8069                	srli	s0,s0,0x1a
ffffffff84009c3e:	8fc1                	or	a5,a5,s0
ffffffff84009c40:	4715                	li	a4,5
ffffffff84009c42:	1772                	slli	a4,a4,0x3c
ffffffff84009c44:	8fd9                	or	a5,a5,a4
ffffffff84009c46:	e03e                	sd	a5,0(sp)
ffffffff84009c48:	e402                	sd	zero,8(sp)
ffffffff84009c4a:	b771                	j	ffffffff84009bd6 <createObject+0x32>
ffffffff84009c4c:	01959413          	slli	s0,a1,0x19
ffffffff84009c50:	8065                	srli	s0,s0,0x19
ffffffff84009c52:	4785                	li	a5,1
ffffffff84009c54:	17f2                	slli	a5,a5,0x3c
ffffffff84009c56:	8c5d                	or	s0,s0,a5
ffffffff84009c58:	e022                	sd	s0,0(sp)
ffffffff84009c5a:	00d036b3          	snez	a3,a3
ffffffff84009c5e:	069a                	slli	a3,a3,0x6
ffffffff84009c60:	03f67493          	andi	s1,a2,63
ffffffff84009c64:	8cd5                	or	s1,s1,a3
ffffffff84009c66:	e426                	sd	s1,8(sp)
ffffffff84009c68:	b7bd                	j	ffffffff84009bd6 <createObject+0x32>
ffffffff84009c6a:	4585                	li	a1,1
ffffffff84009c6c:	00c595b3          	sll	a1,a1,a2
ffffffff84009c70:	8522                	mv	a0,s0
ffffffff84009c72:	de8ff0ef          	jal	ra,ffffffff8400925a <memzero>
ffffffff84009c76:	57ed                	li	a5,-5
ffffffff84009c78:	17f2                	slli	a5,a5,0x3c
ffffffff84009c7a:	e03e                	sd	a5,0(sp)
ffffffff84009c7c:	0442                	slli	s0,s0,0x10
ffffffff84009c7e:	fe0007b7          	lui	a5,0xfe000
ffffffff84009c82:	83a5                	srli	a5,a5,0x9
ffffffff84009c84:	8c7d                	and	s0,s0,a5
ffffffff84009c86:	04aa                	slli	s1,s1,0xa
ffffffff84009c88:	67c1                	lui	a5,0x10
ffffffff84009c8a:	17fd                	addi	a5,a5,-1
ffffffff84009c8c:	8cfd                	and	s1,s1,a5
ffffffff84009c8e:	8cc1                	or	s1,s1,s0
ffffffff84009c90:	e426                	sd	s1,8(sp)
ffffffff84009c92:	b791                	j	ffffffff84009bd6 <createObject+0x32>
ffffffff84009c94:	02000593          	li	a1,32
ffffffff84009c98:	8522                	mv	a0,s0
ffffffff84009c9a:	dc0ff0ef          	jal	ra,ffffffff8400925a <memzero>
ffffffff84009c9e:	47c5                	li	a5,17
ffffffff84009ca0:	17ea                	slli	a5,a5,0x3a
ffffffff84009ca2:	e03e                	sd	a5,0(sp)
ffffffff84009ca4:	e422                	sd	s0,8(sp)
ffffffff84009ca6:	bf05                	j	ffffffff84009bd6 <createObject+0x32>
ffffffff84009ca8:	dbcf80ef          	jal	ra,ffffffff84002264 <halt>

ffffffff84009cac <createNewObjects>:
ffffffff84009cac:	711d                	addi	sp,sp,-96
ffffffff84009cae:	ec86                	sd	ra,88(sp)
ffffffff84009cb0:	e8a2                	sd	s0,80(sp)
ffffffff84009cb2:	e4a6                	sd	s1,72(sp)
ffffffff84009cb4:	e0ca                	sd	s2,64(sp)
ffffffff84009cb6:	fc4e                	sd	s3,56(sp)
ffffffff84009cb8:	f852                	sd	s4,48(sp)
ffffffff84009cba:	f456                	sd	s5,40(sp)
ffffffff84009cbc:	f05a                	sd	s6,32(sp)
ffffffff84009cbe:	ec5e                	sd	s7,24(sp)
ffffffff84009cc0:	e862                	sd	s8,16(sp)
ffffffff84009cc2:	8aaa                	mv	s5,a0
ffffffff84009cc4:	8b2e                	mv	s6,a1
ffffffff84009cc6:	84b2                	mv	s1,a2
ffffffff84009cc8:	8436                	mv	s0,a3
ffffffff84009cca:	893a                	mv	s2,a4
ffffffff84009ccc:	8bbe                	mv	s7,a5
ffffffff84009cce:	89c2                	mv	s3,a6
ffffffff84009cd0:	8c46                	mv	s8,a7
ffffffff84009cd2:	85c2                	mv	a1,a6
ffffffff84009cd4:	85afa0ef          	jal	ra,ffffffff84003d2e <getObjectSize>
ffffffff84009cd8:	02090a63          	beqz	s2,ffffffff84009d0c <createNewObjects+0x60>
ffffffff84009cdc:	00050a1b          	sext.w	s4,a0
ffffffff84009ce0:	0416                	slli	s0,s0,0x5
ffffffff84009ce2:	94a2                	add	s1,s1,s0
ffffffff84009ce4:	4401                	li	s0,0
ffffffff84009ce6:	014415b3          	sll	a1,s0,s4
ffffffff84009cea:	86e2                	mv	a3,s8
ffffffff84009cec:	864e                	mv	a2,s3
ffffffff84009cee:	95de                	add	a1,a1,s7
ffffffff84009cf0:	8556                	mv	a0,s5
ffffffff84009cf2:	eb3ff0ef          	jal	ra,ffffffff84009ba4 <createObject>
ffffffff84009cf6:	862a                	mv	a2,a0
ffffffff84009cf8:	86ae                	mv	a3,a1
ffffffff84009cfa:	85a6                	mv	a1,s1
ffffffff84009cfc:	855a                	mv	a0,s6
ffffffff84009cfe:	dd7f90ef          	jal	ra,ffffffff84003ad4 <insertNewCap>
ffffffff84009d02:	0405                	addi	s0,s0,1
ffffffff84009d04:	02048493          	addi	s1,s1,32
ffffffff84009d08:	fc891fe3          	bne	s2,s0,ffffffff84009ce6 <createNewObjects+0x3a>
ffffffff84009d0c:	60e6                	ld	ra,88(sp)
ffffffff84009d0e:	6446                	ld	s0,80(sp)
ffffffff84009d10:	64a6                	ld	s1,72(sp)
ffffffff84009d12:	6906                	ld	s2,64(sp)
ffffffff84009d14:	79e2                	ld	s3,56(sp)
ffffffff84009d16:	7a42                	ld	s4,48(sp)
ffffffff84009d18:	7aa2                	ld	s5,40(sp)
ffffffff84009d1a:	7b02                	ld	s6,32(sp)
ffffffff84009d1c:	6be2                	ld	s7,24(sp)
ffffffff84009d1e:	6c42                	ld	s8,16(sp)
ffffffff84009d20:	6125                	addi	sp,sp,96
ffffffff84009d22:	8082                	ret

ffffffff84009d24 <invokeUntyped_Retype>:
ffffffff84009d24:	7159                	addi	sp,sp,-112
ffffffff84009d26:	f486                	sd	ra,104(sp)
ffffffff84009d28:	f0a2                	sd	s0,96(sp)
ffffffff84009d2a:	eca6                	sd	s1,88(sp)
ffffffff84009d2c:	e8ca                	sd	s2,80(sp)
ffffffff84009d2e:	e4ce                	sd	s3,72(sp)
ffffffff84009d30:	e0d2                	sd	s4,64(sp)
ffffffff84009d32:	fc56                	sd	s5,56(sp)
ffffffff84009d34:	f85a                	sd	s6,48(sp)
ffffffff84009d36:	f45e                	sd	s7,40(sp)
ffffffff84009d38:	f062                	sd	s8,32(sp)
ffffffff84009d3a:	ec66                	sd	s9,24(sp)
ffffffff84009d3c:	e86a                	sd	s10,16(sp)
ffffffff84009d3e:	e46e                	sd	s11,8(sp)
ffffffff84009d40:	842a                	mv	s0,a0
ffffffff84009d42:	89b2                	mv	s3,a2
ffffffff84009d44:	84b6                	mv	s1,a3
ffffffff84009d46:	8a3a                	mv	s4,a4
ffffffff84009d48:	8abe                	mv	s5,a5
ffffffff84009d4a:	8b42                	mv	s6,a6
ffffffff84009d4c:	8946                	mv	s2,a7
ffffffff84009d4e:	00053c83          	ld	s9,0(a0)
ffffffff84009d52:	019c9b93          	slli	s7,s9,0x19
ffffffff84009d56:	019bdb93          	srli	s7,s7,0x19
ffffffff84009d5a:	026cd793          	srli	a5,s9,0x26
ffffffff84009d5e:	8b85                	andi	a5,a5,1
ffffffff84009d60:	c789                	beqz	a5,ffffffff84009d6a <invokeUntyped_Retype+0x46>
ffffffff84009d62:	57fd                	li	a5,-1
ffffffff84009d64:	179e                	slli	a5,a5,0x27
ffffffff84009d66:	00fbebb3          	or	s7,s7,a5
ffffffff84009d6a:	cd85                	beqz	a1,ffffffff84009da2 <invokeUntyped_Retype+0x7e>
ffffffff84009d6c:	00843d03          	ld	s10,8(s0)
ffffffff84009d70:	019d5793          	srli	a5,s10,0x19
ffffffff84009d74:	00479c13          	slli	s8,a5,0x4
ffffffff84009d78:	c78d                	beqz	a5,ffffffff84009da2 <invokeUntyped_Retype+0x7e>
ffffffff84009d7a:	006d5793          	srli	a5,s10,0x6
ffffffff84009d7e:	8b85                	andi	a5,a5,1
ffffffff84009d80:	eb91                	bnez	a5,ffffffff84009d94 <invokeUntyped_Retype+0x70>
ffffffff84009d82:	038d7793          	andi	a5,s10,56
ffffffff84009d86:	ebbd                	bnez	a5,ffffffff84009dfc <invokeUntyped_Retype+0xd8>
ffffffff84009d88:	4585                	li	a1,1
ffffffff84009d8a:	01a595b3          	sll	a1,a1,s10
ffffffff84009d8e:	855e                	mv	a0,s7
ffffffff84009d90:	ccaff0ef          	jal	ra,ffffffff8400925a <memzero>
ffffffff84009d94:	01943023          	sd	s9,0(s0)
ffffffff84009d98:	1d1e                	slli	s10,s10,0x27
ffffffff84009d9a:	027d5d13          	srli	s10,s10,0x27
ffffffff84009d9e:	01a43423          	sd	s10,8(s0)
ffffffff84009da2:	85d2                	mv	a1,s4
ffffffff84009da4:	8526                	mv	a0,s1
ffffffff84009da6:	f89f90ef          	jal	ra,ffffffff84003d2e <getObjectSize>
ffffffff84009daa:	00a91333          	sll	t1,s2,a0
ffffffff84009dae:	41798bb3          	sub	s7,s3,s7
ffffffff84009db2:	935e                	add	t1,t1,s7
ffffffff84009db4:	00435313          	srli	t1,t1,0x4
ffffffff84009db8:	0366                	slli	t1,t1,0x19
ffffffff84009dba:	641c                	ld	a5,8(s0)
ffffffff84009dbc:	179e                	slli	a5,a5,0x27
ffffffff84009dbe:	939d                	srli	a5,a5,0x27
ffffffff84009dc0:	00f36333          	or	t1,t1,a5
ffffffff84009dc4:	00643423          	sd	t1,8(s0)
ffffffff84009dc8:	78c6                	ld	a7,112(sp)
ffffffff84009dca:	8852                	mv	a6,s4
ffffffff84009dcc:	87ce                	mv	a5,s3
ffffffff84009dce:	874a                	mv	a4,s2
ffffffff84009dd0:	86da                	mv	a3,s6
ffffffff84009dd2:	8656                	mv	a2,s5
ffffffff84009dd4:	85a2                	mv	a1,s0
ffffffff84009dd6:	8526                	mv	a0,s1
ffffffff84009dd8:	ed5ff0ef          	jal	ra,ffffffff84009cac <createNewObjects>
ffffffff84009ddc:	4501                	li	a0,0
ffffffff84009dde:	70a6                	ld	ra,104(sp)
ffffffff84009de0:	7406                	ld	s0,96(sp)
ffffffff84009de2:	64e6                	ld	s1,88(sp)
ffffffff84009de4:	6946                	ld	s2,80(sp)
ffffffff84009de6:	69a6                	ld	s3,72(sp)
ffffffff84009de8:	6a06                	ld	s4,64(sp)
ffffffff84009dea:	7ae2                	ld	s5,56(sp)
ffffffff84009dec:	7b42                	ld	s6,48(sp)
ffffffff84009dee:	7ba2                	ld	s7,40(sp)
ffffffff84009df0:	7c02                	ld	s8,32(sp)
ffffffff84009df2:	6ce2                	ld	s9,24(sp)
ffffffff84009df4:	6d42                	ld	s10,16(sp)
ffffffff84009df6:	6da2                	ld	s11,8(sp)
ffffffff84009df8:	6165                	addi	sp,sp,112
ffffffff84009dfa:	8082                	ret
ffffffff84009dfc:	1c7d                	addi	s8,s8,-1
ffffffff84009dfe:	f00c7c13          	andi	s8,s8,-256
ffffffff84009e02:	1d1e                	slli	s10,s10,0x27
ffffffff84009e04:	027d5d13          	srli	s10,s10,0x27
ffffffff84009e08:	f0000d93          	li	s11,-256
ffffffff84009e0c:	10000593          	li	a1,256
ffffffff84009e10:	018b8533          	add	a0,s7,s8
ffffffff84009e14:	c46ff0ef          	jal	ra,ffffffff8400925a <memzero>
ffffffff84009e18:	01943023          	sd	s9,0(s0)
ffffffff84009e1c:	004c5793          	srli	a5,s8,0x4
ffffffff84009e20:	07e6                	slli	a5,a5,0x19
ffffffff84009e22:	01a7e7b3          	or	a5,a5,s10
ffffffff84009e26:	e41c                	sd	a5,8(s0)
ffffffff84009e28:	b2efd0ef          	jal	ra,ffffffff84007156 <preemptionPoint>
ffffffff84009e2c:	f94d                	bnez	a0,ffffffff84009dde <invokeUntyped_Retype+0xba>
ffffffff84009e2e:	f00c0c13          	addi	s8,s8,-256
ffffffff84009e32:	fdbc1de3          	bne	s8,s11,ffffffff84009e0c <invokeUntyped_Retype+0xe8>
ffffffff84009e36:	b7b5                	j	ffffffff84009da2 <invokeUntyped_Retype+0x7e>

ffffffff84009e38 <decodeUntypedInvocation>:
ffffffff84009e38:	7171                	addi	sp,sp,-176
ffffffff84009e3a:	f506                	sd	ra,168(sp)
ffffffff84009e3c:	f122                	sd	s0,160(sp)
ffffffff84009e3e:	ed26                	sd	s1,152(sp)
ffffffff84009e40:	e94a                	sd	s2,144(sp)
ffffffff84009e42:	e54e                	sd	s3,136(sp)
ffffffff84009e44:	e152                	sd	s4,128(sp)
ffffffff84009e46:	fcd6                	sd	s5,120(sp)
ffffffff84009e48:	f8da                	sd	s6,112(sp)
ffffffff84009e4a:	f4de                	sd	s7,104(sp)
ffffffff84009e4c:	f0e2                	sd	s8,96(sp)
ffffffff84009e4e:	ece6                	sd	s9,88(sp)
ffffffff84009e50:	e8ea                	sd	s10,80(sp)
ffffffff84009e52:	e4ee                	sd	s11,72(sp)
ffffffff84009e54:	e836                	sd	a3,16(sp)
ffffffff84009e56:	ec3a                	sd	a4,24(sp)
ffffffff84009e58:	4785                	li	a5,1
ffffffff84009e5a:	16f51963          	bne	a0,a5,ffffffff84009fcc <decodeUntypedInvocation+0x194>
ffffffff84009e5e:	842a                	mv	s0,a0
ffffffff84009e60:	84b2                	mv	s1,a2
ffffffff84009e62:	8b42                	mv	s6,a6
ffffffff84009e64:	4795                	li	a5,5
ffffffff84009e66:	18b7f863          	bgeu	a5,a1,ffffffff84009ff6 <decodeUntypedInvocation+0x1be>
ffffffff84009e6a:	00004d97          	auipc	s11,0x4
ffffffff84009e6e:	a26dbd83          	ld	s11,-1498(s11) # ffffffff8400d890 <current_extra_caps>
ffffffff84009e72:	180d8263          	beqz	s11,ffffffff84009ff6 <decodeUntypedInvocation+0x1be>
ffffffff84009e76:	00016c17          	auipc	s8,0x16
ffffffff84009e7a:	9e2c3c03          	ld	s8,-1566(s8) # ffffffff8401f858 <ksCurThread>
ffffffff84009e7e:	058c3903          	ld	s2,88(s8)
ffffffff84009e82:	47a9                	li	a5,10
ffffffff84009e84:	1927e063          	bltu	a5,s2,ffffffff8400a004 <decodeUntypedInvocation+0x1cc>
ffffffff84009e88:	060c3a03          	ld	s4,96(s8)
ffffffff84009e8c:	85d2                	mv	a1,s4
ffffffff84009e8e:	854a                	mv	a0,s2
ffffffff84009e90:	e9ff90ef          	jal	ra,ffffffff84003d2e <getObjectSize>
ffffffff84009e94:	89aa                	mv	s3,a0
ffffffff84009e96:	03f00793          	li	a5,63
ffffffff84009e9a:	1947e063          	bltu	a5,s4,ffffffff8400a01a <decodeUntypedInvocation+0x1e2>
ffffffff84009e9e:	02600793          	li	a5,38
ffffffff84009ea2:	16a7ec63          	bltu	a5,a0,ffffffff8400a01a <decodeUntypedInvocation+0x1e2>
ffffffff84009ea6:	4791                	li	a5,4
ffffffff84009ea8:	18f90863          	beq	s2,a5,ffffffff8400a038 <decodeUntypedInvocation+0x200>
ffffffff84009eac:	1a091e63          	bnez	s2,ffffffff8400a068 <decodeUntypedInvocation+0x230>
ffffffff84009eb0:	478d                	li	a5,3
ffffffff84009eb2:	1b47f063          	bgeu	a5,s4,ffffffff8400a052 <decodeUntypedInvocation+0x21a>
ffffffff84009eb6:	6d62                	ld	s10,24(sp)
ffffffff84009eb8:	070c3a83          	ld	s5,112(s8)
ffffffff84009ebc:	028b3b83          	ld	s7,40(s6)
ffffffff84009ec0:	030b3c83          	ld	s9,48(s6)
ffffffff84009ec4:	1c0a9363          	bnez	s5,ffffffff8400a08a <decodeUntypedInvocation+0x252>
ffffffff84009ec8:	000db783          	ld	a5,0(s11)
ffffffff84009ecc:	03b7d713          	srli	a4,a5,0x3b
ffffffff84009ed0:	46a9                	li	a3,10
ffffffff84009ed2:	1cd71c63          	bne	a4,a3,ffffffff8400a0aa <decodeUntypedInvocation+0x272>
ffffffff84009ed6:	02f7d713          	srli	a4,a5,0x2f
ffffffff84009eda:	4685                	li	a3,1
ffffffff84009edc:	00e69733          	sll	a4,a3,a4
ffffffff84009ee0:	fff70693          	addi	a3,a4,-1
ffffffff84009ee4:	1f76e863          	bltu	a3,s7,ffffffff8400a0d4 <decodeUntypedInvocation+0x29c>
ffffffff84009ee8:	fffc8693          	addi	a3,s9,-1
ffffffff84009eec:	0ff00613          	li	a2,255
ffffffff84009ef0:	1ed66f63          	bltu	a2,a3,ffffffff8400a0ee <decodeUntypedInvocation+0x2b6>
ffffffff84009ef4:	41770733          	sub	a4,a4,s7
ffffffff84009ef8:	21976b63          	bltu	a4,s9,ffffffff8400a10e <decodeUntypedInvocation+0x2d6>
ffffffff84009efc:	0786                	slli	a5,a5,0x1
ffffffff84009efe:	fc000ab7          	lui	s5,0xfc000
ffffffff84009f02:	019ada93          	srli	s5,s5,0x19
ffffffff84009f06:	0157f733          	and	a4,a5,s5
ffffffff84009f0a:	9399                	srli	a5,a5,0x26
ffffffff84009f0c:	8b85                	andi	a5,a5,1
ffffffff84009f0e:	c781                	beqz	a5,ffffffff84009f16 <decodeUntypedInvocation+0xde>
ffffffff84009f10:	57fd                	li	a5,-1
ffffffff84009f12:	179e                	slli	a5,a5,0x27
ffffffff84009f14:	8f5d                	or	a4,a4,a5
ffffffff84009f16:	8dba                	mv	s11,a4
ffffffff84009f18:	017c8c33          	add	s8,s9,s7
ffffffff84009f1c:	018bff63          	bgeu	s7,s8,ffffffff84009f3a <decodeUntypedInvocation+0x102>
ffffffff84009f20:	005b9a93          	slli	s5,s7,0x5
ffffffff84009f24:	9aba                	add	s5,s5,a4
ffffffff84009f26:	8b5e                	mv	s6,s7
ffffffff84009f28:	8556                	mv	a0,s5
ffffffff84009f2a:	c07f90ef          	jal	ra,ffffffff84003b30 <ensureEmptySlot>
ffffffff84009f2e:	e54d                	bnez	a0,ffffffff84009fd8 <decodeUntypedInvocation+0x1a0>
ffffffff84009f30:	0b05                	addi	s6,s6,1
ffffffff84009f32:	020a8a93          	addi	s5,s5,32 # fffffffffc000020 <ki_end+0x77fdb020>
ffffffff84009f36:	ff8b19e3          	bne	s6,s8,ffffffff84009f28 <decodeUntypedInvocation+0xf0>
ffffffff84009f3a:	8526                	mv	a0,s1
ffffffff84009f3c:	d5cfa0ef          	jal	ra,ffffffff84004498 <ensureNoChildren>
ffffffff84009f40:	c501                	beqz	a0,ffffffff84009f48 <decodeUntypedInvocation+0x110>
ffffffff84009f42:	019d5513          	srli	a0,s10,0x19
ffffffff84009f46:	4401                	li	s0,0
ffffffff84009f48:	67c2                	ld	a5,16(sp)
ffffffff84009f4a:	01979a93          	slli	s5,a5,0x19
ffffffff84009f4e:	019ad713          	srli	a4,s5,0x19
ffffffff84009f52:	9399                	srli	a5,a5,0x26
ffffffff84009f54:	8b85                	andi	a5,a5,1
ffffffff84009f56:	c781                	beqz	a5,ffffffff84009f5e <decodeUntypedInvocation+0x126>
ffffffff84009f58:	57fd                	li	a5,-1
ffffffff84009f5a:	179e                	slli	a5,a5,0x27
ffffffff84009f5c:	8f5d                	or	a4,a4,a5
ffffffff84009f5e:	0512                	slli	a0,a0,0x4
ffffffff84009f60:	4785                	li	a5,1
ffffffff84009f62:	01a797b3          	sll	a5,a5,s10
ffffffff84009f66:	8f89                	sub	a5,a5,a0
ffffffff84009f68:	0009869b          	sext.w	a3,s3
ffffffff84009f6c:	0137d9b3          	srl	s3,a5,s3
ffffffff84009f70:	1b99ed63          	bltu	s3,s9,ffffffff8400a12a <decodeUntypedInvocation+0x2f2>
ffffffff84009f74:	006d5993          	srli	s3,s10,0x6
ffffffff84009f78:	0019f993          	andi	s3,s3,1
ffffffff84009f7c:	00098963          	beqz	s3,ffffffff84009f8e <decodeUntypedInvocation+0x156>
ffffffff84009f80:	ff990793          	addi	a5,s2,-7
ffffffff84009f84:	4609                	li	a2,2
ffffffff84009f86:	00f67463          	bgeu	a2,a5,ffffffff84009f8e <decodeUntypedInvocation+0x156>
ffffffff84009f8a:	1a091b63          	bnez	s2,ffffffff8400a140 <decodeUntypedInvocation+0x308>
ffffffff84009f8e:	4785                	li	a5,1
ffffffff84009f90:	00d797b3          	sll	a5,a5,a3
ffffffff84009f94:	fff78a93          	addi	s5,a5,-1 # ffff <KERNEL_OFFSET-0xfffffffeffff0001>
ffffffff84009f98:	9556                	add	a0,a0,s5
ffffffff84009f9a:	00e50ab3          	add	s5,a0,a4
ffffffff84009f9e:	40f007b3          	neg	a5,a5
ffffffff84009fa2:	00fafab3          	and	s5,s5,a5
ffffffff84009fa6:	4589                	li	a1,2
ffffffff84009fa8:	00016517          	auipc	a0,0x16
ffffffff84009fac:	8b053503          	ld	a0,-1872(a0) # ffffffff8401f858 <ksCurThread>
ffffffff84009fb0:	aeffa0ef          	jal	ra,ffffffff84004a9e <setThreadState>
ffffffff84009fb4:	e04e                	sd	s3,0(sp)
ffffffff84009fb6:	88e6                	mv	a7,s9
ffffffff84009fb8:	885e                	mv	a6,s7
ffffffff84009fba:	87ee                	mv	a5,s11
ffffffff84009fbc:	8752                	mv	a4,s4
ffffffff84009fbe:	86ca                	mv	a3,s2
ffffffff84009fc0:	8656                	mv	a2,s5
ffffffff84009fc2:	85a2                	mv	a1,s0
ffffffff84009fc4:	8526                	mv	a0,s1
ffffffff84009fc6:	d5fff0ef          	jal	ra,ffffffff84009d24 <invokeUntyped_Retype>
ffffffff84009fca:	a039                	j	ffffffff84009fd8 <decodeUntypedInvocation+0x1a0>
ffffffff84009fcc:	478d                	li	a5,3
ffffffff84009fce:	00003717          	auipc	a4,0x3
ffffffff84009fd2:	46f73923          	sd	a5,1138(a4) # ffffffff8400d440 <current_syscall_error+0x30>
ffffffff84009fd6:	450d                	li	a0,3
ffffffff84009fd8:	70aa                	ld	ra,168(sp)
ffffffff84009fda:	740a                	ld	s0,160(sp)
ffffffff84009fdc:	64ea                	ld	s1,152(sp)
ffffffff84009fde:	694a                	ld	s2,144(sp)
ffffffff84009fe0:	69aa                	ld	s3,136(sp)
ffffffff84009fe2:	6a0a                	ld	s4,128(sp)
ffffffff84009fe4:	7ae6                	ld	s5,120(sp)
ffffffff84009fe6:	7b46                	ld	s6,112(sp)
ffffffff84009fe8:	7ba6                	ld	s7,104(sp)
ffffffff84009fea:	7c06                	ld	s8,96(sp)
ffffffff84009fec:	6ce6                	ld	s9,88(sp)
ffffffff84009fee:	6d46                	ld	s10,80(sp)
ffffffff84009ff0:	6da6                	ld	s11,72(sp)
ffffffff84009ff2:	614d                	addi	sp,sp,176
ffffffff84009ff4:	8082                	ret
ffffffff84009ff6:	479d                	li	a5,7
ffffffff84009ff8:	00003717          	auipc	a4,0x3
ffffffff84009ffc:	44f73423          	sd	a5,1096(a4) # ffffffff8400d440 <current_syscall_error+0x30>
ffffffff8400a000:	450d                	li	a0,3
ffffffff8400a002:	bfd9                	j	ffffffff84009fd8 <decodeUntypedInvocation+0x1a0>
ffffffff8400a004:	00003797          	auipc	a5,0x3
ffffffff8400a008:	ffc78793          	addi	a5,a5,-4 # ffffffff8400d000 <riscvKSASIDTable>
ffffffff8400a00c:	4705                	li	a4,1
ffffffff8400a00e:	44e7b023          	sd	a4,1088(a5)
ffffffff8400a012:	4007b823          	sd	zero,1040(a5)
ffffffff8400a016:	450d                	li	a0,3
ffffffff8400a018:	b7c1                	j	ffffffff84009fd8 <decodeUntypedInvocation+0x1a0>
ffffffff8400a01a:	00003797          	auipc	a5,0x3
ffffffff8400a01e:	fe678793          	addi	a5,a5,-26 # ffffffff8400d000 <riscvKSASIDTable>
ffffffff8400a022:	4711                	li	a4,4
ffffffff8400a024:	44e7b023          	sd	a4,1088(a5)
ffffffff8400a028:	4207b023          	sd	zero,1056(a5)
ffffffff8400a02c:	02600713          	li	a4,38
ffffffff8400a030:	42e7b423          	sd	a4,1064(a5)
ffffffff8400a034:	450d                	li	a0,3
ffffffff8400a036:	b74d                	j	ffffffff84009fd8 <decodeUntypedInvocation+0x1a0>
ffffffff8400a038:	e60a1fe3          	bnez	s4,ffffffff84009eb6 <decodeUntypedInvocation+0x7e>
ffffffff8400a03c:	00003797          	auipc	a5,0x3
ffffffff8400a040:	fc478793          	addi	a5,a5,-60 # ffffffff8400d000 <riscvKSASIDTable>
ffffffff8400a044:	4705                	li	a4,1
ffffffff8400a046:	44e7b023          	sd	a4,1088(a5)
ffffffff8400a04a:	40e7b823          	sd	a4,1040(a5)
ffffffff8400a04e:	450d                	li	a0,3
ffffffff8400a050:	b761                	j	ffffffff84009fd8 <decodeUntypedInvocation+0x1a0>
ffffffff8400a052:	00003797          	auipc	a5,0x3
ffffffff8400a056:	fae78793          	addi	a5,a5,-82 # ffffffff8400d000 <riscvKSASIDTable>
ffffffff8400a05a:	4705                	li	a4,1
ffffffff8400a05c:	44e7b023          	sd	a4,1088(a5)
ffffffff8400a060:	40e7b823          	sd	a4,1040(a5)
ffffffff8400a064:	450d                	li	a0,3
ffffffff8400a066:	bf8d                	j	ffffffff84009fd8 <decodeUntypedInvocation+0x1a0>
ffffffff8400a068:	4795                	li	a5,5
ffffffff8400a06a:	e4f916e3          	bne	s2,a5,ffffffff84009eb6 <decodeUntypedInvocation+0x7e>
ffffffff8400a06e:	479d                	li	a5,7
ffffffff8400a070:	e547e3e3          	bltu	a5,s4,ffffffff84009eb6 <decodeUntypedInvocation+0x7e>
ffffffff8400a074:	00003797          	auipc	a5,0x3
ffffffff8400a078:	f8c78793          	addi	a5,a5,-116 # ffffffff8400d000 <riscvKSASIDTable>
ffffffff8400a07c:	4705                	li	a4,1
ffffffff8400a07e:	44e7b023          	sd	a4,1088(a5)
ffffffff8400a082:	40e7b823          	sd	a4,1040(a5)
ffffffff8400a086:	450d                	li	a0,3
ffffffff8400a088:	bf81                	j	ffffffff84009fd8 <decodeUntypedInvocation+0x1a0>
ffffffff8400a08a:	000db503          	ld	a0,0(s11)
ffffffff8400a08e:	f02a                	sd	a0,32(sp)
ffffffff8400a090:	008db583          	ld	a1,8(s11)
ffffffff8400a094:	f42e                	sd	a1,40(sp)
ffffffff8400a096:	86d6                	mv	a3,s5
ffffffff8400a098:	068c3603          	ld	a2,104(s8)
ffffffff8400a09c:	b5cf90ef          	jal	ra,ffffffff840033f8 <lookupTargetSlot>
ffffffff8400a0a0:	f82a                	sd	a0,48(sp)
ffffffff8400a0a2:	fc2e                	sd	a1,56(sp)
ffffffff8400a0a4:	f915                	bnez	a0,ffffffff84009fd8 <decodeUntypedInvocation+0x1a0>
ffffffff8400a0a6:	619c                	ld	a5,0(a1)
ffffffff8400a0a8:	b515                	j	ffffffff84009ecc <decodeUntypedInvocation+0x94>
ffffffff8400a0aa:	00003717          	auipc	a4,0x3
ffffffff8400a0ae:	f5670713          	addi	a4,a4,-170 # ffffffff8400d000 <riscvKSASIDTable>
ffffffff8400a0b2:	4799                	li	a5,6
ffffffff8400a0b4:	44f73023          	sd	a5,1088(a4)
ffffffff8400a0b8:	42073c23          	sd	zero,1080(a4)
ffffffff8400a0bc:	002a9793          	slli	a5,s5,0x2
ffffffff8400a0c0:	1fc7f793          	andi	a5,a5,508
ffffffff8400a0c4:	0017e793          	ori	a5,a5,1
ffffffff8400a0c8:	40f73023          	sd	a5,1024(a4)
ffffffff8400a0cc:	40073423          	sd	zero,1032(a4)
ffffffff8400a0d0:	450d                	li	a0,3
ffffffff8400a0d2:	b719                	j	ffffffff84009fd8 <decodeUntypedInvocation+0x1a0>
ffffffff8400a0d4:	00003797          	auipc	a5,0x3
ffffffff8400a0d8:	f2c78793          	addi	a5,a5,-212 # ffffffff8400d000 <riscvKSASIDTable>
ffffffff8400a0dc:	4711                	li	a4,4
ffffffff8400a0de:	44e7b023          	sd	a4,1088(a5)
ffffffff8400a0e2:	4207b023          	sd	zero,1056(a5)
ffffffff8400a0e6:	42d7b423          	sd	a3,1064(a5)
ffffffff8400a0ea:	450d                	li	a0,3
ffffffff8400a0ec:	b5f5                	j	ffffffff84009fd8 <decodeUntypedInvocation+0x1a0>
ffffffff8400a0ee:	00003797          	auipc	a5,0x3
ffffffff8400a0f2:	f1278793          	addi	a5,a5,-238 # ffffffff8400d000 <riscvKSASIDTable>
ffffffff8400a0f6:	4711                	li	a4,4
ffffffff8400a0f8:	44e7b023          	sd	a4,1088(a5)
ffffffff8400a0fc:	4705                	li	a4,1
ffffffff8400a0fe:	42e7b023          	sd	a4,1056(a5)
ffffffff8400a102:	10000713          	li	a4,256
ffffffff8400a106:	42e7b423          	sd	a4,1064(a5)
ffffffff8400a10a:	450d                	li	a0,3
ffffffff8400a10c:	b5f1                	j	ffffffff84009fd8 <decodeUntypedInvocation+0x1a0>
ffffffff8400a10e:	00003797          	auipc	a5,0x3
ffffffff8400a112:	ef278793          	addi	a5,a5,-270 # ffffffff8400d000 <riscvKSASIDTable>
ffffffff8400a116:	4691                	li	a3,4
ffffffff8400a118:	44d7b023          	sd	a3,1088(a5)
ffffffff8400a11c:	4685                	li	a3,1
ffffffff8400a11e:	42d7b023          	sd	a3,1056(a5)
ffffffff8400a122:	42e7b423          	sd	a4,1064(a5)
ffffffff8400a126:	450d                	li	a0,3
ffffffff8400a128:	bd45                	j	ffffffff84009fd8 <decodeUntypedInvocation+0x1a0>
ffffffff8400a12a:	00003717          	auipc	a4,0x3
ffffffff8400a12e:	ed670713          	addi	a4,a4,-298 # ffffffff8400d000 <riscvKSASIDTable>
ffffffff8400a132:	46a9                	li	a3,10
ffffffff8400a134:	44d73023          	sd	a3,1088(a4)
ffffffff8400a138:	42f73823          	sd	a5,1072(a4)
ffffffff8400a13c:	450d                	li	a0,3
ffffffff8400a13e:	bd69                	j	ffffffff84009fd8 <decodeUntypedInvocation+0x1a0>
ffffffff8400a140:	00003797          	auipc	a5,0x3
ffffffff8400a144:	ec078793          	addi	a5,a5,-320 # ffffffff8400d000 <riscvKSASIDTable>
ffffffff8400a148:	4705                	li	a4,1
ffffffff8400a14a:	44e7b023          	sd	a4,1088(a5)
ffffffff8400a14e:	40e7b823          	sd	a4,1040(a5)
ffffffff8400a152:	450d                	li	a0,3
ffffffff8400a154:	b551                	j	ffffffff84009fd8 <decodeUntypedInvocation+0x1a0>

ffffffff8400a156 <decodeInvocation>:
ffffffff8400a156:	715d                	addi	sp,sp,-80
ffffffff8400a158:	e486                	sd	ra,72(sp)
ffffffff8400a15a:	e0a2                	sd	s0,64(sp)
ffffffff8400a15c:	fc26                	sd	s1,56(sp)
ffffffff8400a15e:	f84a                	sd	s2,48(sp)
ffffffff8400a160:	f44e                	sd	s3,40(sp)
ffffffff8400a162:	f052                	sd	s4,32(sp)
ffffffff8400a164:	8e36                	mv	t3,a3
ffffffff8400a166:	e03a                	sd	a4,0(sp)
ffffffff8400a168:	e43e                	sd	a5,8(sp)
ffffffff8400a16a:	84ba                	mv	s1,a4
ffffffff8400a16c:	89be                	mv	s3,a5
ffffffff8400a16e:	03b75313          	srli	t1,a4,0x3b
ffffffff8400a172:	00137413          	andi	s0,t1,1
ffffffff8400a176:	e005                	bnez	s0,ffffffff8400a196 <decodeInvocation+0x40>
ffffffff8400a178:	8a42                	mv	s4,a6
ffffffff8400a17a:	8946                	mv	s2,a7
ffffffff8400a17c:	47e1                	li	a5,24
ffffffff8400a17e:	2067ed63          	bltu	a5,t1,ffffffff8400a398 <decodeInvocation+0x242>
ffffffff8400a182:	030a                	slli	t1,t1,0x2
ffffffff8400a184:	00002717          	auipc	a4,0x2
ffffffff8400a188:	b2470713          	addi	a4,a4,-1244 # ffffffff8400bca8 <msgRegisters+0x380>
ffffffff8400a18c:	933a                	add	t1,t1,a4
ffffffff8400a18e:	00032783          	lw	a5,0(t1)
ffffffff8400a192:	97ba                	add	a5,a5,a4
ffffffff8400a194:	8782                	jr	a5
ffffffff8400a196:	7806                	ld	a6,96(sp)
ffffffff8400a198:	940ff0ef          	jal	ra,ffffffff840092d8 <decodeRISCVMMUInvocation>
ffffffff8400a19c:	842a                	mv	s0,a0
ffffffff8400a19e:	8522                	mv	a0,s0
ffffffff8400a1a0:	60a6                	ld	ra,72(sp)
ffffffff8400a1a2:	6406                	ld	s0,64(sp)
ffffffff8400a1a4:	74e2                	ld	s1,56(sp)
ffffffff8400a1a6:	7942                	ld	s2,48(sp)
ffffffff8400a1a8:	79a2                	ld	s3,40(sp)
ffffffff8400a1aa:	7a02                	ld	s4,32(sp)
ffffffff8400a1ac:	6161                	addi	sp,sp,80
ffffffff8400a1ae:	8082                	ret
ffffffff8400a1b0:	00003797          	auipc	a5,0x3
ffffffff8400a1b4:	e5078793          	addi	a5,a5,-432 # ffffffff8400d000 <riscvKSASIDTable>
ffffffff8400a1b8:	4709                	li	a4,2
ffffffff8400a1ba:	44e7b023          	sd	a4,1088(a5)
ffffffff8400a1be:	4007bc23          	sd	zero,1048(a5)
ffffffff8400a1c2:	440d                	li	s0,3
ffffffff8400a1c4:	bfe9                	j	ffffffff8400a19e <decodeInvocation+0x48>
ffffffff8400a1c6:	00003797          	auipc	a5,0x3
ffffffff8400a1ca:	e3a78793          	addi	a5,a5,-454 # ffffffff8400d000 <riscvKSASIDTable>
ffffffff8400a1ce:	4709                	li	a4,2
ffffffff8400a1d0:	44e7b023          	sd	a4,1088(a5)
ffffffff8400a1d4:	4007bc23          	sd	zero,1048(a5)
ffffffff8400a1d8:	440d                	li	s0,3
ffffffff8400a1da:	b7d1                	j	ffffffff8400a19e <decodeInvocation+0x48>
ffffffff8400a1dc:	0374d793          	srli	a5,s1,0x37
ffffffff8400a1e0:	8b85                	andi	a5,a5,1
ffffffff8400a1e2:	c3a1                	beqz	a5,ffffffff8400a222 <decodeInvocation+0xcc>
ffffffff8400a1e4:	4589                	li	a1,2
ffffffff8400a1e6:	00015517          	auipc	a0,0x15
ffffffff8400a1ea:	67253503          	ld	a0,1650(a0) # ffffffff8401f858 <ksCurThread>
ffffffff8400a1ee:	8b1fa0ef          	jal	ra,ffffffff84004a9e <setThreadState>
ffffffff8400a1f2:	01949513          	slli	a0,s1,0x19
ffffffff8400a1f6:	8165                	srli	a0,a0,0x19
ffffffff8400a1f8:	0264d793          	srli	a5,s1,0x26
ffffffff8400a1fc:	8b85                	andi	a5,a5,1
ffffffff8400a1fe:	c781                	beqz	a5,ffffffff8400a206 <decodeInvocation+0xb0>
ffffffff8400a200:	57fd                	li	a5,-1
ffffffff8400a202:	179e                	slli	a5,a5,0x27
ffffffff8400a204:	8d5d                	or	a0,a0,a5
ffffffff8400a206:	03a4d693          	srli	a3,s1,0x3a
ffffffff8400a20a:	0394d613          	srli	a2,s1,0x39
ffffffff8400a20e:	6846                	ld	a6,80(sp)
ffffffff8400a210:	87ca                	mv	a5,s2
ffffffff8400a212:	8752                	mv	a4,s4
ffffffff8400a214:	8a85                	andi	a3,a3,1
ffffffff8400a216:	8a05                	andi	a2,a2,1
ffffffff8400a218:	85ce                	mv	a1,s3
ffffffff8400a21a:	f40fd0ef          	jal	ra,ffffffff8400795a <performInvocation_Endpoint>
ffffffff8400a21e:	842a                	mv	s0,a0
ffffffff8400a220:	bfbd                	j	ffffffff8400a19e <decodeInvocation+0x48>
ffffffff8400a222:	00003797          	auipc	a5,0x3
ffffffff8400a226:	dde78793          	addi	a5,a5,-546 # ffffffff8400d000 <riscvKSASIDTable>
ffffffff8400a22a:	4709                	li	a4,2
ffffffff8400a22c:	44e7b023          	sd	a4,1088(a5)
ffffffff8400a230:	4007bc23          	sd	zero,1048(a5)
ffffffff8400a234:	440d                	li	s0,3
ffffffff8400a236:	b7a5                	j	ffffffff8400a19e <decodeInvocation+0x48>
ffffffff8400a238:	0394d793          	srli	a5,s1,0x39
ffffffff8400a23c:	8b85                	andi	a5,a5,1
ffffffff8400a23e:	c78d                	beqz	a5,ffffffff8400a268 <decodeInvocation+0x112>
ffffffff8400a240:	4589                	li	a1,2
ffffffff8400a242:	00015517          	auipc	a0,0x15
ffffffff8400a246:	61653503          	ld	a0,1558(a0) # ffffffff8401f858 <ksCurThread>
ffffffff8400a24a:	855fa0ef          	jal	ra,ffffffff84004a9e <setThreadState>
ffffffff8400a24e:	01949513          	slli	a0,s1,0x19
ffffffff8400a252:	8165                	srli	a0,a0,0x19
ffffffff8400a254:	9099                	srli	s1,s1,0x26
ffffffff8400a256:	8885                	andi	s1,s1,1
ffffffff8400a258:	c481                	beqz	s1,ffffffff8400a260 <decodeInvocation+0x10a>
ffffffff8400a25a:	57fd                	li	a5,-1
ffffffff8400a25c:	179e                	slli	a5,a5,0x27
ffffffff8400a25e:	8d5d                	or	a0,a0,a5
ffffffff8400a260:	85ce                	mv	a1,s3
ffffffff8400a262:	b86fc0ef          	jal	ra,ffffffff840065e8 <sendSignal>
ffffffff8400a266:	bf25                	j	ffffffff8400a19e <decodeInvocation+0x48>
ffffffff8400a268:	00003797          	auipc	a5,0x3
ffffffff8400a26c:	d9878793          	addi	a5,a5,-616 # ffffffff8400d000 <riscvKSASIDTable>
ffffffff8400a270:	4709                	li	a4,2
ffffffff8400a272:	44e7b023          	sd	a4,1088(a5)
ffffffff8400a276:	4007bc23          	sd	zero,1048(a5)
ffffffff8400a27a:	440d                	li	s0,3
ffffffff8400a27c:	b70d                	j	ffffffff8400a19e <decodeInvocation+0x48>
ffffffff8400a27e:	00015917          	auipc	s2,0x15
ffffffff8400a282:	5da90913          	addi	s2,s2,1498 # ffffffff8401f858 <ksCurThread>
ffffffff8400a286:	4589                	li	a1,2
ffffffff8400a288:	00093503          	ld	a0,0(s2)
ffffffff8400a28c:	813fa0ef          	jal	ra,ffffffff84004a9e <setThreadState>
ffffffff8400a290:	03a4d613          	srli	a2,s1,0x3a
ffffffff8400a294:	8a05                	andi	a2,a2,1
ffffffff8400a296:	85ce                	mv	a1,s3
ffffffff8400a298:	00093503          	ld	a0,0(s2)
ffffffff8400a29c:	ee6fd0ef          	jal	ra,ffffffff84007982 <doReplyTransfer>
ffffffff8400a2a0:	bdfd                	j	ffffffff8400a19e <decodeInvocation+0x48>
ffffffff8400a2a2:	67e6                	ld	a5,88(sp)
ffffffff8400a2a4:	eb91                	bnez	a5,ffffffff8400a2b8 <decodeInvocation+0x162>
ffffffff8400a2a6:	7806                	ld	a6,96(sp)
ffffffff8400a2a8:	87c6                	mv	a5,a7
ffffffff8400a2aa:	8736                	mv	a4,a3
ffffffff8400a2ac:	6602                	ld	a2,0(sp)
ffffffff8400a2ae:	66a2                	ld	a3,8(sp)
ffffffff8400a2b0:	cb3fe0ef          	jal	ra,ffffffff84008f62 <decodeTCBInvocation>
ffffffff8400a2b4:	842a                	mv	s0,a0
ffffffff8400a2b6:	b5e5                	j	ffffffff8400a19e <decodeInvocation+0x48>
ffffffff8400a2b8:	00003797          	auipc	a5,0x3
ffffffff8400a2bc:	d4878793          	addi	a5,a5,-696 # ffffffff8400d000 <riscvKSASIDTable>
ffffffff8400a2c0:	4709                	li	a4,2
ffffffff8400a2c2:	44e7b023          	sd	a4,1088(a5)
ffffffff8400a2c6:	4007bc23          	sd	zero,1048(a5)
ffffffff8400a2ca:	440d                	li	s0,3
ffffffff8400a2cc:	bdc9                	j	ffffffff8400a19e <decodeInvocation+0x48>
ffffffff8400a2ce:	67e6                	ld	a5,88(sp)
ffffffff8400a2d0:	e791                	bnez	a5,ffffffff8400a2dc <decodeInvocation+0x186>
ffffffff8400a2d2:	7606                	ld	a2,96(sp)
ffffffff8400a2d4:	c13fd0ef          	jal	ra,ffffffff84007ee6 <decodeDomainInvocation>
ffffffff8400a2d8:	842a                	mv	s0,a0
ffffffff8400a2da:	b5d1                	j	ffffffff8400a19e <decodeInvocation+0x48>
ffffffff8400a2dc:	00003797          	auipc	a5,0x3
ffffffff8400a2e0:	d2478793          	addi	a5,a5,-732 # ffffffff8400d000 <riscvKSASIDTable>
ffffffff8400a2e4:	4709                	li	a4,2
ffffffff8400a2e6:	44e7b023          	sd	a4,1088(a5)
ffffffff8400a2ea:	4007bc23          	sd	zero,1048(a5)
ffffffff8400a2ee:	440d                	li	s0,3
ffffffff8400a2f0:	b57d                	j	ffffffff8400a19e <decodeInvocation+0x48>
ffffffff8400a2f2:	67e6                	ld	a5,88(sp)
ffffffff8400a2f4:	eb81                	bnez	a5,ffffffff8400a304 <decodeInvocation+0x1ae>
ffffffff8400a2f6:	7706                	ld	a4,96(sp)
ffffffff8400a2f8:	6602                	ld	a2,0(sp)
ffffffff8400a2fa:	66a2                	ld	a3,8(sp)
ffffffff8400a2fc:	9f8fd0ef          	jal	ra,ffffffff840074f4 <decodeCNodeInvocation>
ffffffff8400a300:	842a                	mv	s0,a0
ffffffff8400a302:	bd71                	j	ffffffff8400a19e <decodeInvocation+0x48>
ffffffff8400a304:	00003797          	auipc	a5,0x3
ffffffff8400a308:	cfc78793          	addi	a5,a5,-772 # ffffffff8400d000 <riscvKSASIDTable>
ffffffff8400a30c:	4709                	li	a4,2
ffffffff8400a30e:	44e7b023          	sd	a4,1088(a5)
ffffffff8400a312:	4007bc23          	sd	zero,1048(a5)
ffffffff8400a316:	440d                	li	s0,3
ffffffff8400a318:	b559                	j	ffffffff8400a19e <decodeInvocation+0x48>
ffffffff8400a31a:	7806                	ld	a6,96(sp)
ffffffff8400a31c:	87c6                	mv	a5,a7
ffffffff8400a31e:	6682                	ld	a3,0(sp)
ffffffff8400a320:	6722                	ld	a4,8(sp)
ffffffff8400a322:	8672                	mv	a2,t3
ffffffff8400a324:	b15ff0ef          	jal	ra,ffffffff84009e38 <decodeUntypedInvocation>
ffffffff8400a328:	842a                	mv	s0,a0
ffffffff8400a32a:	bd95                	j	ffffffff8400a19e <decodeInvocation+0x48>
ffffffff8400a32c:	7686                	ld	a3,96(sp)
ffffffff8400a32e:	8672                	mv	a2,t3
ffffffff8400a330:	957fa0ef          	jal	ra,ffffffff84004c86 <decodeIRQControlInvocation>
ffffffff8400a334:	842a                	mv	s0,a0
ffffffff8400a336:	b5a5                	j	ffffffff8400a19e <decodeInvocation+0x48>
ffffffff8400a338:	03499593          	slli	a1,s3,0x34
ffffffff8400a33c:	91d1                	srli	a1,a1,0x34
ffffffff8400a33e:	81ffb0ef          	jal	ra,ffffffff84005b5c <decodeIRQHandlerInvocation>
ffffffff8400a342:	842a                	mv	s0,a0
ffffffff8400a344:	bda9                	j	ffffffff8400a19e <decodeInvocation+0x48>
ffffffff8400a346:	67e6                	ld	a5,88(sp)
ffffffff8400a348:	eb89                	bnez	a5,ffffffff8400a35a <decodeInvocation+0x204>
ffffffff8400a34a:	7706                	ld	a4,96(sp)
ffffffff8400a34c:	86ae                	mv	a3,a1
ffffffff8400a34e:	6582                	ld	a1,0(sp)
ffffffff8400a350:	6622                	ld	a2,8(sp)
ffffffff8400a352:	e09fb0ef          	jal	ra,ffffffff8400615a <decodeSchedControlInvocation>
ffffffff8400a356:	842a                	mv	s0,a0
ffffffff8400a358:	b599                	j	ffffffff8400a19e <decodeInvocation+0x48>
ffffffff8400a35a:	00003797          	auipc	a5,0x3
ffffffff8400a35e:	ca678793          	addi	a5,a5,-858 # ffffffff8400d000 <riscvKSASIDTable>
ffffffff8400a362:	4709                	li	a4,2
ffffffff8400a364:	44e7b023          	sd	a4,1088(a5)
ffffffff8400a368:	4007bc23          	sd	zero,1048(a5)
ffffffff8400a36c:	440d                	li	s0,3
ffffffff8400a36e:	bd05                	j	ffffffff8400a19e <decodeInvocation+0x48>
ffffffff8400a370:	67e6                	ld	a5,88(sp)
ffffffff8400a372:	eb81                	bnez	a5,ffffffff8400a382 <decodeInvocation+0x22c>
ffffffff8400a374:	7686                	ld	a3,96(sp)
ffffffff8400a376:	6582                	ld	a1,0(sp)
ffffffff8400a378:	6622                	ld	a2,8(sp)
ffffffff8400a37a:	a5dfb0ef          	jal	ra,ffffffff84005dd6 <decodeSchedContextInvocation>
ffffffff8400a37e:	842a                	mv	s0,a0
ffffffff8400a380:	bd39                	j	ffffffff8400a19e <decodeInvocation+0x48>
ffffffff8400a382:	00003797          	auipc	a5,0x3
ffffffff8400a386:	c7e78793          	addi	a5,a5,-898 # ffffffff8400d000 <riscvKSASIDTable>
ffffffff8400a38a:	4709                	li	a4,2
ffffffff8400a38c:	44e7b023          	sd	a4,1088(a5)
ffffffff8400a390:	4007bc23          	sd	zero,1048(a5)
ffffffff8400a394:	440d                	li	s0,3
ffffffff8400a396:	b521                	j	ffffffff8400a19e <decodeInvocation+0x48>
ffffffff8400a398:	ecdf70ef          	jal	ra,ffffffff84002264 <halt>

ffffffff8400a39c <handleInvocation>:
ffffffff8400a39c:	7135                	addi	sp,sp,-160
ffffffff8400a39e:	ed06                	sd	ra,152(sp)
ffffffff8400a3a0:	e922                	sd	s0,144(sp)
ffffffff8400a3a2:	e526                	sd	s1,136(sp)
ffffffff8400a3a4:	e14a                	sd	s2,128(sp)
ffffffff8400a3a6:	fcce                	sd	s3,120(sp)
ffffffff8400a3a8:	f8d2                	sd	s4,112(sp)
ffffffff8400a3aa:	f4d6                	sd	s5,104(sp)
ffffffff8400a3ac:	f0da                	sd	s6,96(sp)
ffffffff8400a3ae:	ecde                	sd	s7,88(sp)
ffffffff8400a3b0:	e8e2                	sd	s8,80(sp)
ffffffff8400a3b2:	e4e6                	sd	s9,72(sp)
ffffffff8400a3b4:	8b2a                	mv	s6,a0
ffffffff8400a3b6:	8aae                	mv	s5,a1
ffffffff8400a3b8:	8bb2                	mv	s7,a2
ffffffff8400a3ba:	8c36                	mv	s8,a3
ffffffff8400a3bc:	89ba                	mv	s3,a4
ffffffff8400a3be:	00015497          	auipc	s1,0x15
ffffffff8400a3c2:	49a4b483          	ld	s1,1178(s1) # ffffffff8401f858 <ksCurThread>
ffffffff8400a3c6:	68a0                	ld	s0,80(s1)
ffffffff8400a3c8:	07f47713          	andi	a4,s0,127
ffffffff8400a3cc:	07800793          	li	a5,120
ffffffff8400a3d0:	00e7f663          	bgeu	a5,a4,ffffffff8400a3dc <handleInvocation+0x40>
ffffffff8400a3d4:	f8047413          	andi	s0,s0,-128
ffffffff8400a3d8:	07846413          	ori	s0,s0,120
ffffffff8400a3dc:	864e                	mv	a2,s3
ffffffff8400a3de:	85a6                	mv	a1,s1
ffffffff8400a3e0:	1008                	addi	a0,sp,32
ffffffff8400a3e2:	eeff80ef          	jal	ra,ffffffff840032d0 <lookupCapAndSlot>
ffffffff8400a3e6:	7c82                	ld	s9,32(sp)
ffffffff8400a3e8:	060c9a63          	bnez	s9,ffffffff8400a45c <handleInvocation+0xc0>
ffffffff8400a3ec:	85a6                	mv	a1,s1
ffffffff8400a3ee:	4501                	li	a0,0
ffffffff8400a3f0:	978f80ef          	jal	ra,ffffffff84002568 <lookupIPCBuffer>
ffffffff8400a3f4:	8a2a                	mv	s4,a0
ffffffff8400a3f6:	8622                	mv	a2,s0
ffffffff8400a3f8:	85aa                	mv	a1,a0
ffffffff8400a3fa:	8526                	mv	a0,s1
ffffffff8400a3fc:	d9cfc0ef          	jal	ra,ffffffff84006998 <lookupExtraCaps>
ffffffff8400a400:	892a                	mv	s2,a0
ffffffff8400a402:	ed35                	bnez	a0,ffffffff8400a47e <handleInvocation+0xe2>
ffffffff8400a404:	07f47593          	andi	a1,s0,127
ffffffff8400a408:	4791                	li	a5,4
ffffffff8400a40a:	08b7e263          	bltu	a5,a1,ffffffff8400a48e <handleInvocation+0xf2>
ffffffff8400a40e:	e852                	sd	s4,16(sp)
ffffffff8400a410:	e462                	sd	s8,8(sp)
ffffffff8400a412:	e05e                	sd	s7,0(sp)
ffffffff8400a414:	88da                	mv	a7,s6
ffffffff8400a416:	8856                	mv	a6,s5
ffffffff8400a418:	7722                	ld	a4,40(sp)
ffffffff8400a41a:	77c2                	ld	a5,48(sp)
ffffffff8400a41c:	76e2                	ld	a3,56(sp)
ffffffff8400a41e:	864e                	mv	a2,s3
ffffffff8400a420:	00c45513          	srli	a0,s0,0xc
ffffffff8400a424:	d33ff0ef          	jal	ra,ffffffff8400a156 <decodeInvocation>
ffffffff8400a428:	4791                	li	a5,4
ffffffff8400a42a:	08f50a63          	beq	a0,a5,ffffffff8400a4be <handleInvocation+0x122>
ffffffff8400a42e:	478d                	li	a5,3
ffffffff8400a430:	06f50363          	beq	a0,a5,ffffffff8400a496 <handleInvocation+0xfa>
ffffffff8400a434:	1184b783          	ld	a5,280(s1)
ffffffff8400a438:	8bbd                	andi	a5,a5,15
ffffffff8400a43a:	4709                	li	a4,2
ffffffff8400a43c:	06e78563          	beq	a5,a4,ffffffff8400a4a6 <handleInvocation+0x10a>
ffffffff8400a440:	854a                	mv	a0,s2
ffffffff8400a442:	60ea                	ld	ra,152(sp)
ffffffff8400a444:	644a                	ld	s0,144(sp)
ffffffff8400a446:	64aa                	ld	s1,136(sp)
ffffffff8400a448:	690a                	ld	s2,128(sp)
ffffffff8400a44a:	79e6                	ld	s3,120(sp)
ffffffff8400a44c:	7a46                	ld	s4,112(sp)
ffffffff8400a44e:	7aa6                	ld	s5,104(sp)
ffffffff8400a450:	7b06                	ld	s6,96(sp)
ffffffff8400a452:	6be6                	ld	s7,88(sp)
ffffffff8400a454:	6c46                	ld	s8,80(sp)
ffffffff8400a456:	6ca6                	ld	s9,72(sp)
ffffffff8400a458:	610d                	addi	sp,sp,160
ffffffff8400a45a:	8082                	ret
ffffffff8400a45c:	00003797          	auipc	a5,0x3
ffffffff8400a460:	ba478793          	addi	a5,a5,-1116 # ffffffff8400d000 <riscvKSASIDTable>
ffffffff8400a464:	4705                	li	a4,1
ffffffff8400a466:	44e7b423          	sd	a4,1096(a5)
ffffffff8400a46a:	4537b823          	sd	s3,1104(a5)
ffffffff8400a46e:	8956                	mv	s2,s5
ffffffff8400a470:	fc0a88e3          	beqz	s5,ffffffff8400a440 <handleInvocation+0xa4>
ffffffff8400a474:	8526                	mv	a0,s1
ffffffff8400a476:	a85fc0ef          	jal	ra,ffffffff84006efa <handleFault>
ffffffff8400a47a:	4901                	li	s2,0
ffffffff8400a47c:	b7d1                	j	ffffffff8400a440 <handleInvocation+0xa4>
ffffffff8400a47e:	8956                	mv	s2,s5
ffffffff8400a480:	fc0a80e3          	beqz	s5,ffffffff8400a440 <handleInvocation+0xa4>
ffffffff8400a484:	8526                	mv	a0,s1
ffffffff8400a486:	a75fc0ef          	jal	ra,ffffffff84006efa <handleFault>
ffffffff8400a48a:	8966                	mv	s2,s9
ffffffff8400a48c:	bf55                	j	ffffffff8400a440 <handleInvocation+0xa4>
ffffffff8400a48e:	f80a10e3          	bnez	s4,ffffffff8400a40e <handleInvocation+0x72>
ffffffff8400a492:	4591                	li	a1,4
ffffffff8400a494:	bfad                	j	ffffffff8400a40e <handleInvocation+0x72>
ffffffff8400a496:	000b1463          	bnez	s6,ffffffff8400a49e <handleInvocation+0x102>
ffffffff8400a49a:	895a                	mv	s2,s6
ffffffff8400a49c:	b755                	j	ffffffff8400a440 <handleInvocation+0xa4>
ffffffff8400a49e:	8526                	mv	a0,s1
ffffffff8400a4a0:	cddfe0ef          	jal	ra,ffffffff8400917c <replyFromKernel_error>
ffffffff8400a4a4:	bf71                	j	ffffffff8400a440 <handleInvocation+0xa4>
ffffffff8400a4a6:	000b1763          	bnez	s6,ffffffff8400a4b4 <handleInvocation+0x118>
ffffffff8400a4aa:	4585                	li	a1,1
ffffffff8400a4ac:	8526                	mv	a0,s1
ffffffff8400a4ae:	df0fa0ef          	jal	ra,ffffffff84004a9e <setThreadState>
ffffffff8400a4b2:	b779                	j	ffffffff8400a440 <handleInvocation+0xa4>
ffffffff8400a4b4:	0404b423          	sd	zero,72(s1)
ffffffff8400a4b8:	0404b823          	sd	zero,80(s1)
ffffffff8400a4bc:	b7fd                	j	ffffffff8400a4aa <handleInvocation+0x10e>
ffffffff8400a4be:	892a                	mv	s2,a0
ffffffff8400a4c0:	b741                	j	ffffffff8400a440 <handleInvocation+0xa4>

ffffffff8400a4c2 <memset>:
ffffffff8400a4c2:	1141                	addi	sp,sp,-16
ffffffff8400a4c4:	e406                	sd	ra,8(sp)
ffffffff8400a4c6:	e022                	sd	s0,0(sp)
ffffffff8400a4c8:	842a                	mv	s0,a0
ffffffff8400a4ca:	872e                	mv	a4,a1
ffffffff8400a4cc:	85b2                	mv	a1,a2
ffffffff8400a4ce:	00c567b3          	or	a5,a0,a2
ffffffff8400a4d2:	8b9d                	andi	a5,a5,7
ffffffff8400a4d4:	8fd9                	or	a5,a5,a4
ffffffff8400a4d6:	eb81                	bnez	a5,ffffffff8400a4e6 <memset+0x24>
ffffffff8400a4d8:	d83fe0ef          	jal	ra,ffffffff8400925a <memzero>
ffffffff8400a4dc:	8522                	mv	a0,s0
ffffffff8400a4de:	60a2                	ld	ra,8(sp)
ffffffff8400a4e0:	6402                	ld	s0,0(sp)
ffffffff8400a4e2:	0141                	addi	sp,sp,16
ffffffff8400a4e4:	8082                	ret
ffffffff8400a4e6:	00c506b3          	add	a3,a0,a2
ffffffff8400a4ea:	87aa                	mv	a5,a0
ffffffff8400a4ec:	da65                	beqz	a2,ffffffff8400a4dc <memset+0x1a>
ffffffff8400a4ee:	00e78023          	sb	a4,0(a5)
ffffffff8400a4f2:	0785                	addi	a5,a5,1
ffffffff8400a4f4:	fef69de3          	bne	a3,a5,ffffffff8400a4ee <memset+0x2c>
ffffffff8400a4f8:	b7d5                	j	ffffffff8400a4dc <memset+0x1a>

ffffffff8400a4fa <memcpy>:
ffffffff8400a4fa:	ca19                	beqz	a2,ffffffff8400a510 <memcpy+0x16>
ffffffff8400a4fc:	962a                	add	a2,a2,a0
ffffffff8400a4fe:	87aa                	mv	a5,a0
ffffffff8400a500:	0005c703          	lbu	a4,0(a1)
ffffffff8400a504:	00e78023          	sb	a4,0(a5)
ffffffff8400a508:	0785                	addi	a5,a5,1
ffffffff8400a50a:	0585                	addi	a1,a1,1
ffffffff8400a50c:	fef61ae3          	bne	a2,a5,ffffffff8400a500 <memcpy+0x6>
ffffffff8400a510:	8082                	ret

ffffffff8400a512 <strncmp>:
ffffffff8400a512:	c205                	beqz	a2,ffffffff8400a532 <strncmp+0x20>
ffffffff8400a514:	87aa                	mv	a5,a0
ffffffff8400a516:	962a                	add	a2,a2,a0
ffffffff8400a518:	0007c703          	lbu	a4,0(a5)
ffffffff8400a51c:	0005c503          	lbu	a0,0(a1)
ffffffff8400a520:	40a7053b          	subw	a0,a4,a0
ffffffff8400a524:	e901                	bnez	a0,ffffffff8400a534 <strncmp+0x22>
ffffffff8400a526:	c719                	beqz	a4,ffffffff8400a534 <strncmp+0x22>
ffffffff8400a528:	0785                	addi	a5,a5,1
ffffffff8400a52a:	0585                	addi	a1,a1,1
ffffffff8400a52c:	fec796e3          	bne	a5,a2,ffffffff8400a518 <strncmp+0x6>
ffffffff8400a530:	8082                	ret
ffffffff8400a532:	4501                	li	a0,0
ffffffff8400a534:	8082                	ret

ffffffff8400a536 <char_to_long>:
ffffffff8400a536:	fd05079b          	addiw	a5,a0,-48
ffffffff8400a53a:	0ff7f793          	andi	a5,a5,255
ffffffff8400a53e:	4725                	li	a4,9
ffffffff8400a540:	02f77363          	bgeu	a4,a5,ffffffff8400a566 <char_to_long+0x30>
ffffffff8400a544:	fbf5079b          	addiw	a5,a0,-65
ffffffff8400a548:	0ff7f793          	andi	a5,a5,255
ffffffff8400a54c:	4715                	li	a4,5
ffffffff8400a54e:	00f77f63          	bgeu	a4,a5,ffffffff8400a56c <char_to_long+0x36>
ffffffff8400a552:	f9f5079b          	addiw	a5,a0,-97
ffffffff8400a556:	0ff7f793          	andi	a5,a5,255
ffffffff8400a55a:	4715                	li	a4,5
ffffffff8400a55c:	00f76b63          	bltu	a4,a5,ffffffff8400a572 <char_to_long+0x3c>
ffffffff8400a560:	fa95051b          	addiw	a0,a0,-87
ffffffff8400a564:	8082                	ret
ffffffff8400a566:	fd05051b          	addiw	a0,a0,-48
ffffffff8400a56a:	8082                	ret
ffffffff8400a56c:	fc95051b          	addiw	a0,a0,-55
ffffffff8400a570:	8082                	ret
ffffffff8400a572:	557d                	li	a0,-1
ffffffff8400a574:	8082                	ret

ffffffff8400a576 <str_to_long>:
ffffffff8400a576:	7179                	addi	sp,sp,-48
ffffffff8400a578:	f406                	sd	ra,40(sp)
ffffffff8400a57a:	f022                	sd	s0,32(sp)
ffffffff8400a57c:	ec26                	sd	s1,24(sp)
ffffffff8400a57e:	e84a                	sd	s2,16(sp)
ffffffff8400a580:	e44e                	sd	s3,8(sp)
ffffffff8400a582:	84aa                	mv	s1,a0
ffffffff8400a584:	00054503          	lbu	a0,0(a0)
ffffffff8400a588:	03000793          	li	a5,48
ffffffff8400a58c:	4929                	li	s2,10
ffffffff8400a58e:	02f50963          	beq	a0,a5,ffffffff8400a5c0 <str_to_long+0x4a>
ffffffff8400a592:	0004c503          	lbu	a0,0(s1)
ffffffff8400a596:	c121                	beqz	a0,ffffffff8400a5d6 <str_to_long+0x60>
ffffffff8400a598:	4401                	li	s0,0
ffffffff8400a59a:	59fd                	li	s3,-1
ffffffff8400a59c:	1902                	slli	s2,s2,0x20
ffffffff8400a59e:	02095913          	srli	s2,s2,0x20
ffffffff8400a5a2:	f95ff0ef          	jal	ra,ffffffff8400a536 <char_to_long>
ffffffff8400a5a6:	03350b63          	beq	a0,s3,ffffffff8400a5dc <str_to_long+0x66>
ffffffff8400a5aa:	03255863          	bge	a0,s2,ffffffff8400a5da <str_to_long+0x64>
ffffffff8400a5ae:	02890433          	mul	s0,s2,s0
ffffffff8400a5b2:	942a                	add	s0,s0,a0
ffffffff8400a5b4:	0485                	addi	s1,s1,1
ffffffff8400a5b6:	0004c503          	lbu	a0,0(s1)
ffffffff8400a5ba:	f565                	bnez	a0,ffffffff8400a5a2 <str_to_long+0x2c>
ffffffff8400a5bc:	8522                	mv	a0,s0
ffffffff8400a5be:	a839                	j	ffffffff8400a5dc <str_to_long+0x66>
ffffffff8400a5c0:	0014c783          	lbu	a5,1(s1)
ffffffff8400a5c4:	0df7f793          	andi	a5,a5,223
ffffffff8400a5c8:	05800713          	li	a4,88
ffffffff8400a5cc:	fce796e3          	bne	a5,a4,ffffffff8400a598 <str_to_long+0x22>
ffffffff8400a5d0:	0489                	addi	s1,s1,2
ffffffff8400a5d2:	4941                	li	s2,16
ffffffff8400a5d4:	bf7d                	j	ffffffff8400a592 <str_to_long+0x1c>
ffffffff8400a5d6:	557d                	li	a0,-1
ffffffff8400a5d8:	a011                	j	ffffffff8400a5dc <str_to_long+0x66>
ffffffff8400a5da:	557d                	li	a0,-1
ffffffff8400a5dc:	70a2                	ld	ra,40(sp)
ffffffff8400a5de:	7402                	ld	s0,32(sp)
ffffffff8400a5e0:	64e2                	ld	s1,24(sp)
ffffffff8400a5e2:	6942                	ld	s2,16(sp)
ffffffff8400a5e4:	69a2                	ld	s3,8(sp)
ffffffff8400a5e6:	6145                	addi	sp,sp,48
ffffffff8400a5e8:	8082                	ret

ffffffff8400a5ea <__clzdi2>:
ffffffff8400a5ea:	577d                	li	a4,-1
ffffffff8400a5ec:	9301                	srli	a4,a4,0x20
ffffffff8400a5ee:	00a73733          	sltu	a4,a4,a0
ffffffff8400a5f2:	0716                	slli	a4,a4,0x5
ffffffff8400a5f4:	00e557b3          	srl	a5,a0,a4
ffffffff8400a5f8:	04000513          	li	a0,64
ffffffff8400a5fc:	9d19                	subw	a0,a0,a4
ffffffff8400a5fe:	6741                	lui	a4,0x10
ffffffff8400a600:	00e7b733          	sltu	a4,a5,a4
ffffffff8400a604:	00174713          	xori	a4,a4,1
ffffffff8400a608:	1702                	slli	a4,a4,0x20
ffffffff8400a60a:	9301                	srli	a4,a4,0x20
ffffffff8400a60c:	0712                	slli	a4,a4,0x4
ffffffff8400a60e:	00e7d7b3          	srl	a5,a5,a4
ffffffff8400a612:	9d19                	subw	a0,a0,a4
ffffffff8400a614:	0ff00713          	li	a4,255
ffffffff8400a618:	00f73733          	sltu	a4,a4,a5
ffffffff8400a61c:	070e                	slli	a4,a4,0x3
ffffffff8400a61e:	00e7d7b3          	srl	a5,a5,a4
ffffffff8400a622:	9d19                	subw	a0,a0,a4
ffffffff8400a624:	473d                	li	a4,15
ffffffff8400a626:	00f73733          	sltu	a4,a4,a5
ffffffff8400a62a:	070a                	slli	a4,a4,0x2
ffffffff8400a62c:	00e7d7b3          	srl	a5,a5,a4
ffffffff8400a630:	9d19                	subw	a0,a0,a4
ffffffff8400a632:	470d                	li	a4,3
ffffffff8400a634:	00f73733          	sltu	a4,a4,a5
ffffffff8400a638:	0706                	slli	a4,a4,0x1
ffffffff8400a63a:	00e7d7b3          	srl	a5,a5,a4
ffffffff8400a63e:	9d19                	subw	a0,a0,a4
ffffffff8400a640:	0027b713          	sltiu	a4,a5,2
ffffffff8400a644:	00174713          	xori	a4,a4,1
ffffffff8400a648:	9d19                	subw	a0,a0,a4
ffffffff8400a64a:	00e7d7b3          	srl	a5,a5,a4
ffffffff8400a64e:	9d1d                	subw	a0,a0,a5
ffffffff8400a650:	8082                	ret

ffffffff8400a652 <chooseThread>:
ffffffff8400a652:	1101                	addi	sp,sp,-32
ffffffff8400a654:	ec06                	sd	ra,24(sp)
ffffffff8400a656:	e822                	sd	s0,16(sp)
ffffffff8400a658:	e426                	sd	s1,8(sp)
ffffffff8400a65a:	00015497          	auipc	s1,0x15
ffffffff8400a65e:	1be4b483          	ld	s1,446(s1) # ffffffff8401f818 <ksCurDomain>
ffffffff8400a662:	00349713          	slli	a4,s1,0x3
ffffffff8400a666:	00003797          	auipc	a5,0x3
ffffffff8400a66a:	99a78793          	addi	a5,a5,-1638 # ffffffff8400d000 <riscvKSASIDTable>
ffffffff8400a66e:	97ba                	add	a5,a5,a4
ffffffff8400a670:	6107b503          	ld	a0,1552(a5)
ffffffff8400a674:	c931                	beqz	a0,ffffffff8400a6c8 <chooseThread+0x76>
ffffffff8400a676:	f75ff0ef          	jal	ra,ffffffff8400a5ea <__clzdi2>
ffffffff8400a67a:	842a                	mv	s0,a0
ffffffff8400a67c:	00249793          	slli	a5,s1,0x2
ffffffff8400a680:	fc450713          	addi	a4,a0,-60
ffffffff8400a684:	97ba                	add	a5,a5,a4
ffffffff8400a686:	078e                	slli	a5,a5,0x3
ffffffff8400a688:	00003717          	auipc	a4,0x3
ffffffff8400a68c:	97870713          	addi	a4,a4,-1672 # ffffffff8400d000 <riscvKSASIDTable>
ffffffff8400a690:	97ba                	add	a5,a5,a4
ffffffff8400a692:	6907b503          	ld	a0,1680(a5)
ffffffff8400a696:	f55ff0ef          	jal	ra,ffffffff8400a5ea <__clzdi2>
ffffffff8400a69a:	03f00793          	li	a5,63
ffffffff8400a69e:	40878433          	sub	s0,a5,s0
ffffffff8400a6a2:	041a                	slli	s0,s0,0x6
ffffffff8400a6a4:	8f89                	sub	a5,a5,a0
ffffffff8400a6a6:	8c5d                	or	s0,s0,a5
ffffffff8400a6a8:	04a2                	slli	s1,s1,0x8
ffffffff8400a6aa:	9426                	add	s0,s0,s1
ffffffff8400a6ac:	0412                	slli	s0,s0,0x4
ffffffff8400a6ae:	00004497          	auipc	s1,0x4
ffffffff8400a6b2:	15248493          	addi	s1,s1,338 # ffffffff8400e800 <ksReadyQueues>
ffffffff8400a6b6:	9426                	add	s0,s0,s1
ffffffff8400a6b8:	6008                	ld	a0,0(s0)
ffffffff8400a6ba:	965fa0ef          	jal	ra,ffffffff8400501e <switchToThread>
ffffffff8400a6be:	60e2                	ld	ra,24(sp)
ffffffff8400a6c0:	6442                	ld	s0,16(sp)
ffffffff8400a6c2:	64a2                	ld	s1,8(sp)
ffffffff8400a6c4:	6105                	addi	sp,sp,32
ffffffff8400a6c6:	8082                	ret
ffffffff8400a6c8:	a34f90ef          	jal	ra,ffffffff840038fc <switchToIdleThread>
ffffffff8400a6cc:	bfcd                	j	ffffffff8400a6be <chooseThread+0x6c>

ffffffff8400a6ce <scheduleChooseNewThread>:
ffffffff8400a6ce:	1141                	addi	sp,sp,-16
ffffffff8400a6d0:	e406                	sd	ra,8(sp)
ffffffff8400a6d2:	00015797          	auipc	a5,0x15
ffffffff8400a6d6:	13e7b783          	ld	a5,318(a5) # ffffffff8401f810 <ksDomainTime>
ffffffff8400a6da:	c791                	beqz	a5,ffffffff8400a6e6 <scheduleChooseNewThread+0x18>
ffffffff8400a6dc:	f77ff0ef          	jal	ra,ffffffff8400a652 <chooseThread>
ffffffff8400a6e0:	60a2                	ld	ra,8(sp)
ffffffff8400a6e2:	0141                	addi	sp,sp,16
ffffffff8400a6e4:	8082                	ret
ffffffff8400a6e6:	00015797          	auipc	a5,0x15
ffffffff8400a6ea:	1227b783          	ld	a5,290(a5) # ffffffff8401f808 <ksDomScheduleIdx>
ffffffff8400a6ee:	0785                	addi	a5,a5,1
ffffffff8400a6f0:	4709                	li	a4,2
ffffffff8400a6f2:	04f76963          	bltu	a4,a5,ffffffff8400a744 <scheduleChooseNewThread+0x76>
ffffffff8400a6f6:	00015717          	auipc	a4,0x15
ffffffff8400a6fa:	10f73923          	sd	a5,274(a4) # ffffffff8401f808 <ksDomScheduleIdx>
ffffffff8400a6fe:	4785                	li	a5,1
ffffffff8400a700:	00015717          	auipc	a4,0x15
ffffffff8400a704:	12f73c23          	sd	a5,312(a4) # ffffffff8401f838 <ksReprogram>
ffffffff8400a708:	00015797          	auipc	a5,0x15
ffffffff8400a70c:	1007bc23          	sd	zero,280(a5) # ffffffff8401f820 <ksWorkUnitsCompleted>
ffffffff8400a710:	00015797          	auipc	a5,0x15
ffffffff8400a714:	0f87b783          	ld	a5,248(a5) # ffffffff8401f808 <ksDomScheduleIdx>
ffffffff8400a718:	00479713          	slli	a4,a5,0x4
ffffffff8400a71c:	00001797          	auipc	a5,0x1
ffffffff8400a720:	65c78793          	addi	a5,a5,1628 # ffffffff8400bd78 <fault_messages>
ffffffff8400a724:	97ba                	add	a5,a5,a4
ffffffff8400a726:	73b8                	ld	a4,96(a5)
ffffffff8400a728:	00015697          	auipc	a3,0x15
ffffffff8400a72c:	0ee6b823          	sd	a4,240(a3) # ffffffff8401f818 <ksCurDomain>
ffffffff8400a730:	77bc                	ld	a5,104(a5)
ffffffff8400a732:	3e800713          	li	a4,1000
ffffffff8400a736:	02e787b3          	mul	a5,a5,a4
ffffffff8400a73a:	00015717          	auipc	a4,0x15
ffffffff8400a73e:	0cf73b23          	sd	a5,214(a4) # ffffffff8401f810 <ksDomainTime>
ffffffff8400a742:	bf69                	j	ffffffff8400a6dc <scheduleChooseNewThread+0xe>
ffffffff8400a744:	00015797          	auipc	a5,0x15
ffffffff8400a748:	0c07b223          	sd	zero,196(a5) # ffffffff8401f808 <ksDomScheduleIdx>
ffffffff8400a74c:	bf4d                	j	ffffffff8400a6fe <scheduleChooseNewThread+0x30>

ffffffff8400a74e <schedule>:
ffffffff8400a74e:	7179                	addi	sp,sp,-48
ffffffff8400a750:	f406                	sd	ra,40(sp)
ffffffff8400a752:	f022                	sd	s0,32(sp)
ffffffff8400a754:	ec26                	sd	s1,24(sp)
ffffffff8400a756:	e84a                	sd	s2,16(sp)
ffffffff8400a758:	e44e                	sd	s3,8(sp)
ffffffff8400a75a:	e052                	sd	s4,0(sp)
ffffffff8400a75c:	9befc0ef          	jal	ra,ffffffff8400691a <awaken>
ffffffff8400a760:	00015797          	auipc	a5,0x15
ffffffff8400a764:	0e87b783          	ld	a5,232(a5) # ffffffff8401f848 <ksSchedulerAction>
ffffffff8400a768:	0e078763          	beqz	a5,ffffffff8400a856 <schedule+0x108>
ffffffff8400a76c:	00015517          	auipc	a0,0x15
ffffffff8400a770:	0ec53503          	ld	a0,236(a0) # ffffffff8401f858 <ksCurThread>
ffffffff8400a774:	11853783          	ld	a5,280(a0)
ffffffff8400a778:	8bbd                	andi	a5,a5,15
ffffffff8400a77a:	17fd                	addi	a5,a5,-1
ffffffff8400a77c:	4705                	li	a4,1
ffffffff8400a77e:	4481                	li	s1,0
ffffffff8400a780:	08f77f63          	bgeu	a4,a5,ffffffff8400a81e <schedule+0xd0>
ffffffff8400a784:	00015417          	auipc	s0,0x15
ffffffff8400a788:	0c443403          	ld	s0,196(s0) # ffffffff8401f848 <ksSchedulerAction>
ffffffff8400a78c:	4785                	li	a5,1
ffffffff8400a78e:	0af40763          	beq	s0,a5,ffffffff8400a83c <schedule+0xee>
ffffffff8400a792:	00015a17          	auipc	s4,0x15
ffffffff8400a796:	0c6a3a03          	ld	s4,198(s4) # ffffffff8401f858 <ksCurThread>
ffffffff8400a79a:	00015797          	auipc	a5,0x15
ffffffff8400a79e:	0b67b783          	ld	a5,182(a5) # ffffffff8401f850 <ksIdleThread>
ffffffff8400a7a2:	00fa0863          	beq	s4,a5,ffffffff8400a7b2 <schedule+0x64>
ffffffff8400a7a6:	16843703          	ld	a4,360(s0)
ffffffff8400a7aa:	168a3783          	ld	a5,360(s4)
ffffffff8400a7ae:	08f77a63          	bgeu	a4,a5,ffffffff8400a842 <schedule+0xf4>
ffffffff8400a7b2:	00015917          	auipc	s2,0x15
ffffffff8400a7b6:	06693903          	ld	s2,102(s2) # ffffffff8401f818 <ksCurDomain>
ffffffff8400a7ba:	00391713          	slli	a4,s2,0x3
ffffffff8400a7be:	00003797          	auipc	a5,0x3
ffffffff8400a7c2:	84278793          	addi	a5,a5,-1982 # ffffffff8400d000 <riscvKSASIDTable>
ffffffff8400a7c6:	97ba                	add	a5,a5,a4
ffffffff8400a7c8:	6107b503          	ld	a0,1552(a5)
ffffffff8400a7cc:	c93d                	beqz	a0,ffffffff8400a842 <schedule+0xf4>
ffffffff8400a7ce:	e1dff0ef          	jal	ra,ffffffff8400a5ea <__clzdi2>
ffffffff8400a7d2:	89aa                	mv	s3,a0
ffffffff8400a7d4:	090a                	slli	s2,s2,0x2
ffffffff8400a7d6:	fc450793          	addi	a5,a0,-60
ffffffff8400a7da:	993e                	add	s2,s2,a5
ffffffff8400a7dc:	090e                	slli	s2,s2,0x3
ffffffff8400a7de:	00003797          	auipc	a5,0x3
ffffffff8400a7e2:	82278793          	addi	a5,a5,-2014 # ffffffff8400d000 <riscvKSASIDTable>
ffffffff8400a7e6:	993e                	add	s2,s2,a5
ffffffff8400a7e8:	69093503          	ld	a0,1680(s2)
ffffffff8400a7ec:	dffff0ef          	jal	ra,ffffffff8400a5ea <__clzdi2>
ffffffff8400a7f0:	03f00793          	li	a5,63
ffffffff8400a7f4:	413789b3          	sub	s3,a5,s3
ffffffff8400a7f8:	099a                	slli	s3,s3,0x6
ffffffff8400a7fa:	8f89                	sub	a5,a5,a0
ffffffff8400a7fc:	00f9e9b3          	or	s3,s3,a5
ffffffff8400a800:	16843783          	ld	a5,360(s0)
ffffffff8400a804:	0337ff63          	bgeu	a5,s3,ffffffff8400a842 <schedule+0xf4>
ffffffff8400a808:	8522                	mv	a0,s0
ffffffff8400a80a:	95efa0ef          	jal	ra,ffffffff84004968 <tcbSchedEnqueue>
ffffffff8400a80e:	4785                	li	a5,1
ffffffff8400a810:	00015717          	auipc	a4,0x15
ffffffff8400a814:	02f73c23          	sd	a5,56(a4) # ffffffff8401f848 <ksSchedulerAction>
ffffffff8400a818:	eb7ff0ef          	jal	ra,ffffffff8400a6ce <scheduleChooseNewThread>
ffffffff8400a81c:	a82d                	j	ffffffff8400a856 <schedule+0x108>
ffffffff8400a81e:	17053783          	ld	a5,368(a0)
ffffffff8400a822:	d3ad                	beqz	a5,ffffffff8400a784 <schedule+0x36>
ffffffff8400a824:	63a4                	ld	s1,64(a5)
ffffffff8400a826:	dcb9                	beqz	s1,ffffffff8400a784 <schedule+0x36>
ffffffff8400a828:	12053783          	ld	a5,288(a0)
ffffffff8400a82c:	8b85                	andi	a5,a5,1
ffffffff8400a82e:	e789                	bnez	a5,ffffffff8400a838 <schedule+0xea>
ffffffff8400a830:	938fa0ef          	jal	ra,ffffffff84004968 <tcbSchedEnqueue>
ffffffff8400a834:	4485                	li	s1,1
ffffffff8400a836:	b7b9                	j	ffffffff8400a784 <schedule+0x36>
ffffffff8400a838:	4481                	li	s1,0
ffffffff8400a83a:	b7a9                	j	ffffffff8400a784 <schedule+0x36>
ffffffff8400a83c:	e93ff0ef          	jal	ra,ffffffff8400a6ce <scheduleChooseNewThread>
ffffffff8400a840:	a819                	j	ffffffff8400a856 <schedule+0x108>
ffffffff8400a842:	c499                	beqz	s1,ffffffff8400a850 <schedule+0x102>
ffffffff8400a844:	16843703          	ld	a4,360(s0)
ffffffff8400a848:	168a3783          	ld	a5,360(s4)
ffffffff8400a84c:	06f70163          	beq	a4,a5,ffffffff8400a8ae <schedule+0x160>
ffffffff8400a850:	8522                	mv	a0,s0
ffffffff8400a852:	fccfa0ef          	jal	ra,ffffffff8400501e <switchToThread>
ffffffff8400a856:	00015797          	auipc	a5,0x15
ffffffff8400a85a:	fe07b923          	sd	zero,-14(a5) # ffffffff8401f848 <ksSchedulerAction>
ffffffff8400a85e:	00015797          	auipc	a5,0x15
ffffffff8400a862:	ffa7b783          	ld	a5,-6(a5) # ffffffff8401f858 <ksCurThread>
ffffffff8400a866:	1707b503          	ld	a0,368(a5)
ffffffff8400a86a:	00015797          	auipc	a5,0x15
ffffffff8400a86e:	fbe7b783          	ld	a5,-66(a5) # ffffffff8401f828 <ksCurSC>
ffffffff8400a872:	04f51963          	bne	a0,a5,ffffffff8400a8c4 <schedule+0x176>
ffffffff8400a876:	00015797          	auipc	a5,0x15
ffffffff8400a87a:	fc27b783          	ld	a5,-62(a5) # ffffffff8401f838 <ksReprogram>
ffffffff8400a87e:	e3bd                	bnez	a5,ffffffff8400a8e4 <schedule+0x196>
ffffffff8400a880:	00015797          	auipc	a5,0x15
ffffffff8400a884:	fd87b783          	ld	a5,-40(a5) # ffffffff8401f858 <ksCurThread>
ffffffff8400a888:	1707b783          	ld	a5,368(a5)
ffffffff8400a88c:	00015717          	auipc	a4,0x15
ffffffff8400a890:	f8f73e23          	sd	a5,-100(a4) # ffffffff8401f828 <ksCurSC>
ffffffff8400a894:	00015797          	auipc	a5,0x15
ffffffff8400a898:	fa47b783          	ld	a5,-92(a5) # ffffffff8401f838 <ksReprogram>
ffffffff8400a89c:	e3f9                	bnez	a5,ffffffff8400a962 <schedule+0x214>
ffffffff8400a89e:	70a2                	ld	ra,40(sp)
ffffffff8400a8a0:	7402                	ld	s0,32(sp)
ffffffff8400a8a2:	64e2                	ld	s1,24(sp)
ffffffff8400a8a4:	6942                	ld	s2,16(sp)
ffffffff8400a8a6:	69a2                	ld	s3,8(sp)
ffffffff8400a8a8:	6a02                	ld	s4,0(sp)
ffffffff8400a8aa:	6145                	addi	sp,sp,48
ffffffff8400a8ac:	8082                	ret
ffffffff8400a8ae:	8522                	mv	a0,s0
ffffffff8400a8b0:	df6fa0ef          	jal	ra,ffffffff84004ea6 <tcbSchedAppend>
ffffffff8400a8b4:	4785                	li	a5,1
ffffffff8400a8b6:	00015717          	auipc	a4,0x15
ffffffff8400a8ba:	f8f73923          	sd	a5,-110(a4) # ffffffff8401f848 <ksSchedulerAction>
ffffffff8400a8be:	e11ff0ef          	jal	ra,ffffffff8400a6ce <scheduleChooseNewThread>
ffffffff8400a8c2:	bf51                	j	ffffffff8400a856 <schedule+0x108>
ffffffff8400a8c4:	63bc                	ld	a5,64(a5)
ffffffff8400a8c6:	e799                	bnez	a5,ffffffff8400a8d4 <schedule+0x186>
ffffffff8400a8c8:	00015797          	auipc	a5,0x15
ffffffff8400a8cc:	f707b783          	ld	a5,-144(a5) # ffffffff8401f838 <ksReprogram>
ffffffff8400a8d0:	dbc5                	beqz	a5,ffffffff8400a880 <schedule+0x132>
ffffffff8400a8d2:	a8b9                	j	ffffffff8400a930 <schedule+0x1e2>
ffffffff8400a8d4:	4785                	li	a5,1
ffffffff8400a8d6:	00015717          	auipc	a4,0x15
ffffffff8400a8da:	f6f73123          	sd	a5,-158(a4) # ffffffff8401f838 <ksReprogram>
ffffffff8400a8de:	f9df80ef          	jal	ra,ffffffff8400387a <refill_unblock_check>
ffffffff8400a8e2:	bf51                	j	ffffffff8400a876 <schedule+0x128>
ffffffff8400a8e4:	00015797          	auipc	a5,0x15
ffffffff8400a8e8:	f447b783          	ld	a5,-188(a5) # ffffffff8401f828 <ksCurSC>
ffffffff8400a8ec:	63b8                	ld	a4,64(a5)
ffffffff8400a8ee:	c329                	beqz	a4,ffffffff8400a930 <schedule+0x1e2>
ffffffff8400a8f0:	00015517          	auipc	a0,0x15
ffffffff8400a8f4:	f5053503          	ld	a0,-176(a0) # ffffffff8401f840 <ksConsumed>
ffffffff8400a8f8:	c10d                	beqz	a0,ffffffff8400a91a <schedule+0x1cc>
ffffffff8400a8fa:	6398                	ld	a4,0(a5)
ffffffff8400a8fc:	e325                	bnez	a4,ffffffff8400a95c <schedule+0x20e>
ffffffff8400a8fe:	05878613          	addi	a2,a5,88
ffffffff8400a902:	67b8                	ld	a4,72(a5)
ffffffff8400a904:	0712                	slli	a4,a4,0x4
ffffffff8400a906:	9732                	add	a4,a4,a2
ffffffff8400a908:	6714                	ld	a3,8(a4)
ffffffff8400a90a:	8e89                	sub	a3,a3,a0
ffffffff8400a90c:	e714                	sd	a3,8(a4)
ffffffff8400a90e:	6bbc                	ld	a5,80(a5)
ffffffff8400a910:	0792                	slli	a5,a5,0x4
ffffffff8400a912:	97b2                	add	a5,a5,a2
ffffffff8400a914:	6798                	ld	a4,8(a5)
ffffffff8400a916:	953a                	add	a0,a0,a4
ffffffff8400a918:	e788                	sd	a0,8(a5)
ffffffff8400a91a:	00015717          	auipc	a4,0x15
ffffffff8400a91e:	f0e73703          	ld	a4,-242(a4) # ffffffff8401f828 <ksCurSC>
ffffffff8400a922:	671c                	ld	a5,8(a4)
ffffffff8400a924:	00015697          	auipc	a3,0x15
ffffffff8400a928:	f1c6b683          	ld	a3,-228(a3) # ffffffff8401f840 <ksConsumed>
ffffffff8400a92c:	97b6                	add	a5,a5,a3
ffffffff8400a92e:	e71c                	sd	a5,8(a4)
ffffffff8400a930:	00015717          	auipc	a4,0x15
ffffffff8400a934:	f1073703          	ld	a4,-240(a4) # ffffffff8401f840 <ksConsumed>
ffffffff8400a938:	00015697          	auipc	a3,0x15
ffffffff8400a93c:	ed86b683          	ld	a3,-296(a3) # ffffffff8401f810 <ksDomainTime>
ffffffff8400a940:	4781                	li	a5,0
ffffffff8400a942:	00d77463          	bgeu	a4,a3,ffffffff8400a94a <schedule+0x1fc>
ffffffff8400a946:	40e687b3          	sub	a5,a3,a4
ffffffff8400a94a:	00015717          	auipc	a4,0x15
ffffffff8400a94e:	ecf73323          	sd	a5,-314(a4) # ffffffff8401f810 <ksDomainTime>
ffffffff8400a952:	00015797          	auipc	a5,0x15
ffffffff8400a956:	ee07b723          	sd	zero,-274(a5) # ffffffff8401f840 <ksConsumed>
ffffffff8400a95a:	b71d                	j	ffffffff8400a880 <schedule+0x132>
ffffffff8400a95c:	c35f80ef          	jal	ra,ffffffff84003590 <refill_split_check>
ffffffff8400a960:	bf6d                	j	ffffffff8400a91a <schedule+0x1cc>
ffffffff8400a962:	fbff80ef          	jal	ra,ffffffff84003920 <setNextInterrupt>
ffffffff8400a966:	00015797          	auipc	a5,0x15
ffffffff8400a96a:	ec07b923          	sd	zero,-302(a5) # ffffffff8401f838 <ksReprogram>
ffffffff8400a96e:	bf05                	j	ffffffff8400a89e <schedule+0x150>

ffffffff8400a970 <handleInterruptEntry>:
ffffffff8400a970:	1141                	addi	sp,sp,-16
ffffffff8400a972:	e406                	sd	ra,8(sp)
ffffffff8400a974:	e022                	sd	s0,0(sp)
ffffffff8400a976:	00015797          	auipc	a5,0x15
ffffffff8400a97a:	efa7a783          	lw	a5,-262(a5) # ffffffff8401f870 <active_irq>
ffffffff8400a97e:	fff7869b          	addiw	a3,a5,-1
ffffffff8400a982:	03500713          	li	a4,53
ffffffff8400a986:	06d76763          	bltu	a4,a3,ffffffff8400a9f4 <handleInterruptEntry+0x84>
ffffffff8400a98a:	02079413          	slli	s0,a5,0x20
ffffffff8400a98e:	9001                	srli	s0,s0,0x20
ffffffff8400a990:	00015797          	auipc	a5,0x15
ffffffff8400a994:	ea078793          	addi	a5,a5,-352 # ffffffff8401f830 <ksCurTime>
ffffffff8400a998:	6394                	ld	a3,0(a5)
ffffffff8400a99a:	c0102773          	rdtime	a4
ffffffff8400a99e:	e398                	sd	a4,0(a5)
ffffffff8400a9a0:	00015797          	auipc	a5,0x15
ffffffff8400a9a4:	ea078793          	addi	a5,a5,-352 # ffffffff8401f840 <ksConsumed>
ffffffff8400a9a8:	6388                	ld	a0,0(a5)
ffffffff8400a9aa:	8d15                	sub	a0,a0,a3
ffffffff8400a9ac:	953a                	add	a0,a0,a4
ffffffff8400a9ae:	e388                	sd	a0,0(a5)
ffffffff8400a9b0:	00015717          	auipc	a4,0x15
ffffffff8400a9b4:	e7873703          	ld	a4,-392(a4) # ffffffff8401f828 <ksCurSC>
ffffffff8400a9b8:	6734                	ld	a3,72(a4)
ffffffff8400a9ba:	00469793          	slli	a5,a3,0x4
ffffffff8400a9be:	97ba                	add	a5,a5,a4
ffffffff8400a9c0:	73bc                	ld	a5,96(a5)
ffffffff8400a9c2:	06a7e363          	bltu	a5,a0,ffffffff8400aa28 <handleInterruptEntry+0xb8>
ffffffff8400a9c6:	8f89                	sub	a5,a5,a0
ffffffff8400a9c8:	464d                	li	a2,19
ffffffff8400a9ca:	04f67f63          	bgeu	a2,a5,ffffffff8400aa28 <handleInterruptEntry+0xb8>
ffffffff8400a9ce:	631c                	ld	a5,0(a4)
ffffffff8400a9d0:	e3a9                	bnez	a5,ffffffff8400aa12 <handleInterruptEntry+0xa2>
ffffffff8400a9d2:	0551                	addi	a0,a0,20
ffffffff8400a9d4:	00015797          	auipc	a5,0x15
ffffffff8400a9d8:	e3c7b783          	ld	a5,-452(a5) # ffffffff8401f810 <ksDomainTime>
ffffffff8400a9dc:	06a7e063          	bltu	a5,a0,ffffffff8400aa3c <handleInterruptEntry+0xcc>
ffffffff8400a9e0:	e435                	bnez	s0,ffffffff8400aa4c <handleInterruptEntry+0xdc>
ffffffff8400a9e2:	d6dff0ef          	jal	ra,ffffffff8400a74e <schedule>
ffffffff8400a9e6:	9aafa0ef          	jal	ra,ffffffff84004b90 <activateThread>
ffffffff8400a9ea:	4501                	li	a0,0
ffffffff8400a9ec:	60a2                	ld	ra,8(sp)
ffffffff8400a9ee:	6402                	ld	s0,0(sp)
ffffffff8400a9f0:	0141                	addi	sp,sp,16
ffffffff8400a9f2:	8082                	ret
ffffffff8400a9f4:	f62f70ef          	jal	ra,ffffffff84002156 <getNewActiveIRQ>
ffffffff8400a9f8:	0005079b          	sext.w	a5,a0
ffffffff8400a9fc:	00015717          	auipc	a4,0x15
ffffffff8400aa00:	e6a72a23          	sw	a0,-396(a4) # ffffffff8401f870 <active_irq>
ffffffff8400aa04:	357d                	addiw	a0,a0,-1
ffffffff8400aa06:	03500713          	li	a4,53
ffffffff8400aa0a:	f8a770e3          	bgeu	a4,a0,ffffffff8400a98a <handleInterruptEntry+0x1a>
ffffffff8400aa0e:	4781                	li	a5,0
ffffffff8400aa10:	bfad                	j	ffffffff8400a98a <handleInterruptEntry+0x1a>
ffffffff8400aa12:	6b3c                	ld	a5,80(a4)
ffffffff8400aa14:	02d7f063          	bgeu	a5,a3,ffffffff8400aa34 <handleInterruptEntry+0xc4>
ffffffff8400aa18:	6330                	ld	a2,64(a4)
ffffffff8400aa1a:	97b2                	add	a5,a5,a2
ffffffff8400aa1c:	0785                	addi	a5,a5,1
ffffffff8400aa1e:	40d786b3          	sub	a3,a5,a3
ffffffff8400aa22:	633c                	ld	a5,64(a4)
ffffffff8400aa24:	fad797e3          	bne	a5,a3,ffffffff8400a9d2 <handleInterruptEntry+0x62>
ffffffff8400aa28:	4685                	li	a3,1
ffffffff8400aa2a:	4601                	li	a2,0
ffffffff8400aa2c:	4585                	li	a1,1
ffffffff8400aa2e:	d96fc0ef          	jal	ra,ffffffff84006fc4 <chargeBudget>
ffffffff8400aa32:	b77d                	j	ffffffff8400a9e0 <handleInterruptEntry+0x70>
ffffffff8400aa34:	0785                	addi	a5,a5,1
ffffffff8400aa36:	40d786b3          	sub	a3,a5,a3
ffffffff8400aa3a:	b7e5                	j	ffffffff8400aa22 <handleInterruptEntry+0xb2>
ffffffff8400aa3c:	4785                	li	a5,1
ffffffff8400aa3e:	00015717          	auipc	a4,0x15
ffffffff8400aa42:	def73d23          	sd	a5,-518(a4) # ffffffff8401f838 <ksReprogram>
ffffffff8400aa46:	fbff90ef          	jal	ra,ffffffff84004a04 <rescheduleRequired>
ffffffff8400aa4a:	bf59                	j	ffffffff8400a9e0 <handleInterruptEntry+0x70>
ffffffff8400aa4c:	8522                	mv	a0,s0
ffffffff8400aa4e:	d8dfb0ef          	jal	ra,ffffffff840067da <handleInterrupt>
ffffffff8400aa52:	bf41                	j	ffffffff8400a9e2 <handleInterruptEntry+0x72>

ffffffff8400aa54 <c_handle_interrupt>:
ffffffff8400aa54:	1141                	addi	sp,sp,-16
ffffffff8400aa56:	e406                	sd	ra,8(sp)
ffffffff8400aa58:	f19ff0ef          	jal	ra,ffffffff8400a970 <handleInterruptEntry>
ffffffff8400aa5c:	f62f70ef          	jal	ra,ffffffff840021be <restore_user_context>

ffffffff8400aa60 <handleUnknownSyscall>:
ffffffff8400aa60:	1141                	addi	sp,sp,-16
ffffffff8400aa62:	e406                	sd	ra,8(sp)
ffffffff8400aa64:	00015717          	auipc	a4,0x15
ffffffff8400aa68:	dcc70713          	addi	a4,a4,-564 # ffffffff8401f830 <ksCurTime>
ffffffff8400aa6c:	6310                	ld	a2,0(a4)
ffffffff8400aa6e:	c01026f3          	rdtime	a3
ffffffff8400aa72:	e314                	sd	a3,0(a4)
ffffffff8400aa74:	00015717          	auipc	a4,0x15
ffffffff8400aa78:	dcc70713          	addi	a4,a4,-564 # ffffffff8401f840 <ksConsumed>
ffffffff8400aa7c:	631c                	ld	a5,0(a4)
ffffffff8400aa7e:	8f91                	sub	a5,a5,a2
ffffffff8400aa80:	97b6                	add	a5,a5,a3
ffffffff8400aa82:	e31c                	sd	a5,0(a4)
ffffffff8400aa84:	00015697          	auipc	a3,0x15
ffffffff8400aa88:	da46b683          	ld	a3,-604(a3) # ffffffff8401f828 <ksCurSC>
ffffffff8400aa8c:	66b0                	ld	a2,72(a3)
ffffffff8400aa8e:	00461713          	slli	a4,a2,0x4
ffffffff8400aa92:	9736                	add	a4,a4,a3
ffffffff8400aa94:	7338                	ld	a4,96(a4)
ffffffff8400aa96:	06f76163          	bltu	a4,a5,ffffffff8400aaf8 <handleUnknownSyscall+0x98>
ffffffff8400aa9a:	8f1d                	sub	a4,a4,a5
ffffffff8400aa9c:	45cd                	li	a1,19
ffffffff8400aa9e:	04e5fd63          	bgeu	a1,a4,ffffffff8400aaf8 <handleUnknownSyscall+0x98>
ffffffff8400aaa2:	6298                	ld	a4,0(a3)
ffffffff8400aaa4:	ef1d                	bnez	a4,ffffffff8400aae2 <handleUnknownSyscall+0x82>
ffffffff8400aaa6:	07d1                	addi	a5,a5,20
ffffffff8400aaa8:	00015717          	auipc	a4,0x15
ffffffff8400aaac:	d6873703          	ld	a4,-664(a4) # ffffffff8401f810 <ksDomainTime>
ffffffff8400aab0:	06f76d63          	bltu	a4,a5,ffffffff8400ab2a <handleUnknownSyscall+0xca>
ffffffff8400aab4:	00002797          	auipc	a5,0x2
ffffffff8400aab8:	54c78793          	addi	a5,a5,1356 # ffffffff8400d000 <riscvKSASIDTable>
ffffffff8400aabc:	4709                	li	a4,2
ffffffff8400aabe:	44e7b423          	sd	a4,1096(a5)
ffffffff8400aac2:	44a7b823          	sd	a0,1104(a5)
ffffffff8400aac6:	00015517          	auipc	a0,0x15
ffffffff8400aaca:	d9253503          	ld	a0,-622(a0) # ffffffff8401f858 <ksCurThread>
ffffffff8400aace:	c2cfc0ef          	jal	ra,ffffffff84006efa <handleFault>
ffffffff8400aad2:	c7dff0ef          	jal	ra,ffffffff8400a74e <schedule>
ffffffff8400aad6:	8bafa0ef          	jal	ra,ffffffff84004b90 <activateThread>
ffffffff8400aada:	4501                	li	a0,0
ffffffff8400aadc:	60a2                	ld	ra,8(sp)
ffffffff8400aade:	0141                	addi	sp,sp,16
ffffffff8400aae0:	8082                	ret
ffffffff8400aae2:	6ab8                	ld	a4,80(a3)
ffffffff8400aae4:	02c77f63          	bgeu	a4,a2,ffffffff8400ab22 <handleUnknownSyscall+0xc2>
ffffffff8400aae8:	62ac                	ld	a1,64(a3)
ffffffff8400aaea:	972e                	add	a4,a4,a1
ffffffff8400aaec:	0705                	addi	a4,a4,1
ffffffff8400aaee:	40c70633          	sub	a2,a4,a2
ffffffff8400aaf2:	62b8                	ld	a4,64(a3)
ffffffff8400aaf4:	fac719e3          	bne	a4,a2,ffffffff8400aaa6 <handleUnknownSyscall+0x46>
ffffffff8400aaf8:	4685                	li	a3,1
ffffffff8400aafa:	4601                	li	a2,0
ffffffff8400aafc:	4585                	li	a1,1
ffffffff8400aafe:	853e                	mv	a0,a5
ffffffff8400ab00:	cc4fc0ef          	jal	ra,ffffffff84006fc4 <chargeBudget>
ffffffff8400ab04:	00015517          	auipc	a0,0x15
ffffffff8400ab08:	d5453503          	ld	a0,-684(a0) # ffffffff8401f858 <ksCurThread>
ffffffff8400ab0c:	11853783          	ld	a5,280(a0)
ffffffff8400ab10:	8bbd                	andi	a5,a5,15
ffffffff8400ab12:	17fd                	addi	a5,a5,-1
ffffffff8400ab14:	4705                	li	a4,1
ffffffff8400ab16:	faf76ee3          	bltu	a4,a5,ffffffff8400aad2 <handleUnknownSyscall+0x72>
ffffffff8400ab1a:	4589                	li	a1,2
ffffffff8400ab1c:	f83f90ef          	jal	ra,ffffffff84004a9e <setThreadState>
ffffffff8400ab20:	bf4d                	j	ffffffff8400aad2 <handleUnknownSyscall+0x72>
ffffffff8400ab22:	0705                	addi	a4,a4,1
ffffffff8400ab24:	40c70633          	sub	a2,a4,a2
ffffffff8400ab28:	b7e9                	j	ffffffff8400aaf2 <handleUnknownSyscall+0x92>
ffffffff8400ab2a:	4785                	li	a5,1
ffffffff8400ab2c:	00015717          	auipc	a4,0x15
ffffffff8400ab30:	d0f73623          	sd	a5,-756(a4) # ffffffff8401f838 <ksReprogram>
ffffffff8400ab34:	ed1f90ef          	jal	ra,ffffffff84004a04 <rescheduleRequired>
ffffffff8400ab38:	b7f1                	j	ffffffff8400ab04 <handleUnknownSyscall+0xa4>

ffffffff8400ab3a <handleUserLevelFault>:
ffffffff8400ab3a:	1141                	addi	sp,sp,-16
ffffffff8400ab3c:	e406                	sd	ra,8(sp)
ffffffff8400ab3e:	00015717          	auipc	a4,0x15
ffffffff8400ab42:	cf270713          	addi	a4,a4,-782 # ffffffff8401f830 <ksCurTime>
ffffffff8400ab46:	6310                	ld	a2,0(a4)
ffffffff8400ab48:	c01026f3          	rdtime	a3
ffffffff8400ab4c:	e314                	sd	a3,0(a4)
ffffffff8400ab4e:	00015717          	auipc	a4,0x15
ffffffff8400ab52:	cf270713          	addi	a4,a4,-782 # ffffffff8401f840 <ksConsumed>
ffffffff8400ab56:	631c                	ld	a5,0(a4)
ffffffff8400ab58:	8f91                	sub	a5,a5,a2
ffffffff8400ab5a:	97b6                	add	a5,a5,a3
ffffffff8400ab5c:	e31c                	sd	a5,0(a4)
ffffffff8400ab5e:	00015697          	auipc	a3,0x15
ffffffff8400ab62:	cca6b683          	ld	a3,-822(a3) # ffffffff8401f828 <ksCurSC>
ffffffff8400ab66:	66b0                	ld	a2,72(a3)
ffffffff8400ab68:	00461713          	slli	a4,a2,0x4
ffffffff8400ab6c:	9736                	add	a4,a4,a3
ffffffff8400ab6e:	7338                	ld	a4,96(a4)
ffffffff8400ab70:	06f76963          	bltu	a4,a5,ffffffff8400abe2 <handleUserLevelFault+0xa8>
ffffffff8400ab74:	8f1d                	sub	a4,a4,a5
ffffffff8400ab76:	484d                	li	a6,19
ffffffff8400ab78:	06e87563          	bgeu	a6,a4,ffffffff8400abe2 <handleUserLevelFault+0xa8>
ffffffff8400ab7c:	6298                	ld	a4,0(a3)
ffffffff8400ab7e:	e731                	bnez	a4,ffffffff8400abca <handleUserLevelFault+0x90>
ffffffff8400ab80:	07d1                	addi	a5,a5,20
ffffffff8400ab82:	00015717          	auipc	a4,0x15
ffffffff8400ab86:	c8e73703          	ld	a4,-882(a4) # ffffffff8401f810 <ksDomainTime>
ffffffff8400ab8a:	08f76563          	bltu	a4,a5,ffffffff8400ac14 <handleUserLevelFault+0xda>
ffffffff8400ab8e:	00002717          	auipc	a4,0x2
ffffffff8400ab92:	47270713          	addi	a4,a4,1138 # ffffffff8400d000 <riscvKSASIDTable>
ffffffff8400ab96:	0592                	slli	a1,a1,0x4
ffffffff8400ab98:	57fd                	li	a5,-1
ffffffff8400ab9a:	9381                	srli	a5,a5,0x20
ffffffff8400ab9c:	8dfd                	and	a1,a1,a5
ffffffff8400ab9e:	1502                	slli	a0,a0,0x20
ffffffff8400aba0:	8dc9                	or	a1,a1,a0
ffffffff8400aba2:	0035e593          	ori	a1,a1,3
ffffffff8400aba6:	44b73423          	sd	a1,1096(a4)
ffffffff8400abaa:	44073823          	sd	zero,1104(a4)
ffffffff8400abae:	00015517          	auipc	a0,0x15
ffffffff8400abb2:	caa53503          	ld	a0,-854(a0) # ffffffff8401f858 <ksCurThread>
ffffffff8400abb6:	b44fc0ef          	jal	ra,ffffffff84006efa <handleFault>
ffffffff8400abba:	b95ff0ef          	jal	ra,ffffffff8400a74e <schedule>
ffffffff8400abbe:	fd3f90ef          	jal	ra,ffffffff84004b90 <activateThread>
ffffffff8400abc2:	4501                	li	a0,0
ffffffff8400abc4:	60a2                	ld	ra,8(sp)
ffffffff8400abc6:	0141                	addi	sp,sp,16
ffffffff8400abc8:	8082                	ret
ffffffff8400abca:	6ab8                	ld	a4,80(a3)
ffffffff8400abcc:	04c77063          	bgeu	a4,a2,ffffffff8400ac0c <handleUserLevelFault+0xd2>
ffffffff8400abd0:	0406b803          	ld	a6,64(a3)
ffffffff8400abd4:	9742                	add	a4,a4,a6
ffffffff8400abd6:	0705                	addi	a4,a4,1
ffffffff8400abd8:	40c70633          	sub	a2,a4,a2
ffffffff8400abdc:	62b8                	ld	a4,64(a3)
ffffffff8400abde:	fac711e3          	bne	a4,a2,ffffffff8400ab80 <handleUserLevelFault+0x46>
ffffffff8400abe2:	4685                	li	a3,1
ffffffff8400abe4:	4601                	li	a2,0
ffffffff8400abe6:	4585                	li	a1,1
ffffffff8400abe8:	853e                	mv	a0,a5
ffffffff8400abea:	bdafc0ef          	jal	ra,ffffffff84006fc4 <chargeBudget>
ffffffff8400abee:	00015517          	auipc	a0,0x15
ffffffff8400abf2:	c6a53503          	ld	a0,-918(a0) # ffffffff8401f858 <ksCurThread>
ffffffff8400abf6:	11853783          	ld	a5,280(a0)
ffffffff8400abfa:	8bbd                	andi	a5,a5,15
ffffffff8400abfc:	17fd                	addi	a5,a5,-1
ffffffff8400abfe:	4705                	li	a4,1
ffffffff8400ac00:	faf76de3          	bltu	a4,a5,ffffffff8400abba <handleUserLevelFault+0x80>
ffffffff8400ac04:	4589                	li	a1,2
ffffffff8400ac06:	e99f90ef          	jal	ra,ffffffff84004a9e <setThreadState>
ffffffff8400ac0a:	bf45                	j	ffffffff8400abba <handleUserLevelFault+0x80>
ffffffff8400ac0c:	0705                	addi	a4,a4,1
ffffffff8400ac0e:	40c70633          	sub	a2,a4,a2
ffffffff8400ac12:	b7e9                	j	ffffffff8400abdc <handleUserLevelFault+0xa2>
ffffffff8400ac14:	4785                	li	a5,1
ffffffff8400ac16:	00015717          	auipc	a4,0x15
ffffffff8400ac1a:	c2f73123          	sd	a5,-990(a4) # ffffffff8401f838 <ksReprogram>
ffffffff8400ac1e:	de7f90ef          	jal	ra,ffffffff84004a04 <rescheduleRequired>
ffffffff8400ac22:	b7f1                	j	ffffffff8400abee <handleUserLevelFault+0xb4>

ffffffff8400ac24 <handleVMFaultEvent>:
ffffffff8400ac24:	1141                	addi	sp,sp,-16
ffffffff8400ac26:	e406                	sd	ra,8(sp)
ffffffff8400ac28:	85aa                	mv	a1,a0
ffffffff8400ac2a:	00015717          	auipc	a4,0x15
ffffffff8400ac2e:	c0670713          	addi	a4,a4,-1018 # ffffffff8401f830 <ksCurTime>
ffffffff8400ac32:	6314                	ld	a3,0(a4)
ffffffff8400ac34:	c0102573          	rdtime	a0
ffffffff8400ac38:	e308                	sd	a0,0(a4)
ffffffff8400ac3a:	00015717          	auipc	a4,0x15
ffffffff8400ac3e:	c0670713          	addi	a4,a4,-1018 # ffffffff8401f840 <ksConsumed>
ffffffff8400ac42:	631c                	ld	a5,0(a4)
ffffffff8400ac44:	8f95                	sub	a5,a5,a3
ffffffff8400ac46:	97aa                	add	a5,a5,a0
ffffffff8400ac48:	e31c                	sd	a5,0(a4)
ffffffff8400ac4a:	00015697          	auipc	a3,0x15
ffffffff8400ac4e:	bde6b683          	ld	a3,-1058(a3) # ffffffff8401f828 <ksCurSC>
ffffffff8400ac52:	66b0                	ld	a2,72(a3)
ffffffff8400ac54:	00461713          	slli	a4,a2,0x4
ffffffff8400ac58:	9736                	add	a4,a4,a3
ffffffff8400ac5a:	7338                	ld	a4,96(a4)
ffffffff8400ac5c:	04f76963          	bltu	a4,a5,ffffffff8400acae <handleVMFaultEvent+0x8a>
ffffffff8400ac60:	8f1d                	sub	a4,a4,a5
ffffffff8400ac62:	454d                	li	a0,19
ffffffff8400ac64:	04e57563          	bgeu	a0,a4,ffffffff8400acae <handleVMFaultEvent+0x8a>
ffffffff8400ac68:	6298                	ld	a4,0(a3)
ffffffff8400ac6a:	e71d                	bnez	a4,ffffffff8400ac98 <handleVMFaultEvent+0x74>
ffffffff8400ac6c:	07d1                	addi	a5,a5,20
ffffffff8400ac6e:	00015717          	auipc	a4,0x15
ffffffff8400ac72:	ba273703          	ld	a4,-1118(a4) # ffffffff8401f810 <ksDomainTime>
ffffffff8400ac76:	06f76563          	bltu	a4,a5,ffffffff8400ace0 <handleVMFaultEvent+0xbc>
ffffffff8400ac7a:	00015517          	auipc	a0,0x15
ffffffff8400ac7e:	bde53503          	ld	a0,-1058(a0) # ffffffff8401f858 <ksCurThread>
ffffffff8400ac82:	bbdf70ef          	jal	ra,ffffffff8400283e <handleVMFault>
ffffffff8400ac86:	e52d                	bnez	a0,ffffffff8400acf0 <handleVMFaultEvent+0xcc>
ffffffff8400ac88:	ac7ff0ef          	jal	ra,ffffffff8400a74e <schedule>
ffffffff8400ac8c:	f05f90ef          	jal	ra,ffffffff84004b90 <activateThread>
ffffffff8400ac90:	4501                	li	a0,0
ffffffff8400ac92:	60a2                	ld	ra,8(sp)
ffffffff8400ac94:	0141                	addi	sp,sp,16
ffffffff8400ac96:	8082                	ret
ffffffff8400ac98:	6ab8                	ld	a4,80(a3)
ffffffff8400ac9a:	02c77f63          	bgeu	a4,a2,ffffffff8400acd8 <handleVMFaultEvent+0xb4>
ffffffff8400ac9e:	62a8                	ld	a0,64(a3)
ffffffff8400aca0:	972a                	add	a4,a4,a0
ffffffff8400aca2:	0705                	addi	a4,a4,1
ffffffff8400aca4:	40c70633          	sub	a2,a4,a2
ffffffff8400aca8:	62b8                	ld	a4,64(a3)
ffffffff8400acaa:	fcc711e3          	bne	a4,a2,ffffffff8400ac6c <handleVMFaultEvent+0x48>
ffffffff8400acae:	4685                	li	a3,1
ffffffff8400acb0:	4601                	li	a2,0
ffffffff8400acb2:	4585                	li	a1,1
ffffffff8400acb4:	853e                	mv	a0,a5
ffffffff8400acb6:	b0efc0ef          	jal	ra,ffffffff84006fc4 <chargeBudget>
ffffffff8400acba:	00015517          	auipc	a0,0x15
ffffffff8400acbe:	b9e53503          	ld	a0,-1122(a0) # ffffffff8401f858 <ksCurThread>
ffffffff8400acc2:	11853783          	ld	a5,280(a0)
ffffffff8400acc6:	8bbd                	andi	a5,a5,15
ffffffff8400acc8:	17fd                	addi	a5,a5,-1
ffffffff8400acca:	4705                	li	a4,1
ffffffff8400accc:	faf76ee3          	bltu	a4,a5,ffffffff8400ac88 <handleVMFaultEvent+0x64>
ffffffff8400acd0:	4589                	li	a1,2
ffffffff8400acd2:	dcdf90ef          	jal	ra,ffffffff84004a9e <setThreadState>
ffffffff8400acd6:	bf4d                	j	ffffffff8400ac88 <handleVMFaultEvent+0x64>
ffffffff8400acd8:	0705                	addi	a4,a4,1
ffffffff8400acda:	40c70633          	sub	a2,a4,a2
ffffffff8400acde:	b7e9                	j	ffffffff8400aca8 <handleVMFaultEvent+0x84>
ffffffff8400ace0:	4785                	li	a5,1
ffffffff8400ace2:	00015717          	auipc	a4,0x15
ffffffff8400ace6:	b4f73b23          	sd	a5,-1194(a4) # ffffffff8401f838 <ksReprogram>
ffffffff8400acea:	d1bf90ef          	jal	ra,ffffffff84004a04 <rescheduleRequired>
ffffffff8400acee:	b7f1                	j	ffffffff8400acba <handleVMFaultEvent+0x96>
ffffffff8400acf0:	00015517          	auipc	a0,0x15
ffffffff8400acf4:	b6853503          	ld	a0,-1176(a0) # ffffffff8401f858 <ksCurThread>
ffffffff8400acf8:	a02fc0ef          	jal	ra,ffffffff84006efa <handleFault>
ffffffff8400acfc:	b771                	j	ffffffff8400ac88 <handleVMFaultEvent+0x64>

ffffffff8400acfe <c_handle_exception>:
ffffffff8400acfe:	1141                	addi	sp,sp,-16
ffffffff8400ad00:	e406                	sd	ra,8(sp)
ffffffff8400ad02:	14202573          	csrr	a0,scause
ffffffff8400ad06:	47bd                	li	a5,15
ffffffff8400ad08:	02a7e063          	bltu	a5,a0,ffffffff8400ad28 <c_handle_exception+0x2a>
ffffffff8400ad0c:	00251713          	slli	a4,a0,0x2
ffffffff8400ad10:	00001697          	auipc	a3,0x1
ffffffff8400ad14:	ffc68693          	addi	a3,a3,-4 # ffffffff8400bd0c <msgRegisters+0x3e4>
ffffffff8400ad18:	9736                	add	a4,a4,a3
ffffffff8400ad1a:	431c                	lw	a5,0(a4)
ffffffff8400ad1c:	97b6                	add	a5,a5,a3
ffffffff8400ad1e:	8782                	jr	a5
ffffffff8400ad20:	f05ff0ef          	jal	ra,ffffffff8400ac24 <handleVMFaultEvent>
ffffffff8400ad24:	c9af70ef          	jal	ra,ffffffff840021be <restore_user_context>
ffffffff8400ad28:	4581                	li	a1,0
ffffffff8400ad2a:	e11ff0ef          	jal	ra,ffffffff8400ab3a <handleUserLevelFault>
ffffffff8400ad2e:	bfdd                	j	ffffffff8400ad24 <c_handle_exception+0x26>

ffffffff8400ad30 <handleSyscall>:
ffffffff8400ad30:	1141                	addi	sp,sp,-16
ffffffff8400ad32:	e406                	sd	ra,8(sp)
ffffffff8400ad34:	e022                	sd	s0,0(sp)
ffffffff8400ad36:	00015797          	auipc	a5,0x15
ffffffff8400ad3a:	afa78793          	addi	a5,a5,-1286 # ffffffff8401f830 <ksCurTime>
ffffffff8400ad3e:	6390                	ld	a2,0(a5)
ffffffff8400ad40:	c01026f3          	rdtime	a3
ffffffff8400ad44:	e394                	sd	a3,0(a5)
ffffffff8400ad46:	00015797          	auipc	a5,0x15
ffffffff8400ad4a:	afa78793          	addi	a5,a5,-1286 # ffffffff8401f840 <ksConsumed>
ffffffff8400ad4e:	6398                	ld	a4,0(a5)
ffffffff8400ad50:	8f11                	sub	a4,a4,a2
ffffffff8400ad52:	9736                	add	a4,a4,a3
ffffffff8400ad54:	e398                	sd	a4,0(a5)
ffffffff8400ad56:	00015697          	auipc	a3,0x15
ffffffff8400ad5a:	ad26b683          	ld	a3,-1326(a3) # ffffffff8401f828 <ksCurSC>
ffffffff8400ad5e:	66b0                	ld	a2,72(a3)
ffffffff8400ad60:	00461793          	slli	a5,a2,0x4
ffffffff8400ad64:	97b6                	add	a5,a5,a3
ffffffff8400ad66:	0607b803          	ld	a6,96(a5)
ffffffff8400ad6a:	04e86a63          	bltu	a6,a4,ffffffff8400adbe <handleSyscall+0x8e>
ffffffff8400ad6e:	40e807b3          	sub	a5,a6,a4
ffffffff8400ad72:	45cd                	li	a1,19
ffffffff8400ad74:	04f5f563          	bgeu	a1,a5,ffffffff8400adbe <handleSyscall+0x8e>
ffffffff8400ad78:	629c                	ld	a5,0(a3)
ffffffff8400ad7a:	e79d                	bnez	a5,ffffffff8400ada8 <handleSyscall+0x78>
ffffffff8400ad7c:	01470793          	addi	a5,a4,20
ffffffff8400ad80:	00015617          	auipc	a2,0x15
ffffffff8400ad84:	a9063603          	ld	a2,-1392(a2) # ffffffff8401f810 <ksDomainTime>
ffffffff8400ad88:	06f66963          	bltu	a2,a5,ffffffff8400adfa <handleSyscall+0xca>
ffffffff8400ad8c:	00b50793          	addi	a5,a0,11
ffffffff8400ad90:	4629                	li	a2,10
ffffffff8400ad92:	2cf66363          	bltu	a2,a5,ffffffff8400b058 <handleSyscall+0x328>
ffffffff8400ad96:	078a                	slli	a5,a5,0x2
ffffffff8400ad98:	00001617          	auipc	a2,0x1
ffffffff8400ad9c:	fb460613          	addi	a2,a2,-76 # ffffffff8400bd4c <msgRegisters+0x424>
ffffffff8400ada0:	97b2                	add	a5,a5,a2
ffffffff8400ada2:	439c                	lw	a5,0(a5)
ffffffff8400ada4:	97b2                	add	a5,a5,a2
ffffffff8400ada6:	8782                	jr	a5
ffffffff8400ada8:	6abc                	ld	a5,80(a3)
ffffffff8400adaa:	04c7f463          	bgeu	a5,a2,ffffffff8400adf2 <handleSyscall+0xc2>
ffffffff8400adae:	62ac                	ld	a1,64(a3)
ffffffff8400adb0:	97ae                	add	a5,a5,a1
ffffffff8400adb2:	0785                	addi	a5,a5,1
ffffffff8400adb4:	40c78633          	sub	a2,a5,a2
ffffffff8400adb8:	62bc                	ld	a5,64(a3)
ffffffff8400adba:	fcc791e3          	bne	a5,a2,ffffffff8400ad7c <handleSyscall+0x4c>
ffffffff8400adbe:	4685                	li	a3,1
ffffffff8400adc0:	4601                	li	a2,0
ffffffff8400adc2:	4585                	li	a1,1
ffffffff8400adc4:	853a                	mv	a0,a4
ffffffff8400adc6:	9fefc0ef          	jal	ra,ffffffff84006fc4 <chargeBudget>
ffffffff8400adca:	00015517          	auipc	a0,0x15
ffffffff8400adce:	a8e53503          	ld	a0,-1394(a0) # ffffffff8401f858 <ksCurThread>
ffffffff8400add2:	11853783          	ld	a5,280(a0)
ffffffff8400add6:	8bbd                	andi	a5,a5,15
ffffffff8400add8:	17fd                	addi	a5,a5,-1
ffffffff8400adda:	4705                	li	a4,1
ffffffff8400addc:	02f77763          	bgeu	a4,a5,ffffffff8400ae0a <handleSyscall+0xda>
ffffffff8400ade0:	96fff0ef          	jal	ra,ffffffff8400a74e <schedule>
ffffffff8400ade4:	dadf90ef          	jal	ra,ffffffff84004b90 <activateThread>
ffffffff8400ade8:	4501                	li	a0,0
ffffffff8400adea:	60a2                	ld	ra,8(sp)
ffffffff8400adec:	6402                	ld	s0,0(sp)
ffffffff8400adee:	0141                	addi	sp,sp,16
ffffffff8400adf0:	8082                	ret
ffffffff8400adf2:	0785                	addi	a5,a5,1
ffffffff8400adf4:	40c78633          	sub	a2,a5,a2
ffffffff8400adf8:	b7c1                	j	ffffffff8400adb8 <handleSyscall+0x88>
ffffffff8400adfa:	4785                	li	a5,1
ffffffff8400adfc:	00015717          	auipc	a4,0x15
ffffffff8400ae00:	a2f73e23          	sd	a5,-1476(a4) # ffffffff8401f838 <ksReprogram>
ffffffff8400ae04:	c01f90ef          	jal	ra,ffffffff84004a04 <rescheduleRequired>
ffffffff8400ae08:	b7c9                	j	ffffffff8400adca <handleSyscall+0x9a>
ffffffff8400ae0a:	4589                	li	a1,2
ffffffff8400ae0c:	c93f90ef          	jal	ra,ffffffff84004a9e <setThreadState>
ffffffff8400ae10:	bfc1                	j	ffffffff8400ade0 <handleSyscall+0xb0>
ffffffff8400ae12:	00015797          	auipc	a5,0x15
ffffffff8400ae16:	a467b783          	ld	a5,-1466(a5) # ffffffff8401f858 <ksCurThread>
ffffffff8400ae1a:	67b8                	ld	a4,72(a5)
ffffffff8400ae1c:	4681                	li	a3,0
ffffffff8400ae1e:	4601                	li	a2,0
ffffffff8400ae20:	4585                	li	a1,1
ffffffff8400ae22:	4501                	li	a0,0
ffffffff8400ae24:	d78ff0ef          	jal	ra,ffffffff8400a39c <handleInvocation>
ffffffff8400ae28:	dd45                	beqz	a0,ffffffff8400ade0 <handleSyscall+0xb0>
ffffffff8400ae2a:	00015797          	auipc	a5,0x15
ffffffff8400ae2e:	a467a783          	lw	a5,-1466(a5) # ffffffff8401f870 <active_irq>
ffffffff8400ae32:	fff7869b          	addiw	a3,a5,-1
ffffffff8400ae36:	03500713          	li	a4,53
ffffffff8400ae3a:	00d76c63          	bltu	a4,a3,ffffffff8400ae52 <handleSyscall+0x122>
ffffffff8400ae3e:	02079413          	slli	s0,a5,0x20
ffffffff8400ae42:	9001                	srli	s0,s0,0x20
ffffffff8400ae44:	8522                	mv	a0,s0
ffffffff8400ae46:	a22fc0ef          	jal	ra,ffffffff84007068 <mcsIRQ>
ffffffff8400ae4a:	8522                	mv	a0,s0
ffffffff8400ae4c:	98ffb0ef          	jal	ra,ffffffff840067da <handleInterrupt>
ffffffff8400ae50:	bf41                	j	ffffffff8400ade0 <handleSyscall+0xb0>
ffffffff8400ae52:	b04f70ef          	jal	ra,ffffffff84002156 <getNewActiveIRQ>
ffffffff8400ae56:	0005079b          	sext.w	a5,a0
ffffffff8400ae5a:	00015717          	auipc	a4,0x15
ffffffff8400ae5e:	a0a72b23          	sw	a0,-1514(a4) # ffffffff8401f870 <active_irq>
ffffffff8400ae62:	357d                	addiw	a0,a0,-1
ffffffff8400ae64:	03500713          	li	a4,53
ffffffff8400ae68:	f6a76ce3          	bltu	a4,a0,ffffffff8400ade0 <handleSyscall+0xb0>
ffffffff8400ae6c:	bfc9                	j	ffffffff8400ae3e <handleSyscall+0x10e>
ffffffff8400ae6e:	00015797          	auipc	a5,0x15
ffffffff8400ae72:	9ea7b783          	ld	a5,-1558(a5) # ffffffff8401f858 <ksCurThread>
ffffffff8400ae76:	67b8                	ld	a4,72(a5)
ffffffff8400ae78:	4681                	li	a3,0
ffffffff8400ae7a:	4601                	li	a2,0
ffffffff8400ae7c:	4581                	li	a1,0
ffffffff8400ae7e:	4501                	li	a0,0
ffffffff8400ae80:	d1cff0ef          	jal	ra,ffffffff8400a39c <handleInvocation>
ffffffff8400ae84:	dd31                	beqz	a0,ffffffff8400ade0 <handleSyscall+0xb0>
ffffffff8400ae86:	00015797          	auipc	a5,0x15
ffffffff8400ae8a:	9ea7a783          	lw	a5,-1558(a5) # ffffffff8401f870 <active_irq>
ffffffff8400ae8e:	fff7869b          	addiw	a3,a5,-1
ffffffff8400ae92:	03500713          	li	a4,53
ffffffff8400ae96:	00d76c63          	bltu	a4,a3,ffffffff8400aeae <handleSyscall+0x17e>
ffffffff8400ae9a:	02079413          	slli	s0,a5,0x20
ffffffff8400ae9e:	9001                	srli	s0,s0,0x20
ffffffff8400aea0:	8522                	mv	a0,s0
ffffffff8400aea2:	9c6fc0ef          	jal	ra,ffffffff84007068 <mcsIRQ>
ffffffff8400aea6:	8522                	mv	a0,s0
ffffffff8400aea8:	933fb0ef          	jal	ra,ffffffff840067da <handleInterrupt>
ffffffff8400aeac:	bf15                	j	ffffffff8400ade0 <handleSyscall+0xb0>
ffffffff8400aeae:	aa8f70ef          	jal	ra,ffffffff84002156 <getNewActiveIRQ>
ffffffff8400aeb2:	0005079b          	sext.w	a5,a0
ffffffff8400aeb6:	00015717          	auipc	a4,0x15
ffffffff8400aeba:	9aa72d23          	sw	a0,-1606(a4) # ffffffff8401f870 <active_irq>
ffffffff8400aebe:	357d                	addiw	a0,a0,-1
ffffffff8400aec0:	03500713          	li	a4,53
ffffffff8400aec4:	f0a76ee3          	bltu	a4,a0,ffffffff8400ade0 <handleSyscall+0xb0>
ffffffff8400aec8:	bfc9                	j	ffffffff8400ae9a <handleSyscall+0x16a>
ffffffff8400aeca:	00015797          	auipc	a5,0x15
ffffffff8400aece:	98e7b783          	ld	a5,-1650(a5) # ffffffff8401f858 <ksCurThread>
ffffffff8400aed2:	67b8                	ld	a4,72(a5)
ffffffff8400aed4:	4681                	li	a3,0
ffffffff8400aed6:	4605                	li	a2,1
ffffffff8400aed8:	4585                	li	a1,1
ffffffff8400aeda:	4505                	li	a0,1
ffffffff8400aedc:	cc0ff0ef          	jal	ra,ffffffff8400a39c <handleInvocation>
ffffffff8400aee0:	f00500e3          	beqz	a0,ffffffff8400ade0 <handleSyscall+0xb0>
ffffffff8400aee4:	00015797          	auipc	a5,0x15
ffffffff8400aee8:	98c7a783          	lw	a5,-1652(a5) # ffffffff8401f870 <active_irq>
ffffffff8400aeec:	fff7869b          	addiw	a3,a5,-1
ffffffff8400aef0:	03500713          	li	a4,53
ffffffff8400aef4:	00d76c63          	bltu	a4,a3,ffffffff8400af0c <handleSyscall+0x1dc>
ffffffff8400aef8:	02079413          	slli	s0,a5,0x20
ffffffff8400aefc:	9001                	srli	s0,s0,0x20
ffffffff8400aefe:	8522                	mv	a0,s0
ffffffff8400af00:	968fc0ef          	jal	ra,ffffffff84007068 <mcsIRQ>
ffffffff8400af04:	8522                	mv	a0,s0
ffffffff8400af06:	8d5fb0ef          	jal	ra,ffffffff840067da <handleInterrupt>
ffffffff8400af0a:	bdd9                	j	ffffffff8400ade0 <handleSyscall+0xb0>
ffffffff8400af0c:	a4af70ef          	jal	ra,ffffffff84002156 <getNewActiveIRQ>
ffffffff8400af10:	0005079b          	sext.w	a5,a0
ffffffff8400af14:	00015717          	auipc	a4,0x15
ffffffff8400af18:	94a72e23          	sw	a0,-1700(a4) # ffffffff8401f870 <active_irq>
ffffffff8400af1c:	357d                	addiw	a0,a0,-1
ffffffff8400af1e:	03500713          	li	a4,53
ffffffff8400af22:	eaa76fe3          	bltu	a4,a0,ffffffff8400ade0 <handleSyscall+0xb0>
ffffffff8400af26:	bfc9                	j	ffffffff8400aef8 <handleSyscall+0x1c8>
ffffffff8400af28:	4585                	li	a1,1
ffffffff8400af2a:	4505                	li	a0,1
ffffffff8400af2c:	dd7fc0ef          	jal	ra,ffffffff84007d02 <handleRecv>
ffffffff8400af30:	bd45                	j	ffffffff8400ade0 <handleSyscall+0xb0>
ffffffff8400af32:	4581                	li	a1,0
ffffffff8400af34:	4505                	li	a0,1
ffffffff8400af36:	dcdfc0ef          	jal	ra,ffffffff84007d02 <handleRecv>
ffffffff8400af3a:	b55d                	j	ffffffff8400ade0 <handleSyscall+0xb0>
ffffffff8400af3c:	4581                	li	a1,0
ffffffff8400af3e:	4501                	li	a0,0
ffffffff8400af40:	dc3fc0ef          	jal	ra,ffffffff84007d02 <handleRecv>
ffffffff8400af44:	bd71                	j	ffffffff8400ade0 <handleSyscall+0xb0>
ffffffff8400af46:	00015797          	auipc	a5,0x15
ffffffff8400af4a:	9127b783          	ld	a5,-1774(a5) # ffffffff8401f858 <ksCurThread>
ffffffff8400af4e:	7fb8                	ld	a4,120(a5)
ffffffff8400af50:	4685                	li	a3,1
ffffffff8400af52:	4605                	li	a2,1
ffffffff8400af54:	4581                	li	a1,0
ffffffff8400af56:	4501                	li	a0,0
ffffffff8400af58:	c44ff0ef          	jal	ra,ffffffff8400a39c <handleInvocation>
ffffffff8400af5c:	4585                	li	a1,1
ffffffff8400af5e:	4505                	li	a0,1
ffffffff8400af60:	da3fc0ef          	jal	ra,ffffffff84007d02 <handleRecv>
ffffffff8400af64:	bdb5                	j	ffffffff8400ade0 <handleSyscall+0xb0>
ffffffff8400af66:	00015797          	auipc	a5,0x15
ffffffff8400af6a:	8f27b783          	ld	a5,-1806(a5) # ffffffff8401f858 <ksCurThread>
ffffffff8400af6e:	7398                	ld	a4,32(a5)
ffffffff8400af70:	4685                	li	a3,1
ffffffff8400af72:	4605                	li	a2,1
ffffffff8400af74:	4581                	li	a1,0
ffffffff8400af76:	4501                	li	a0,0
ffffffff8400af78:	c24ff0ef          	jal	ra,ffffffff8400a39c <handleInvocation>
ffffffff8400af7c:	e511                	bnez	a0,ffffffff8400af88 <handleSyscall+0x258>
ffffffff8400af7e:	4585                	li	a1,1
ffffffff8400af80:	4505                	li	a0,1
ffffffff8400af82:	d81fc0ef          	jal	ra,ffffffff84007d02 <handleRecv>
ffffffff8400af86:	bda9                	j	ffffffff8400ade0 <handleSyscall+0xb0>
ffffffff8400af88:	00015797          	auipc	a5,0x15
ffffffff8400af8c:	8e87a783          	lw	a5,-1816(a5) # ffffffff8401f870 <active_irq>
ffffffff8400af90:	fff7869b          	addiw	a3,a5,-1
ffffffff8400af94:	03500713          	li	a4,53
ffffffff8400af98:	00d76c63          	bltu	a4,a3,ffffffff8400afb0 <handleSyscall+0x280>
ffffffff8400af9c:	02079413          	slli	s0,a5,0x20
ffffffff8400afa0:	9001                	srli	s0,s0,0x20
ffffffff8400afa2:	8522                	mv	a0,s0
ffffffff8400afa4:	8c4fc0ef          	jal	ra,ffffffff84007068 <mcsIRQ>
ffffffff8400afa8:	8522                	mv	a0,s0
ffffffff8400afaa:	831fb0ef          	jal	ra,ffffffff840067da <handleInterrupt>
ffffffff8400afae:	bd0d                	j	ffffffff8400ade0 <handleSyscall+0xb0>
ffffffff8400afb0:	9a6f70ef          	jal	ra,ffffffff84002156 <getNewActiveIRQ>
ffffffff8400afb4:	0005079b          	sext.w	a5,a0
ffffffff8400afb8:	00015717          	auipc	a4,0x15
ffffffff8400afbc:	8aa72c23          	sw	a0,-1864(a4) # ffffffff8401f870 <active_irq>
ffffffff8400afc0:	357d                	addiw	a0,a0,-1
ffffffff8400afc2:	03500713          	li	a4,53
ffffffff8400afc6:	e0a76de3          	bltu	a4,a0,ffffffff8400ade0 <handleSyscall+0xb0>
ffffffff8400afca:	bfc9                	j	ffffffff8400af9c <handleSyscall+0x26c>
ffffffff8400afcc:	00015797          	auipc	a5,0x15
ffffffff8400afd0:	88c7b783          	ld	a5,-1908(a5) # ffffffff8401f858 <ksCurThread>
ffffffff8400afd4:	7fb8                	ld	a4,120(a5)
ffffffff8400afd6:	4685                	li	a3,1
ffffffff8400afd8:	4605                	li	a2,1
ffffffff8400afda:	4581                	li	a1,0
ffffffff8400afdc:	4501                	li	a0,0
ffffffff8400afde:	bbeff0ef          	jal	ra,ffffffff8400a39c <handleInvocation>
ffffffff8400afe2:	e511                	bnez	a0,ffffffff8400afee <handleSyscall+0x2be>
ffffffff8400afe4:	4581                	li	a1,0
ffffffff8400afe6:	4505                	li	a0,1
ffffffff8400afe8:	d1bfc0ef          	jal	ra,ffffffff84007d02 <handleRecv>
ffffffff8400afec:	bbd5                	j	ffffffff8400ade0 <handleSyscall+0xb0>
ffffffff8400afee:	00015797          	auipc	a5,0x15
ffffffff8400aff2:	8827a783          	lw	a5,-1918(a5) # ffffffff8401f870 <active_irq>
ffffffff8400aff6:	fff7869b          	addiw	a3,a5,-1
ffffffff8400affa:	03500713          	li	a4,53
ffffffff8400affe:	00d76c63          	bltu	a4,a3,ffffffff8400b016 <handleSyscall+0x2e6>
ffffffff8400b002:	02079413          	slli	s0,a5,0x20
ffffffff8400b006:	9001                	srli	s0,s0,0x20
ffffffff8400b008:	8522                	mv	a0,s0
ffffffff8400b00a:	85efc0ef          	jal	ra,ffffffff84007068 <mcsIRQ>
ffffffff8400b00e:	8522                	mv	a0,s0
ffffffff8400b010:	fcafb0ef          	jal	ra,ffffffff840067da <handleInterrupt>
ffffffff8400b014:	b3f1                	j	ffffffff8400ade0 <handleSyscall+0xb0>
ffffffff8400b016:	940f70ef          	jal	ra,ffffffff84002156 <getNewActiveIRQ>
ffffffff8400b01a:	0005079b          	sext.w	a5,a0
ffffffff8400b01e:	00015717          	auipc	a4,0x15
ffffffff8400b022:	84a72923          	sw	a0,-1966(a4) # ffffffff8401f870 <active_irq>
ffffffff8400b026:	357d                	addiw	a0,a0,-1
ffffffff8400b028:	03500713          	li	a4,53
ffffffff8400b02c:	daa76ae3          	bltu	a4,a0,ffffffff8400ade0 <handleSyscall+0xb0>
ffffffff8400b030:	bfc9                	j	ffffffff8400b002 <handleSyscall+0x2d2>
ffffffff8400b032:	4585                	li	a1,1
ffffffff8400b034:	4501                	li	a0,0
ffffffff8400b036:	ccdfc0ef          	jal	ra,ffffffff84007d02 <handleRecv>
ffffffff8400b03a:	b35d                	j	ffffffff8400ade0 <handleSyscall+0xb0>
ffffffff8400b03c:	6680                	ld	s0,8(a3)
ffffffff8400b03e:	943a                	add	s0,s0,a4
ffffffff8400b040:	4685                	li	a3,1
ffffffff8400b042:	4601                	li	a2,0
ffffffff8400b044:	4581                	li	a1,0
ffffffff8400b046:	8542                	mv	a0,a6
ffffffff8400b048:	f7dfb0ef          	jal	ra,ffffffff84006fc4 <chargeBudget>
ffffffff8400b04c:	00014797          	auipc	a5,0x14
ffffffff8400b050:	7dc7b783          	ld	a5,2012(a5) # ffffffff8401f828 <ksCurSC>
ffffffff8400b054:	e780                	sd	s0,8(a5)
ffffffff8400b056:	b369                	j	ffffffff8400ade0 <handleSyscall+0xb0>
ffffffff8400b058:	a0cf70ef          	jal	ra,ffffffff84002264 <halt>

ffffffff8400b05c <slowpath>:
ffffffff8400b05c:	1141                	addi	sp,sp,-16
ffffffff8400b05e:	e406                	sd	ra,8(sp)
ffffffff8400b060:	57d1                	li	a5,-12
ffffffff8400b062:	00a7f663          	bgeu	a5,a0,ffffffff8400b06e <slowpath+0x12>
ffffffff8400b066:	ccbff0ef          	jal	ra,ffffffff8400ad30 <handleSyscall>
ffffffff8400b06a:	954f70ef          	jal	ra,ffffffff840021be <restore_user_context>
ffffffff8400b06e:	9f3ff0ef          	jal	ra,ffffffff8400aa60 <handleUnknownSyscall>
ffffffff8400b072:	bfe5                	j	ffffffff8400b06a <slowpath+0xe>

ffffffff8400b074 <isHighestPrio>:
ffffffff8400b074:	1101                	addi	sp,sp,-32
ffffffff8400b076:	ec06                	sd	ra,24(sp)
ffffffff8400b078:	e822                	sd	s0,16(sp)
ffffffff8400b07a:	e426                	sd	s1,8(sp)
ffffffff8400b07c:	e04a                	sd	s2,0(sp)
ffffffff8400b07e:	842a                	mv	s0,a0
ffffffff8400b080:	00351713          	slli	a4,a0,0x3
ffffffff8400b084:	00002797          	auipc	a5,0x2
ffffffff8400b088:	f7c78793          	addi	a5,a5,-132 # ffffffff8400d000 <riscvKSASIDTable>
ffffffff8400b08c:	97ba                	add	a5,a5,a4
ffffffff8400b08e:	6107b503          	ld	a0,1552(a5)
ffffffff8400b092:	c539                	beqz	a0,ffffffff8400b0e0 <isHighestPrio+0x6c>
ffffffff8400b094:	84ae                	mv	s1,a1
ffffffff8400b096:	d54ff0ef          	jal	ra,ffffffff8400a5ea <__clzdi2>
ffffffff8400b09a:	892a                	mv	s2,a0
ffffffff8400b09c:	040a                	slli	s0,s0,0x2
ffffffff8400b09e:	fc450513          	addi	a0,a0,-60
ffffffff8400b0a2:	942a                	add	s0,s0,a0
ffffffff8400b0a4:	040e                	slli	s0,s0,0x3
ffffffff8400b0a6:	00002797          	auipc	a5,0x2
ffffffff8400b0aa:	f5a78793          	addi	a5,a5,-166 # ffffffff8400d000 <riscvKSASIDTable>
ffffffff8400b0ae:	943e                	add	s0,s0,a5
ffffffff8400b0b0:	69043503          	ld	a0,1680(s0)
ffffffff8400b0b4:	d36ff0ef          	jal	ra,ffffffff8400a5ea <__clzdi2>
ffffffff8400b0b8:	03f00793          	li	a5,63
ffffffff8400b0bc:	41278933          	sub	s2,a5,s2
ffffffff8400b0c0:	091a                	slli	s2,s2,0x6
ffffffff8400b0c2:	40a78533          	sub	a0,a5,a0
ffffffff8400b0c6:	00a96533          	or	a0,s2,a0
ffffffff8400b0ca:	00a4b533          	sltu	a0,s1,a0
ffffffff8400b0ce:	00154513          	xori	a0,a0,1
ffffffff8400b0d2:	2501                	sext.w	a0,a0
ffffffff8400b0d4:	60e2                	ld	ra,24(sp)
ffffffff8400b0d6:	6442                	ld	s0,16(sp)
ffffffff8400b0d8:	64a2                	ld	s1,8(sp)
ffffffff8400b0da:	6902                	ld	s2,0(sp)
ffffffff8400b0dc:	6105                	addi	sp,sp,32
ffffffff8400b0de:	8082                	ret
ffffffff8400b0e0:	4505                	li	a0,1
ffffffff8400b0e2:	bfcd                	j	ffffffff8400b0d4 <isHighestPrio+0x60>

ffffffff8400b0e4 <fastpath_call>:
ffffffff8400b0e4:	715d                	addi	sp,sp,-80
ffffffff8400b0e6:	e486                	sd	ra,72(sp)
ffffffff8400b0e8:	e0a2                	sd	s0,64(sp)
ffffffff8400b0ea:	fc26                	sd	s1,56(sp)
ffffffff8400b0ec:	f84a                	sd	s2,48(sp)
ffffffff8400b0ee:	f44e                	sd	s3,40(sp)
ffffffff8400b0f0:	f052                	sd	s4,32(sp)
ffffffff8400b0f2:	ec56                	sd	s5,24(sp)
ffffffff8400b0f4:	e85a                	sd	s6,16(sp)
ffffffff8400b0f6:	e45e                	sd	s7,8(sp)
ffffffff8400b0f8:	00014817          	auipc	a6,0x14
ffffffff8400b0fc:	76083803          	ld	a6,1888(a6) # ffffffff8401f858 <ksCurThread>
ffffffff8400b100:	13883703          	ld	a4,312(a6)
ffffffff8400b104:	1ff5f693          	andi	a3,a1,511
ffffffff8400b108:	4791                	li	a5,4
ffffffff8400b10a:	0ed7ed63          	bltu	a5,a3,ffffffff8400b204 <fastpath_call+0x120>
ffffffff8400b10e:	892e                	mv	s2,a1
ffffffff8400b110:	8b3d                	andi	a4,a4,15
ffffffff8400b112:	eb6d                	bnez	a4,ffffffff8400b204 <fastpath_call+0x120>
ffffffff8400b114:	c0087793          	andi	a5,a6,-1024
ffffffff8400b118:	6380                	ld	s0,0(a5)
ffffffff8400b11a:	0087b983          	ld	s3,8(a5)
ffffffff8400b11e:	03b45693          	srli	a3,s0,0x3b
ffffffff8400b122:	47a9                	li	a5,10
ffffffff8400b124:	0ef69863          	bne	a3,a5,ffffffff8400b214 <fastpath_call+0x130>
ffffffff8400b128:	04000e93          	li	t4,64
ffffffff8400b12c:	fc0007b7          	lui	a5,0xfc000
ffffffff8400b130:	0197de13          	srli	t3,a5,0x19
ffffffff8400b134:	4785                	li	a5,1
ffffffff8400b136:	02679313          	slli	t1,a5,0x26
ffffffff8400b13a:	57fd                	li	a5,-1
ffffffff8400b13c:	02779893          	slli	a7,a5,0x27
ffffffff8400b140:	03f00f13          	li	t5,63
ffffffff8400b144:	4fa9                	li	t6,10
ffffffff8400b146:	03545693          	srli	a3,s0,0x35
ffffffff8400b14a:	03f6f693          	andi	a3,a3,63
ffffffff8400b14e:	02f45613          	srli	a2,s0,0x2f
ffffffff8400b152:	03f67613          	andi	a2,a2,63
ffffffff8400b156:	00e517b3          	sll	a5,a0,a4
ffffffff8400b15a:	c699                	beqz	a3,ffffffff8400b168 <fastpath_call+0x84>
ffffffff8400b15c:	40de85bb          	subw	a1,t4,a3
ffffffff8400b160:	00b7d5b3          	srl	a1,a5,a1
ffffffff8400b164:	0ab99863          	bne	s3,a1,ffffffff8400b214 <fastpath_call+0x130>
ffffffff8400b168:	00d797b3          	sll	a5,a5,a3
ffffffff8400b16c:	40ce85bb          	subw	a1,t4,a2
ffffffff8400b170:	00b7d7b3          	srl	a5,a5,a1
ffffffff8400b174:	0796                	slli	a5,a5,0x5
ffffffff8400b176:	0406                	slli	s0,s0,0x1
ffffffff8400b178:	01c475b3          	and	a1,s0,t3
ffffffff8400b17c:	00647433          	and	s0,s0,t1
ffffffff8400b180:	c019                	beqz	s0,ffffffff8400b186 <fastpath_call+0xa2>
ffffffff8400b182:	0115e5b3          	or	a1,a1,a7
ffffffff8400b186:	97ae                	add	a5,a5,a1
ffffffff8400b188:	6380                	ld	s0,0(a5)
ffffffff8400b18a:	0087b983          	ld	s3,8(a5) # fffffffffc000008 <ki_end+0x77fdb008>
ffffffff8400b18e:	96b2                	add	a3,a3,a2
ffffffff8400b190:	9736                	add	a4,a4,a3
ffffffff8400b192:	06ef7c63          	bgeu	t5,a4,ffffffff8400b20a <fastpath_call+0x126>
ffffffff8400b196:	04000793          	li	a5,64
ffffffff8400b19a:	06e7ed63          	bltu	a5,a4,ffffffff8400b214 <fastpath_call+0x130>
ffffffff8400b19e:	03b45793          	srli	a5,s0,0x3b
ffffffff8400b1a2:	4711                	li	a4,4
ffffffff8400b1a4:	06e79863          	bne	a5,a4,ffffffff8400b214 <fastpath_call+0x130>
ffffffff8400b1a8:	03745793          	srli	a5,s0,0x37
ffffffff8400b1ac:	8b85                	andi	a5,a5,1
ffffffff8400b1ae:	c3bd                	beqz	a5,ffffffff8400b214 <fastpath_call+0x130>
ffffffff8400b1b0:	01941793          	slli	a5,s0,0x19
ffffffff8400b1b4:	83e5                	srli	a5,a5,0x19
ffffffff8400b1b6:	02645713          	srli	a4,s0,0x26
ffffffff8400b1ba:	8b05                	andi	a4,a4,1
ffffffff8400b1bc:	c701                	beqz	a4,ffffffff8400b1c4 <fastpath_call+0xe0>
ffffffff8400b1be:	577d                	li	a4,-1
ffffffff8400b1c0:	171e                	slli	a4,a4,0x27
ffffffff8400b1c2:	8fd9                	or	a5,a5,a4
ffffffff8400b1c4:	8b3e                	mv	s6,a5
ffffffff8400b1c6:	0087ba03          	ld	s4,8(a5)
ffffffff8400b1ca:	639c                	ld	a5,0(a5)
ffffffff8400b1cc:	8b8d                	andi	a5,a5,3
ffffffff8400b1ce:	4709                	li	a4,2
ffffffff8400b1d0:	04e79563          	bne	a5,a4,ffffffff8400b21a <fastpath_call+0x136>
ffffffff8400b1d4:	c00a7793          	andi	a5,s4,-1024
ffffffff8400b1d8:	7398                	ld	a4,32(a5)
ffffffff8400b1da:	0287ba83          	ld	s5,40(a5)
ffffffff8400b1de:	009ad793          	srli	a5,s5,0x9
ffffffff8400b1e2:	01979493          	slli	s1,a5,0x19
ffffffff8400b1e6:	80e5                	srli	s1,s1,0x19
ffffffff8400b1e8:	9399                	srli	a5,a5,0x26
ffffffff8400b1ea:	8b85                	andi	a5,a5,1
ffffffff8400b1ec:	c781                	beqz	a5,ffffffff8400b1f4 <fastpath_call+0x110>
ffffffff8400b1ee:	57fd                	li	a5,-1
ffffffff8400b1f0:	179e                	slli	a5,a5,0x27
ffffffff8400b1f2:	8cdd                	or	s1,s1,a5
ffffffff8400b1f4:	03b75793          	srli	a5,a4,0x3b
ffffffff8400b1f8:	468d                	li	a3,3
ffffffff8400b1fa:	02d78363          	beq	a5,a3,ffffffff8400b220 <fastpath_call+0x13c>
ffffffff8400b1fe:	557d                	li	a0,-1
ffffffff8400b200:	e5dff0ef          	jal	ra,ffffffff8400b05c <slowpath>
ffffffff8400b204:	557d                	li	a0,-1
ffffffff8400b206:	e57ff0ef          	jal	ra,ffffffff8400b05c <slowpath>
ffffffff8400b20a:	03b45793          	srli	a5,s0,0x3b
ffffffff8400b20e:	f9f798e3          	bne	a5,t6,ffffffff8400b19e <fastpath_call+0xba>
ffffffff8400b212:	bf15                	j	ffffffff8400b146 <fastpath_call+0x62>
ffffffff8400b214:	557d                	li	a0,-1
ffffffff8400b216:	e47ff0ef          	jal	ra,ffffffff8400b05c <slowpath>
ffffffff8400b21a:	557d                	li	a0,-1
ffffffff8400b21c:	e41ff0ef          	jal	ra,ffffffff8400b05c <slowpath>
ffffffff8400b220:	931d                	srli	a4,a4,0x27
ffffffff8400b222:	8b05                	andi	a4,a4,1
ffffffff8400b224:	df69                	beqz	a4,ffffffff8400b1fe <fastpath_call+0x11a>
ffffffff8400b226:	00014b97          	auipc	s7,0x14
ffffffff8400b22a:	5f2bbb83          	ld	s7,1522(s7) # ffffffff8401f818 <ksCurDomain>
ffffffff8400b22e:	168a3583          	ld	a1,360(s4)
ffffffff8400b232:	16883783          	ld	a5,360(a6)
ffffffff8400b236:	1af5e963          	bltu	a1,a5,ffffffff8400b3e8 <fastpath_call+0x304>
ffffffff8400b23a:	03945793          	srli	a5,s0,0x39
ffffffff8400b23e:	9069                	srli	s0,s0,0x3a
ffffffff8400b240:	8c5d                	or	s0,s0,a5
ffffffff8400b242:	8805                	andi	s0,s0,1
ffffffff8400b244:	1a040a63          	beqz	s0,ffffffff8400b3f8 <fastpath_call+0x314>
ffffffff8400b248:	158a3783          	ld	a5,344(s4)
ffffffff8400b24c:	1b779963          	bne	a5,s7,ffffffff8400b3fe <fastpath_call+0x31a>
ffffffff8400b250:	170a3783          	ld	a5,368(s4)
ffffffff8400b254:	1a079863          	bnez	a5,ffffffff8400b404 <fastpath_call+0x320>
ffffffff8400b258:	120a3783          	ld	a5,288(s4)
ffffffff8400b25c:	8385                	srli	a5,a5,0x1
ffffffff8400b25e:	e00005b7          	lui	a1,0xe0000
ffffffff8400b262:	81e5                	srli	a1,a1,0x19
ffffffff8400b264:	8dfd                	and	a1,a1,a5
ffffffff8400b266:	9399                	srli	a5,a5,0x26
ffffffff8400b268:	8b85                	andi	a5,a5,1
ffffffff8400b26a:	1a078063          	beqz	a5,ffffffff8400b40a <fastpath_call+0x326>
ffffffff8400b26e:	57fd                	li	a5,-1
ffffffff8400b270:	179e                	slli	a5,a5,0x27
ffffffff8400b272:	8ddd                	or	a1,a1,a5
ffffffff8400b274:	852e                	mv	a0,a1
ffffffff8400b276:	198a3783          	ld	a5,408(s4)
ffffffff8400b27a:	00fb3423          	sd	a5,8(s6)
ffffffff8400b27e:	198a3783          	ld	a5,408(s4)
ffffffff8400b282:	18079a63          	bnez	a5,ffffffff8400b416 <fastpath_call+0x332>
ffffffff8400b286:	000b3023          	sd	zero,0(s6)
ffffffff8400b28a:	00014897          	auipc	a7,0x14
ffffffff8400b28e:	5ce88893          	addi	a7,a7,1486 # ffffffff8401f858 <ksCurThread>
ffffffff8400b292:	0008b603          	ld	a2,0(a7)
ffffffff8400b296:	4795                	li	a5,5
ffffffff8400b298:	10f63c23          	sd	a5,280(a2)
ffffffff8400b29c:	120a3703          	ld	a4,288(s4)
ffffffff8400b2a0:	57fd                	li	a5,-1
ffffffff8400b2a2:	02879693          	slli	a3,a5,0x28
ffffffff8400b2a6:	06fd                	addi	a3,a3,31
ffffffff8400b2a8:	8f75                	and	a4,a4,a3
ffffffff8400b2aa:	12ea3023          	sd	a4,288(s4)
ffffffff8400b2ae:	12063703          	ld	a4,288(a2)
ffffffff8400b2b2:	8ef9                	and	a3,a3,a4
ffffffff8400b2b4:	00159713          	slli	a4,a1,0x1
ffffffff8400b2b8:	e0000837          	lui	a6,0xe0000
ffffffff8400b2bc:	01885813          	srli	a6,a6,0x18
ffffffff8400b2c0:	01077733          	and	a4,a4,a6
ffffffff8400b2c4:	8f55                	or	a4,a4,a3
ffffffff8400b2c6:	12e63023          	sd	a4,288(a2)
ffffffff8400b2ca:	e110                	sd	a2,0(a0)
ffffffff8400b2cc:	0008b603          	ld	a2,0(a7)
ffffffff8400b2d0:	17063703          	ld	a4,368(a2)
ffffffff8400b2d4:	01473c23          	sd	s4,24(a4)
ffffffff8400b2d8:	16ea3823          	sd	a4,368(s4)
ffffffff8400b2dc:	16063823          	sd	zero,368(a2)
ffffffff8400b2e0:	7314                	ld	a3,32(a4)
ffffffff8400b2e2:	83e5                	srli	a5,a5,0x19
ffffffff8400b2e4:	8ff5                	and	a5,a5,a3
ffffffff8400b2e6:	e51c                	sd	a5,8(a0)
ffffffff8400b2e8:	12069a63          	bnez	a3,ffffffff8400b41c <fastpath_call+0x338>
ffffffff8400b2ec:	07f97693          	andi	a3,s2,127
ffffffff8400b2f0:	01971793          	slli	a5,a4,0x19
ffffffff8400b2f4:	83e5                	srli	a5,a5,0x19
ffffffff8400b2f6:	4585                	li	a1,1
ffffffff8400b2f8:	15c2                	slli	a1,a1,0x30
ffffffff8400b2fa:	8fcd                	or	a5,a5,a1
ffffffff8400b2fc:	e91c                	sd	a5,16(a0)
ffffffff8400b2fe:	f308                	sd	a0,32(a4)
ffffffff8400b300:	ce81                	beqz	a3,ffffffff8400b318 <fastpath_call+0x234>
ffffffff8400b302:	87b2                	mv	a5,a2
ffffffff8400b304:	058a0713          	addi	a4,s4,88
ffffffff8400b308:	068e                	slli	a3,a3,0x3
ffffffff8400b30a:	9636                	add	a2,a2,a3
ffffffff8400b30c:	6fb4                	ld	a3,88(a5)
ffffffff8400b30e:	e314                	sd	a3,0(a4)
ffffffff8400b310:	07a1                	addi	a5,a5,8
ffffffff8400b312:	0721                	addi	a4,a4,8
ffffffff8400b314:	fef61ce3          	bne	a2,a5,ffffffff8400b30c <fastpath_call+0x228>
ffffffff8400b318:	4785                	li	a5,1
ffffffff8400b31a:	10fa3c23          	sd	a5,280(s4)
ffffffff8400b31e:	179a                	slli	a5,a5,0x26
ffffffff8400b320:	97a6                	add	a5,a5,s1
ffffffff8400b322:	83b1                	srli	a5,a5,0xc
ffffffff8400b324:	577d                	li	a4,-1
ffffffff8400b326:	01475493          	srli	s1,a4,0x14
ffffffff8400b32a:	8fe5                	and	a5,a5,s1
ffffffff8400b32c:	030ada93          	srli	s5,s5,0x30
ffffffff8400b330:	1ab2                	slli	s5,s5,0x2c
ffffffff8400b332:	0157e7b3          	or	a5,a5,s5
ffffffff8400b336:	177e                	slli	a4,a4,0x3f
ffffffff8400b338:	8fd9                	or	a5,a5,a4
ffffffff8400b33a:	18079073          	csrw	satp,a5
ffffffff8400b33e:	12000073          	sfence.vma
ffffffff8400b342:	00014797          	auipc	a5,0x14
ffffffff8400b346:	5147bb23          	sd	s4,1302(a5) # ffffffff8401f858 <ksCurThread>
ffffffff8400b34a:	854e                	mv	a0,s3
ffffffff8400b34c:	75fd                	lui	a1,0xfffff
ffffffff8400b34e:	1ff58593          	addi	a1,a1,511 # fffffffffffff1ff <ki_end+0x7bfda1ff>
ffffffff8400b352:	00b975b3          	and	a1,s2,a1
ffffffff8400b356:	82d2                	mv	t0,s4
ffffffff8400b358:	0002b083          	ld	ra,0(t0)
ffffffff8400b35c:	0082b103          	ld	sp,8(t0)
ffffffff8400b360:	0102b183          	ld	gp,16(t0)
ffffffff8400b364:	0302b383          	ld	t2,48(t0)
ffffffff8400b368:	0382b403          	ld	s0,56(t0)
ffffffff8400b36c:	0402b483          	ld	s1,64(t0)
ffffffff8400b370:	0582b603          	ld	a2,88(t0)
ffffffff8400b374:	0602b683          	ld	a3,96(t0)
ffffffff8400b378:	0682b703          	ld	a4,104(t0)
ffffffff8400b37c:	0702b783          	ld	a5,112(t0)
ffffffff8400b380:	0782b803          	ld	a6,120(t0)
ffffffff8400b384:	0802b883          	ld	a7,128(t0)
ffffffff8400b388:	0882b903          	ld	s2,136(t0)
ffffffff8400b38c:	0902b983          	ld	s3,144(t0)
ffffffff8400b390:	0982ba03          	ld	s4,152(t0)
ffffffff8400b394:	0a02ba83          	ld	s5,160(t0)
ffffffff8400b398:	0a82bb03          	ld	s6,168(t0)
ffffffff8400b39c:	0b02bb83          	ld	s7,176(t0)
ffffffff8400b3a0:	0b82bc03          	ld	s8,184(t0)
ffffffff8400b3a4:	0c02bc83          	ld	s9,192(t0)
ffffffff8400b3a8:	0c82bd03          	ld	s10,200(t0)
ffffffff8400b3ac:	0d02bd83          	ld	s11,208(t0)
ffffffff8400b3b0:	0d82be03          	ld	t3,216(t0)
ffffffff8400b3b4:	0e02be83          	ld	t4,224(t0)
ffffffff8400b3b8:	0e82bf03          	ld	t5,232(t0)
ffffffff8400b3bc:	0f02bf83          	ld	t6,240(t0)
ffffffff8400b3c0:	0182b303          	ld	t1,24(t0)
ffffffff8400b3c4:	00030233          	add	tp,t1,zero
ffffffff8400b3c8:	1102b303          	ld	t1,272(t0)
ffffffff8400b3cc:	14131073          	csrw	sepc,t1
ffffffff8400b3d0:	14029073          	csrw	sscratch,t0
ffffffff8400b3d4:	1002b303          	ld	t1,256(t0)
ffffffff8400b3d8:	10031073          	csrw	sstatus,t1
ffffffff8400b3dc:	0282b303          	ld	t1,40(t0)
ffffffff8400b3e0:	0202b283          	ld	t0,32(t0)
ffffffff8400b3e4:	10200073          	sret
ffffffff8400b3e8:	855e                	mv	a0,s7
ffffffff8400b3ea:	c8bff0ef          	jal	ra,ffffffff8400b074 <isHighestPrio>
ffffffff8400b3ee:	e40516e3          	bnez	a0,ffffffff8400b23a <fastpath_call+0x156>
ffffffff8400b3f2:	557d                	li	a0,-1
ffffffff8400b3f4:	c69ff0ef          	jal	ra,ffffffff8400b05c <slowpath>
ffffffff8400b3f8:	557d                	li	a0,-1
ffffffff8400b3fa:	c63ff0ef          	jal	ra,ffffffff8400b05c <slowpath>
ffffffff8400b3fe:	557d                	li	a0,-1
ffffffff8400b400:	c5dff0ef          	jal	ra,ffffffff8400b05c <slowpath>
ffffffff8400b404:	557d                	li	a0,-1
ffffffff8400b406:	c57ff0ef          	jal	ra,ffffffff8400b05c <slowpath>
ffffffff8400b40a:	e581                	bnez	a1,ffffffff8400b412 <fastpath_call+0x32e>
ffffffff8400b40c:	557d                	li	a0,-1
ffffffff8400b40e:	c4fff0ef          	jal	ra,ffffffff8400b05c <slowpath>
ffffffff8400b412:	852e                	mv	a0,a1
ffffffff8400b414:	b58d                	j	ffffffff8400b276 <fastpath_call+0x192>
ffffffff8400b416:	1a07b023          	sd	zero,416(a5)
ffffffff8400b41a:	bd85                	j	ffffffff8400b28a <fastpath_call+0x1a6>
ffffffff8400b41c:	57fd                	li	a5,-1
ffffffff8400b41e:	83e5                	srli	a5,a5,0x19
ffffffff8400b420:	8fed                	and	a5,a5,a1
ffffffff8400b422:	ea9c                	sd	a5,16(a3)
ffffffff8400b424:	b5e1                	j	ffffffff8400b2ec <fastpath_call+0x208>

ffffffff8400b426 <fastpath_reply_recv>:
ffffffff8400b426:	711d                	addi	sp,sp,-96
ffffffff8400b428:	ec86                	sd	ra,88(sp)
ffffffff8400b42a:	e8a2                	sd	s0,80(sp)
ffffffff8400b42c:	e4a6                	sd	s1,72(sp)
ffffffff8400b42e:	e0ca                	sd	s2,64(sp)
ffffffff8400b430:	fc4e                	sd	s3,56(sp)
ffffffff8400b432:	f852                	sd	s4,48(sp)
ffffffff8400b434:	f456                	sd	s5,40(sp)
ffffffff8400b436:	f05a                	sd	s6,32(sp)
ffffffff8400b438:	ec5e                	sd	s7,24(sp)
ffffffff8400b43a:	e862                	sd	s8,16(sp)
ffffffff8400b43c:	e466                	sd	s9,8(sp)
ffffffff8400b43e:	84ae                	mv	s1,a1
ffffffff8400b440:	00014917          	auipc	s2,0x14
ffffffff8400b444:	41893903          	ld	s2,1048(s2) # ffffffff8401f858 <ksCurThread>
ffffffff8400b448:	13893583          	ld	a1,312(s2)
ffffffff8400b44c:	1ff4f713          	andi	a4,s1,511
ffffffff8400b450:	4791                	li	a5,4
ffffffff8400b452:	1ae7ed63          	bltu	a5,a4,ffffffff8400b60c <fastpath_reply_recv+0x1e6>
ffffffff8400b456:	89bd                	andi	a1,a1,15
ffffffff8400b458:	1a059a63          	bnez	a1,ffffffff8400b60c <fastpath_reply_recv+0x1e6>
ffffffff8400b45c:	c0097793          	andi	a5,s2,-1024
ffffffff8400b460:	6398                	ld	a4,0(a5)
ffffffff8400b462:	6780                	ld	s0,8(a5)
ffffffff8400b464:	03b75693          	srli	a3,a4,0x3b
ffffffff8400b468:	47a9                	li	a5,10
ffffffff8400b46a:	1af69963          	bne	a3,a5,ffffffff8400b61c <fastpath_reply_recv+0x1f6>
ffffffff8400b46e:	8a22                	mv	s4,s0
ffffffff8400b470:	87ba                	mv	a5,a4
ffffffff8400b472:	832e                	mv	t1,a1
ffffffff8400b474:	04000293          	li	t0,64
ffffffff8400b478:	fc000eb7          	lui	t4,0xfc000
ffffffff8400b47c:	019ede93          	srli	t4,t4,0x19
ffffffff8400b480:	4e05                	li	t3,1
ffffffff8400b482:	1e1a                	slli	t3,t3,0x26
ffffffff8400b484:	5f7d                	li	t5,-1
ffffffff8400b486:	1f1e                	slli	t5,t5,0x27
ffffffff8400b488:	03f00393          	li	t2,63
ffffffff8400b48c:	49a9                	li	s3,10
ffffffff8400b48e:	0357d813          	srli	a6,a5,0x35
ffffffff8400b492:	03f87813          	andi	a6,a6,63
ffffffff8400b496:	02f7d893          	srli	a7,a5,0x2f
ffffffff8400b49a:	03f8f893          	andi	a7,a7,63
ffffffff8400b49e:	006516b3          	sll	a3,a0,t1
ffffffff8400b4a2:	00080863          	beqz	a6,ffffffff8400b4b2 <fastpath_reply_recv+0x8c>
ffffffff8400b4a6:	41028fbb          	subw	t6,t0,a6
ffffffff8400b4aa:	01f6dfb3          	srl	t6,a3,t6
ffffffff8400b4ae:	174f9763          	bne	t6,s4,ffffffff8400b61c <fastpath_reply_recv+0x1f6>
ffffffff8400b4b2:	010696b3          	sll	a3,a3,a6
ffffffff8400b4b6:	41128fbb          	subw	t6,t0,a7
ffffffff8400b4ba:	01f6d6b3          	srl	a3,a3,t6
ffffffff8400b4be:	0696                	slli	a3,a3,0x5
ffffffff8400b4c0:	0786                	slli	a5,a5,0x1
ffffffff8400b4c2:	01d7ffb3          	and	t6,a5,t4
ffffffff8400b4c6:	01c7f7b3          	and	a5,a5,t3
ffffffff8400b4ca:	c399                	beqz	a5,ffffffff8400b4d0 <fastpath_reply_recv+0xaa>
ffffffff8400b4cc:	01efefb3          	or	t6,t6,t5
ffffffff8400b4d0:	96fe                	add	a3,a3,t6
ffffffff8400b4d2:	629c                	ld	a5,0(a3)
ffffffff8400b4d4:	0086ba03          	ld	s4,8(a3)
ffffffff8400b4d8:	9846                	add	a6,a6,a7
ffffffff8400b4da:	9342                	add	t1,t1,a6
ffffffff8400b4dc:	1263fb63          	bgeu	t2,t1,ffffffff8400b612 <fastpath_reply_recv+0x1ec>
ffffffff8400b4e0:	04000693          	li	a3,64
ffffffff8400b4e4:	1266ec63          	bltu	a3,t1,ffffffff8400b61c <fastpath_reply_recv+0x1f6>
ffffffff8400b4e8:	03b7d693          	srli	a3,a5,0x3b
ffffffff8400b4ec:	4511                	li	a0,4
ffffffff8400b4ee:	12a69763          	bne	a3,a0,ffffffff8400b61c <fastpath_reply_recv+0x1f6>
ffffffff8400b4f2:	0387d693          	srli	a3,a5,0x38
ffffffff8400b4f6:	8a85                	andi	a3,a3,1
ffffffff8400b4f8:	12068263          	beqz	a3,ffffffff8400b61c <fastpath_reply_recv+0x1f6>
ffffffff8400b4fc:	04000e93          	li	t4,64
ffffffff8400b500:	fc0006b7          	lui	a3,0xfc000
ffffffff8400b504:	0196df13          	srli	t5,a3,0x19
ffffffff8400b508:	4685                	li	a3,1
ffffffff8400b50a:	02669e13          	slli	t3,a3,0x26
ffffffff8400b50e:	56fd                	li	a3,-1
ffffffff8400b510:	02769313          	slli	t1,a3,0x27
ffffffff8400b514:	03f00f93          	li	t6,63
ffffffff8400b518:	42a9                	li	t0,10
ffffffff8400b51a:	03575513          	srli	a0,a4,0x35
ffffffff8400b51e:	03f57513          	andi	a0,a0,63
ffffffff8400b522:	02f75813          	srli	a6,a4,0x2f
ffffffff8400b526:	03f87813          	andi	a6,a6,63
ffffffff8400b52a:	00b616b3          	sll	a3,a2,a1
ffffffff8400b52e:	c519                	beqz	a0,ffffffff8400b53c <fastpath_reply_recv+0x116>
ffffffff8400b530:	40ae88bb          	subw	a7,t4,a0
ffffffff8400b534:	0116d8b3          	srl	a7,a3,a7
ffffffff8400b538:	0f141a63          	bne	s0,a7,ffffffff8400b62c <fastpath_reply_recv+0x206>
ffffffff8400b53c:	00a696b3          	sll	a3,a3,a0
ffffffff8400b540:	410e88bb          	subw	a7,t4,a6
ffffffff8400b544:	0116d6b3          	srl	a3,a3,a7
ffffffff8400b548:	0696                	slli	a3,a3,0x5
ffffffff8400b54a:	0706                	slli	a4,a4,0x1
ffffffff8400b54c:	01e778b3          	and	a7,a4,t5
ffffffff8400b550:	01c77733          	and	a4,a4,t3
ffffffff8400b554:	c319                	beqz	a4,ffffffff8400b55a <fastpath_reply_recv+0x134>
ffffffff8400b556:	0068e8b3          	or	a7,a7,t1
ffffffff8400b55a:	96c6                	add	a3,a3,a7
ffffffff8400b55c:	6298                	ld	a4,0(a3)
ffffffff8400b55e:	6680                	ld	s0,8(a3)
ffffffff8400b560:	9542                	add	a0,a0,a6
ffffffff8400b562:	95aa                	add	a1,a1,a0
ffffffff8400b564:	0abfff63          	bgeu	t6,a1,ffffffff8400b622 <fastpath_reply_recv+0x1fc>
ffffffff8400b568:	04000693          	li	a3,64
ffffffff8400b56c:	0cb6e063          	bltu	a3,a1,ffffffff8400b62c <fastpath_reply_recv+0x206>
ffffffff8400b570:	936d                	srli	a4,a4,0x3b
ffffffff8400b572:	46a1                	li	a3,8
ffffffff8400b574:	0ad71c63          	bne	a4,a3,ffffffff8400b62c <fastpath_reply_recv+0x206>
ffffffff8400b578:	13093703          	ld	a4,304(s2)
ffffffff8400b57c:	eb5d                	bnez	a4,ffffffff8400b632 <fastpath_reply_recv+0x20c>
ffffffff8400b57e:	01979a13          	slli	s4,a5,0x19
ffffffff8400b582:	019a5a13          	srli	s4,s4,0x19
ffffffff8400b586:	9399                	srli	a5,a5,0x26
ffffffff8400b588:	8b85                	andi	a5,a5,1
ffffffff8400b58a:	c789                	beqz	a5,ffffffff8400b594 <fastpath_reply_recv+0x16e>
ffffffff8400b58c:	57fd                	li	a5,-1
ffffffff8400b58e:	179e                	slli	a5,a5,0x27
ffffffff8400b590:	00fa6a33          	or	s4,s4,a5
ffffffff8400b594:	8c52                	mv	s8,s4
ffffffff8400b596:	000a3783          	ld	a5,0(s4)
ffffffff8400b59a:	8b8d                	andi	a5,a5,3
ffffffff8400b59c:	4705                	li	a4,1
ffffffff8400b59e:	0ae78263          	beq	a5,a4,ffffffff8400b642 <fastpath_reply_recv+0x21c>
ffffffff8400b5a2:	8ba2                	mv	s7,s0
ffffffff8400b5a4:	00043983          	ld	s3,0(s0)
ffffffff8400b5a8:	0a098063          	beqz	s3,ffffffff8400b648 <fastpath_reply_recv+0x222>
ffffffff8400b5ac:	681c                	ld	a5,16(s0)
ffffffff8400b5ae:	0307d713          	srli	a4,a5,0x30
ffffffff8400b5b2:	8b05                	andi	a4,a4,1
ffffffff8400b5b4:	cb51                	beqz	a4,ffffffff8400b648 <fastpath_reply_recv+0x222>
ffffffff8400b5b6:	01979713          	slli	a4,a5,0x19
ffffffff8400b5ba:	8365                	srli	a4,a4,0x19
ffffffff8400b5bc:	9399                	srli	a5,a5,0x26
ffffffff8400b5be:	8b85                	andi	a5,a5,1
ffffffff8400b5c0:	c781                	beqz	a5,ffffffff8400b5c8 <fastpath_reply_recv+0x1a2>
ffffffff8400b5c2:	57fd                	li	a5,-1
ffffffff8400b5c4:	179e                	slli	a5,a5,0x27
ffffffff8400b5c6:	8f5d                	or	a4,a4,a5
ffffffff8400b5c8:	17093783          	ld	a5,368(s2)
ffffffff8400b5cc:	06e79e63          	bne	a5,a4,ffffffff8400b648 <fastpath_reply_recv+0x222>
ffffffff8400b5d0:	1389b783          	ld	a5,312(s3)
ffffffff8400b5d4:	8bbd                	andi	a5,a5,15
ffffffff8400b5d6:	efa5                	bnez	a5,ffffffff8400b64e <fastpath_reply_recv+0x228>
ffffffff8400b5d8:	c009f793          	andi	a5,s3,-1024
ffffffff8400b5dc:	7398                	ld	a4,32(a5)
ffffffff8400b5de:	0287bb03          	ld	s6,40(a5)
ffffffff8400b5e2:	009b5793          	srli	a5,s6,0x9
ffffffff8400b5e6:	01979a93          	slli	s5,a5,0x19
ffffffff8400b5ea:	019ada93          	srli	s5,s5,0x19
ffffffff8400b5ee:	9399                	srli	a5,a5,0x26
ffffffff8400b5f0:	8b85                	andi	a5,a5,1
ffffffff8400b5f2:	c789                	beqz	a5,ffffffff8400b5fc <fastpath_reply_recv+0x1d6>
ffffffff8400b5f4:	57fd                	li	a5,-1
ffffffff8400b5f6:	179e                	slli	a5,a5,0x27
ffffffff8400b5f8:	00faeab3          	or	s5,s5,a5
ffffffff8400b5fc:	03b75793          	srli	a5,a4,0x3b
ffffffff8400b600:	468d                	li	a3,3
ffffffff8400b602:	04d78963          	beq	a5,a3,ffffffff8400b654 <fastpath_reply_recv+0x22e>
ffffffff8400b606:	5579                	li	a0,-2
ffffffff8400b608:	a55ff0ef          	jal	ra,ffffffff8400b05c <slowpath>
ffffffff8400b60c:	5579                	li	a0,-2
ffffffff8400b60e:	a4fff0ef          	jal	ra,ffffffff8400b05c <slowpath>
ffffffff8400b612:	03b7d693          	srli	a3,a5,0x3b
ffffffff8400b616:	ed3699e3          	bne	a3,s3,ffffffff8400b4e8 <fastpath_reply_recv+0xc2>
ffffffff8400b61a:	bd95                	j	ffffffff8400b48e <fastpath_reply_recv+0x68>
ffffffff8400b61c:	5579                	li	a0,-2
ffffffff8400b61e:	a3fff0ef          	jal	ra,ffffffff8400b05c <slowpath>
ffffffff8400b622:	03b75693          	srli	a3,a4,0x3b
ffffffff8400b626:	f45695e3          	bne	a3,t0,ffffffff8400b570 <fastpath_reply_recv+0x14a>
ffffffff8400b62a:	bdc5                	j	ffffffff8400b51a <fastpath_reply_recv+0xf4>
ffffffff8400b62c:	5579                	li	a0,-2
ffffffff8400b62e:	a2fff0ef          	jal	ra,ffffffff8400b05c <slowpath>
ffffffff8400b632:	6318                	ld	a4,0(a4)
ffffffff8400b634:	8b0d                	andi	a4,a4,3
ffffffff8400b636:	4689                	li	a3,2
ffffffff8400b638:	f4d713e3          	bne	a4,a3,ffffffff8400b57e <fastpath_reply_recv+0x158>
ffffffff8400b63c:	5579                	li	a0,-2
ffffffff8400b63e:	a1fff0ef          	jal	ra,ffffffff8400b05c <slowpath>
ffffffff8400b642:	5579                	li	a0,-2
ffffffff8400b644:	a19ff0ef          	jal	ra,ffffffff8400b05c <slowpath>
ffffffff8400b648:	5579                	li	a0,-2
ffffffff8400b64a:	a13ff0ef          	jal	ra,ffffffff8400b05c <slowpath>
ffffffff8400b64e:	5579                	li	a0,-2
ffffffff8400b650:	a0dff0ef          	jal	ra,ffffffff8400b05c <slowpath>
ffffffff8400b654:	931d                	srli	a4,a4,0x27
ffffffff8400b656:	8b05                	andi	a4,a4,1
ffffffff8400b658:	d75d                	beqz	a4,ffffffff8400b606 <fastpath_reply_recv+0x1e0>
ffffffff8400b65a:	00014c97          	auipc	s9,0x14
ffffffff8400b65e:	1becbc83          	ld	s9,446(s9) # ffffffff8401f818 <ksCurDomain>
ffffffff8400b662:	1689b583          	ld	a1,360(s3)
ffffffff8400b666:	8566                	mv	a0,s9
ffffffff8400b668:	a0dff0ef          	jal	ra,ffffffff8400b074 <isHighestPrio>
ffffffff8400b66c:	c949                	beqz	a0,ffffffff8400b6fe <fastpath_reply_recv+0x2d8>
ffffffff8400b66e:	1589b783          	ld	a5,344(s3)
ffffffff8400b672:	09979963          	bne	a5,s9,ffffffff8400b704 <fastpath_reply_recv+0x2de>
ffffffff8400b676:	1709b683          	ld	a3,368(s3)
ffffffff8400b67a:	eac1                	bnez	a3,ffffffff8400b70a <fastpath_reply_recv+0x2e4>
ffffffff8400b67c:	003a6a13          	ori	s4,s4,3
ffffffff8400b680:	11493c23          	sd	s4,280(s2)
ffffffff8400b684:	1209b703          	ld	a4,288(s3)
ffffffff8400b688:	57fd                	li	a5,-1
ffffffff8400b68a:	17a2                	slli	a5,a5,0x28
ffffffff8400b68c:	07fd                	addi	a5,a5,31
ffffffff8400b68e:	8f7d                	and	a4,a4,a5
ffffffff8400b690:	12e9b023          	sd	a4,288(s3)
ffffffff8400b694:	12093703          	ld	a4,288(s2)
ffffffff8400b698:	8ff9                	and	a5,a5,a4
ffffffff8400b69a:	0406                	slli	s0,s0,0x1
ffffffff8400b69c:	e0000737          	lui	a4,0xe0000
ffffffff8400b6a0:	8361                	srli	a4,a4,0x18
ffffffff8400b6a2:	8c79                	and	s0,s0,a4
ffffffff8400b6a4:	8c5d                	or	s0,s0,a5
ffffffff8400b6a6:	12893023          	sd	s0,288(s2)
ffffffff8400b6aa:	012bb023          	sd	s2,0(s7)
ffffffff8400b6ae:	000c3703          	ld	a4,0(s8)
ffffffff8400b6b2:	f80007b7          	lui	a5,0xf8000
ffffffff8400b6b6:	83e5                	srli	a5,a5,0x19
ffffffff8400b6b8:	8ff9                	and	a5,a5,a4
ffffffff8400b6ba:	9319                	srli	a4,a4,0x26
ffffffff8400b6bc:	8b05                	andi	a4,a4,1
ffffffff8400b6be:	cb29                	beqz	a4,ffffffff8400b710 <fastpath_reply_recv+0x2ea>
ffffffff8400b6c0:	577d                	li	a4,-1
ffffffff8400b6c2:	171e                	slli	a4,a4,0x27
ffffffff8400b6c4:	8fd9                	or	a5,a5,a4
ffffffff8400b6c6:	00014717          	auipc	a4,0x14
ffffffff8400b6ca:	19273703          	ld	a4,402(a4) # ffffffff8401f858 <ksCurThread>
ffffffff8400b6ce:	008c3583          	ld	a1,8(s8)
ffffffff8400b6d2:	16873803          	ld	a6,360(a4)
ffffffff8400b6d6:	863e                	mv	a2,a5
ffffffff8400b6d8:	16863503          	ld	a0,360(a2)
ffffffff8400b6dc:	09056563          	bltu	a0,a6,ffffffff8400b766 <fastpath_reply_recv+0x340>
ffffffff8400b6e0:	18e63c23          	sd	a4,408(a2)
ffffffff8400b6e4:	eec9                	bnez	a3,ffffffff8400b77e <fastpath_reply_recv+0x358>
ffffffff8400b6e6:	87ba                	mv	a5,a4
ffffffff8400b6e8:	18d73c23          	sd	a3,408(a4)
ffffffff8400b6ec:	1ac73023          	sd	a2,416(a4)
ffffffff8400b6f0:	00bc3423          	sd	a1,8(s8)
ffffffff8400b6f4:	0027e793          	ori	a5,a5,2
ffffffff8400b6f8:	00fc3023          	sd	a5,0(s8)
ffffffff8400b6fc:	a80d                	j	ffffffff8400b72e <fastpath_reply_recv+0x308>
ffffffff8400b6fe:	5579                	li	a0,-2
ffffffff8400b700:	95dff0ef          	jal	ra,ffffffff8400b05c <slowpath>
ffffffff8400b704:	5579                	li	a0,-2
ffffffff8400b706:	957ff0ef          	jal	ra,ffffffff8400b05c <slowpath>
ffffffff8400b70a:	5579                	li	a0,-2
ffffffff8400b70c:	951ff0ef          	jal	ra,ffffffff8400b05c <slowpath>
ffffffff8400b710:	fbdd                	bnez	a5,ffffffff8400b6c6 <fastpath_reply_recv+0x2a0>
ffffffff8400b712:	00014797          	auipc	a5,0x14
ffffffff8400b716:	1467b783          	ld	a5,326(a5) # ffffffff8401f858 <ksCurThread>
ffffffff8400b71a:	1a07b023          	sd	zero,416(a5)
ffffffff8400b71e:	1807bc23          	sd	zero,408(a5)
ffffffff8400b722:	00fc3423          	sd	a5,8(s8)
ffffffff8400b726:	0027e793          	ori	a5,a5,2
ffffffff8400b72a:	00fc3023          	sd	a5,0(s8)
ffffffff8400b72e:	008bb783          	ld	a5,8(s7)
ffffffff8400b732:	01979713          	slli	a4,a5,0x19
ffffffff8400b736:	8365                	srli	a4,a4,0x19
ffffffff8400b738:	9399                	srli	a5,a5,0x26
ffffffff8400b73a:	8b85                	andi	a5,a5,1
ffffffff8400b73c:	c7a1                	beqz	a5,ffffffff8400b784 <fastpath_reply_recv+0x35e>
ffffffff8400b73e:	00014617          	auipc	a2,0x14
ffffffff8400b742:	11a63603          	ld	a2,282(a2) # ffffffff8401f858 <ksCurThread>
ffffffff8400b746:	17063683          	ld	a3,368(a2)
ffffffff8400b74a:	16063823          	sd	zero,368(a2)
ffffffff8400b74e:	16d9b823          	sd	a3,368(s3)
ffffffff8400b752:	0136bc23          	sd	s3,24(a3) # fffffffffc000018 <ki_end+0x77fdb018>
ffffffff8400b756:	57fd                	li	a5,-1
ffffffff8400b758:	179e                	slli	a5,a5,0x27
ffffffff8400b75a:	8fd9                	or	a5,a5,a4
ffffffff8400b75c:	f29c                	sd	a5,32(a3)
ffffffff8400b75e:	010bb703          	ld	a4,16(s7)
ffffffff8400b762:	eb98                	sd	a4,16(a5)
ffffffff8400b764:	a83d                	j	ffffffff8400b7a2 <fastpath_reply_recv+0x37c>
ffffffff8400b766:	1a063503          	ld	a0,416(a2)
ffffffff8400b76a:	86b2                	mv	a3,a2
ffffffff8400b76c:	e519                	bnez	a0,ffffffff8400b77a <fastpath_reply_recv+0x354>
ffffffff8400b76e:	85ba                	mv	a1,a4
ffffffff8400b770:	1ae63023          	sd	a4,416(a2)
ffffffff8400b774:	86b2                	mv	a3,a2
ffffffff8400b776:	862a                	mv	a2,a0
ffffffff8400b778:	bf85                	j	ffffffff8400b6e8 <fastpath_reply_recv+0x2c2>
ffffffff8400b77a:	862a                	mv	a2,a0
ffffffff8400b77c:	bfb1                	j	ffffffff8400b6d8 <fastpath_reply_recv+0x2b2>
ffffffff8400b77e:	8532                	mv	a0,a2
ffffffff8400b780:	8636                	mv	a2,a3
ffffffff8400b782:	b7fd                	j	ffffffff8400b770 <fastpath_reply_recv+0x34a>
ffffffff8400b784:	00014617          	auipc	a2,0x14
ffffffff8400b788:	0d463603          	ld	a2,212(a2) # ffffffff8401f858 <ksCurThread>
ffffffff8400b78c:	17063683          	ld	a3,368(a2)
ffffffff8400b790:	16063823          	sd	zero,368(a2)
ffffffff8400b794:	16d9b823          	sd	a3,368(s3)
ffffffff8400b798:	0136bc23          	sd	s3,24(a3)
ffffffff8400b79c:	87ba                	mv	a5,a4
ffffffff8400b79e:	f298                	sd	a4,32(a3)
ffffffff8400b7a0:	ff5d                	bnez	a4,ffffffff8400b75e <fastpath_reply_recv+0x338>
ffffffff8400b7a2:	07f4f693          	andi	a3,s1,127
ffffffff8400b7a6:	000bb423          	sd	zero,8(s7)
ffffffff8400b7aa:	000bb823          	sd	zero,16(s7)
ffffffff8400b7ae:	ce81                	beqz	a3,ffffffff8400b7c6 <fastpath_reply_recv+0x3a0>
ffffffff8400b7b0:	87b2                	mv	a5,a2
ffffffff8400b7b2:	05898713          	addi	a4,s3,88
ffffffff8400b7b6:	068e                	slli	a3,a3,0x3
ffffffff8400b7b8:	9636                	add	a2,a2,a3
ffffffff8400b7ba:	6fb4                	ld	a3,88(a5)
ffffffff8400b7bc:	e314                	sd	a3,0(a4)
ffffffff8400b7be:	07a1                	addi	a5,a5,8
ffffffff8400b7c0:	0721                	addi	a4,a4,8
ffffffff8400b7c2:	fec79ce3          	bne	a5,a2,ffffffff8400b7ba <fastpath_reply_recv+0x394>
ffffffff8400b7c6:	4785                	li	a5,1
ffffffff8400b7c8:	10f9bc23          	sd	a5,280(s3)
ffffffff8400b7cc:	179a                	slli	a5,a5,0x26
ffffffff8400b7ce:	97d6                	add	a5,a5,s5
ffffffff8400b7d0:	83b1                	srli	a5,a5,0xc
ffffffff8400b7d2:	577d                	li	a4,-1
ffffffff8400b7d4:	01475a93          	srli	s5,a4,0x14
ffffffff8400b7d8:	0157f7b3          	and	a5,a5,s5
ffffffff8400b7dc:	030b5b13          	srli	s6,s6,0x30
ffffffff8400b7e0:	1b32                	slli	s6,s6,0x2c
ffffffff8400b7e2:	0167e7b3          	or	a5,a5,s6
ffffffff8400b7e6:	177e                	slli	a4,a4,0x3f
ffffffff8400b7e8:	8fd9                	or	a5,a5,a4
ffffffff8400b7ea:	18079073          	csrw	satp,a5
ffffffff8400b7ee:	12000073          	sfence.vma
ffffffff8400b7f2:	00014797          	auipc	a5,0x14
ffffffff8400b7f6:	0737b323          	sd	s3,102(a5) # ffffffff8401f858 <ksCurThread>
ffffffff8400b7fa:	4501                	li	a0,0
ffffffff8400b7fc:	75fd                	lui	a1,0xfffff
ffffffff8400b7fe:	1ff58593          	addi	a1,a1,511 # fffffffffffff1ff <ki_end+0x7bfda1ff>
ffffffff8400b802:	8de5                	and	a1,a1,s1
ffffffff8400b804:	82ce                	mv	t0,s3
ffffffff8400b806:	0002b083          	ld	ra,0(t0)
ffffffff8400b80a:	0082b103          	ld	sp,8(t0)
ffffffff8400b80e:	0102b183          	ld	gp,16(t0)
ffffffff8400b812:	0302b383          	ld	t2,48(t0)
ffffffff8400b816:	0382b403          	ld	s0,56(t0)
ffffffff8400b81a:	0402b483          	ld	s1,64(t0)
ffffffff8400b81e:	0582b603          	ld	a2,88(t0)
ffffffff8400b822:	0602b683          	ld	a3,96(t0)
ffffffff8400b826:	0682b703          	ld	a4,104(t0)
ffffffff8400b82a:	0702b783          	ld	a5,112(t0)
ffffffff8400b82e:	0782b803          	ld	a6,120(t0)
ffffffff8400b832:	0802b883          	ld	a7,128(t0)
ffffffff8400b836:	0882b903          	ld	s2,136(t0)
ffffffff8400b83a:	0902b983          	ld	s3,144(t0)
ffffffff8400b83e:	0982ba03          	ld	s4,152(t0)
ffffffff8400b842:	0a02ba83          	ld	s5,160(t0)
ffffffff8400b846:	0a82bb03          	ld	s6,168(t0)
ffffffff8400b84a:	0b02bb83          	ld	s7,176(t0)
ffffffff8400b84e:	0b82bc03          	ld	s8,184(t0)
ffffffff8400b852:	0c02bc83          	ld	s9,192(t0)
ffffffff8400b856:	0c82bd03          	ld	s10,200(t0)
ffffffff8400b85a:	0d02bd83          	ld	s11,208(t0)
ffffffff8400b85e:	0d82be03          	ld	t3,216(t0)
ffffffff8400b862:	0e02be83          	ld	t4,224(t0)
ffffffff8400b866:	0e82bf03          	ld	t5,232(t0)
ffffffff8400b86a:	0f02bf83          	ld	t6,240(t0)
ffffffff8400b86e:	0182b303          	ld	t1,24(t0)
ffffffff8400b872:	00030233          	add	tp,t1,zero
ffffffff8400b876:	1102b303          	ld	t1,272(t0)
ffffffff8400b87a:	14131073          	csrw	sepc,t1
ffffffff8400b87e:	14029073          	csrw	sscratch,t0
ffffffff8400b882:	1002b303          	ld	t1,256(t0)
ffffffff8400b886:	10031073          	csrw	sstatus,t1
ffffffff8400b88a:	0282b303          	ld	t1,40(t0)
ffffffff8400b88e:	0202b283          	ld	t0,32(t0)
ffffffff8400b892:	10200073          	sret

ffffffff8400b896 <c_handle_syscall>:
ffffffff8400b896:	1141                	addi	sp,sp,-16
ffffffff8400b898:	e406                	sd	ra,8(sp)
ffffffff8400b89a:	57fd                	li	a5,-1
ffffffff8400b89c:	00f88863          	beq	a7,a5,ffffffff8400b8ac <c_handle_syscall+0x16>
ffffffff8400b8a0:	57f9                	li	a5,-2
ffffffff8400b8a2:	00f88763          	beq	a7,a5,ffffffff8400b8b0 <c_handle_syscall+0x1a>
ffffffff8400b8a6:	8546                	mv	a0,a7
ffffffff8400b8a8:	fb4ff0ef          	jal	ra,ffffffff8400b05c <slowpath>
ffffffff8400b8ac:	839ff0ef          	jal	ra,ffffffff8400b0e4 <fastpath_call>
ffffffff8400b8b0:	8642                	mv	a2,a6
ffffffff8400b8b2:	b75ff0ef          	jal	ra,ffffffff8400b426 <fastpath_reply_recv>

ffffffff8400b8b6 <__ctzdi2>:
ffffffff8400b8b6:	00153713          	seqz	a4,a0
ffffffff8400b8ba:	02051693          	slli	a3,a0,0x20
ffffffff8400b8be:	9281                	srli	a3,a3,0x20
ffffffff8400b8c0:	0016b693          	seqz	a3,a3
ffffffff8400b8c4:	0696                	slli	a3,a3,0x5
ffffffff8400b8c6:	00d557b3          	srl	a5,a0,a3
ffffffff8400b8ca:	00d7053b          	addw	a0,a4,a3
ffffffff8400b8ce:	03079713          	slli	a4,a5,0x30
ffffffff8400b8d2:	9341                	srli	a4,a4,0x30
ffffffff8400b8d4:	00173713          	seqz	a4,a4
ffffffff8400b8d8:	0712                	slli	a4,a4,0x4
ffffffff8400b8da:	00e7d7b3          	srl	a5,a5,a4
ffffffff8400b8de:	9d39                	addw	a0,a0,a4
ffffffff8400b8e0:	0ff7f713          	andi	a4,a5,255
ffffffff8400b8e4:	00173713          	seqz	a4,a4
ffffffff8400b8e8:	070e                	slli	a4,a4,0x3
ffffffff8400b8ea:	00e7d7b3          	srl	a5,a5,a4
ffffffff8400b8ee:	9d39                	addw	a0,a0,a4
ffffffff8400b8f0:	00f7f713          	andi	a4,a5,15
ffffffff8400b8f4:	00173713          	seqz	a4,a4
ffffffff8400b8f8:	070a                	slli	a4,a4,0x2
ffffffff8400b8fa:	00e7d7b3          	srl	a5,a5,a4
ffffffff8400b8fe:	9d39                	addw	a0,a0,a4
ffffffff8400b900:	0037f713          	andi	a4,a5,3
ffffffff8400b904:	00173713          	seqz	a4,a4
ffffffff8400b908:	0706                	slli	a4,a4,0x1
ffffffff8400b90a:	9d39                	addw	a0,a0,a4
ffffffff8400b90c:	00e7d7b3          	srl	a5,a5,a4
ffffffff8400b910:	0017c793          	xori	a5,a5,1
ffffffff8400b914:	8b85                	andi	a5,a5,1
ffffffff8400b916:	9d3d                	addw	a0,a0,a5
ffffffff8400b918:	8082                	ret
